 nodessl

 Timestamp is 5a170226 (Thu Nov 23 18:15:18 2017)

 Preferred load address is 0000000180000000

 Start         Length     Name                   Class
 0001:00000000 0002f1e0H .text$mn                CODE
 0001:0002f1e0 000000e0H .text$mn$00             CODE
 0001:0002f2c0 00002d00H .text$x                 CODE
 0001:00031fc0 00000091H .text$yd                CODE
 0002:00000000 00000280H .idata$5                DATA
 0002:00000280 00000020H .00cfg                  DATA
 0002:000002a0 00000008H .CRT$XCA                DATA
 0002:000002a8 00000008H .CRT$XCU                DATA
 0002:000002b0 00000008H .CRT$XCZ                DATA
 0002:000002b8 00000008H .CRT$XIA                DATA
 0002:000002c0 00000020H .CRT$XIC                DATA
 0002:000002e0 00000008H .CRT$XIZ                DATA
 0002:000002e8 00000008H .CRT$XLA                DATA
 0002:000002f0 00000008H .CRT$XLZ                DATA
 0002:000002f8 00000008H .CRT$XPA                DATA
 0002:00000300 00000010H .CRT$XPX                DATA
 0002:00000310 00000008H .CRT$XPXA               DATA
 0002:00000318 00000008H .CRT$XPZ                DATA
 0002:00000320 00000008H .CRT$XTA                DATA
 0002:00000328 00000008H .CRT$XTZ                DATA
 0002:00000330 00000000H .gfids$y                DATA
 0002:00000330 0000bc58H .rdata                  DATA
 0002:0000bf88 00000028H .rdata$T                DATA
 0002:0000bfb0 00000484H .rdata$r                DATA
 0002:0000c434 0000045cH .rdata$zzzdbg           DATA
 0002:0000c890 00000008H .rtc$IAA                DATA
 0002:0000c898 00000008H .rtc$IZZ                DATA
 0002:0000c8a0 00000008H .rtc$TAA                DATA
 0002:0000c8a8 00000008H .rtc$TZZ                DATA
 0002:0000c8b0 00000004H .tls                    DATA
 0002:0000c8b4 00000004H .tls$                   DATA
 0002:0000c8b8 00000008H .tls$ZZZ                DATA
 0002:0000c8c0 00006ed8H .xdata                  DATA
 0002:00013798 000002ccH .xdata$x                DATA
 0002:00013a64 00000020H .didat$2                DATA
 0002:00013a84 00000024H .didat$3                DATA
 0002:00013aa8 00000548H .didat$4                DATA
 0002:00013ff0 00001998H .didat$6                DATA
 0002:00015988 00000548H .didat$7                DATA
 0002:00015ed0 00000054H .edata                  DATA
 0002:00015f24 00000014H .idata$2                DATA
 0002:00015f38 00000018H .idata$3                DATA
 0002:00015f50 00000280H .idata$4                DATA
 0002:000161d0 000005ccH .idata$6                DATA
 0003:00000000 00000970H .data                   DATA
 0003:00000970 00000190H .data$r                 DATA
 0003:00000b00 00000550H .didat$5                DATA
 0003:00001050 0000129cH .bss                    DATA
 0004:00000000 000026e8H .pdata                  DATA
 0005:00000000 00000060H .rsrc$01                DATA
 0005:00000060 00000180H .rsrc$02                DATA

  Address         Publics by Value              Rva+Base               Lib:Object

 0000:00000000       __dynamic_value_reloc_table 0000000000000000     <absolute>
 0000:00000000       __guard_iat_count          0000000000000000     <absolute>
 0000:00000000       __hybrid_code_map          0000000000000000     <absolute>
 0000:00000000       __hybrid_code_map_count    0000000000000000     <absolute>
 0000:00000000       __guard_iat_table          0000000000000000     <absolute>
 0000:00000000       __hybrid_auxiliary_iat     0000000000000000     <absolute>
 0000:00000000       __guard_fids_count         0000000000000000     <absolute>
 0000:00000000       __guard_longjmp_table      0000000000000000     <absolute>
 0000:00000000       __enclave_config           0000000000000000     <absolute>
 0000:00000000       __guard_longjmp_count      0000000000000000     <absolute>
 0000:00000000       ___safe_se_handler_table   0000000000000000     <absolute>
 0000:00000000       ___safe_se_handler_count   0000000000000000     <absolute>
 0000:00000000       __guard_fids_table         0000000000000000     <absolute>
 0000:00000100       __guard_flags              0000000000000100     <absolute>
 0000:00000000       __ImageBase                0000000180000000     <linker-defined>
 0001:00000000       ??1HandleScope@Nan@@QEAA@XZ 0000000180001000 f i main.obj
 0001:00000000       ??1EscapableHandleScope@Nan@@QEAA@XZ 0000000180001000 f i w_key.obj
 0001:00000010       ?EcNamedCurves@@YAXV?$Local@VObject@v8@@@v8@@@Z 0000000180001010 f   main.obj
 0001:00001690       ?InitModule@@YAXV?$Local@VObject@v8@@@v8@@@Z 0000000180002690 f   main.obj
 0001:00001a80       ?BN_bn2bin_padded@@YAHPEAE_KPEBUbignum_st@@@Z 0000000180002a80 f   bn.obj
 0001:00001bc0       ??0exception@stdext@@QEAA@AEBV01@@Z 0000000180002bc0 f i key_exp.obj
 0001:00001be0       ?what@exception@stdext@@UEBAPEBDXZ 0000000180002be0 f i key_exp.obj
 0001:00001c00       ?_Doraise@exception@stdext@@MEBAXXZ 0000000180002c00 f i key_exp.obj
 0001:00001c00       _guard_check_icall_nop     0000000180002c00 f i LIBCMT:guard_support.obj
 0001:00001c10       ??_Eruntime_error@std@@UEAAPEAXI@Z 0000000180002c10 f i * CIL library *:* CIL module *
 0001:00001c10       ??_Gruntime_error@std@@UEAAPEAXI@Z 0000000180002c10 f i key_exp.obj
 0001:00001c10       ??_Gexception@stdext@@UEAAPEAXI@Z 0000000180002c10 f i key_exp.obj
 0001:00001c10       ??_Eexception@stdext@@UEAAPEAXI@Z 0000000180002c10 f i * CIL library *:* CIL module *
 0001:00001c40       ?_Get_deleter@_Ref_count_base@std@@UEBAPEAXAEBVtype_info@@@Z 0000000180002c40 f i key_exp.obj
 0001:00001c50       ??_G_Ref_count_base@std@@UEAAPEAXI@Z 0000000180002c50 f i key_exp.obj
 0001:00001c50       ??_E_Ref_count_base@std@@UEAAPEAXI@Z 0000000180002c50 f i * CIL library *:* CIL module *
 0001:00001c80       ??0runtime_error@std@@QEAA@PEBD@Z 0000000180002c80 f i key_exp.obj
 0001:00001ca0       ??1runtime_error@std@@UEAA@XZ 0000000180002ca0 f i key_exp.obj
 0001:00001e10       ??0runtime_error@std@@QEAA@AEBV01@@Z 0000000180002e10 f i key_exp.obj
 0001:00001f60       ??1?$shared_ptr@V?$basic_string@DU?$char_traits@D@std@@V?$allocator@D@2@@std@@@std@@QEAA@XZ 0000000180002f60 f i key_exp.obj
 0001:00001f60       ??1?$shared_ptr@VJwkEc@@@std@@QEAA@XZ 0000000180002f60 f i ec_jwk.obj
 0001:00001f60       ??1?$shared_ptr@V?$ScopedSSL@Uevp_pkey_st@@$1?ScopedEVP_PKEY_free@@YAXPEAX@Z@@@std@@QEAA@XZ 0000000180002f60 f i key_exp.obj
 0001:00001f60       ??1?$shared_ptr@VScopedPbkdf2@@@std@@QEAA@XZ 0000000180002f60 f i w_pbkdf2.obj
 0001:00001f60       ??1?$shared_ptr@VScopedHMAC@@@std@@QEAA@XZ 0000000180002f60 f i hmac_gen.obj
 0001:00001f60       ??1?$shared_ptr@VJwkRsa@@@std@@QEAA@XZ 0000000180002f60 f i rsa_jwk.obj
 0001:00001f60       ??1?$shared_ptr@VScopedAES@@@std@@QEAA@XZ 0000000180002f60 f i aes_gen.obj
 0001:00001fb0       ??1?$ScopedSSL@Ubignum_ctx@@$1?ScopedBN_CTX_free@@YAXPEAX@Z@@QEAA@XZ 0000000180002fb0 f i ec_jwk.obj
 0001:00001fb0       ??1?$ScopedSSL@Uevp_cipher_ctx_st@@$1?ScopedEVP_CIPHER_CTX_free@@YAXPEAX@Z@@QEAA@XZ 0000000180002fb0 f i aes_ecb.obj
 0001:00001fb0       ??1?$ScopedSSL@Uevp_pkey_ctx_st@@$1?ScopedEVP_PKEY_CTX_free@@YAXPEAX@Z@@QEAA@XZ 0000000180002fb0 f i rsa_oaep.obj
 0001:00001fb0       ??1?$ScopedSSL@Uevp_pkey_st@@$1?ScopedEVP_PKEY_free@@YAXPEAX@Z@@QEAA@XZ 0000000180002fb0 f i key_exp.obj
 0001:00001fb0       ??1?$ScopedSSL@Uec_key_st@@$1?ScopedEC_KEY_free@@YAXPEAX@Z@@QEAA@XZ 0000000180002fb0 f i ec_gen.obj
 0001:00001fb0       ??1?$ScopedSSL@Uenv_md_ctx_st@@$1?ScopedEVP_MD_CTX_free@@YAXPEAX@Z@@QEAA@XZ 0000000180002fb0 f i rsa_pkcs1.obj
 0001:00001fb0       ??1?$ScopedSSL@Ubignum_st@@$1?ScopedBIGNUM_free@@YAXPEAX@Z@@QEAA@XZ 0000000180002fb0 f i rsa_gen.obj
 0001:00001fb0       ??1?$ScopedSSL@Ubio_st@@$1?ScopedBIO_free@@YAXPEAX@Z@@QEAA@XZ 0000000180002fb0 f i key_exp.obj
 0001:00001fb0       ??1?$ScopedSSL@UECDSA_SIG_st@@$1?ScopedECDSA_SIG_free@@YAXPEAX@Z@@QEAA@XZ 0000000180002fb0 f i ec_dsa.obj
 0001:00001fb0       ??1?$ScopedSSL@Ursa_st@@$1?ScopedRSA_free@@YAXPEAX@Z@@QEAA@XZ 0000000180002fb0 f i w_key.obj
 0001:00001fb0       ??1?$ScopedSSL@Uec_group_st@@$1?ScopedEC_GROUP_free@@YAXPEAX@Z@@QEAA@XZ 0000000180002fb0 f i ec_jwk.obj
 0001:00001fe0       ?c_str@?$basic_string@DU?$char_traits@D@std@@V?$allocator@D@2@@std@@QEBAPEBDXZ 0000000180002fe0 f i key_exp.obj
 0001:00001ff0       ??1?$basic_string@DU?$char_traits@D@std@@V?$allocator@D@2@@std@@QEAA@XZ 0000000180002ff0 f i key_exp.obj
 0001:00002060       ?assign@?$basic_string@DU?$char_traits@D@std@@V?$allocator@D@2@@std@@QEAAAEAV12@QEBD_K@Z 0000000180003060 f i key_exp.obj
 0001:000021d0       ??$?0V?$basic_string@DU?$char_traits@D@std@@V?$allocator@D@2@@std@@@?$shared_ptr@V?$basic_string@DU?$char_traits@D@std@@V?$allocator@D@2@@std@@@std@@QEAA@PEAV?$basic_string@DU?$char_traits@D@std@@V?$allocator@D@2@@1@@Z 00000001800031d0 f i key_exp.obj
 0001:00002230       ??$?0V?$ScopedSSL@Uevp_pkey_st@@$1?ScopedEVP_PKEY_free@@YAXPEAX@Z@@@?$shared_ptr@V?$ScopedSSL@Uevp_pkey_st@@$1?ScopedEVP_PKEY_free@@YAXPEAX@Z@@@std@@QEAA@PEAV?$ScopedSSL@Uevp_pkey_st@@$1?ScopedEVP_PKEY_free@@YAXPEAX@Z@@@Z 0000000180003230 f i key_exp.obj
 0001:000022a0       ?_Xlen@?$basic_string@DU?$char_traits@D@std@@V?$allocator@D@2@@std@@SAXXZ 00000001800032a0 f i key_exp.obj
 0001:000022c0       ??_G?$basic_string@DU?$char_traits@D@std@@V?$allocator@D@2@@std@@QEAAPEAXI@Z 00000001800032c0 f i key_exp.obj
 0001:00002340       ?_Delete_this@?$_Ref_count@VScopedAES@@@std@@EEAAXXZ 0000000180003340 f i aes_gen.obj
 0001:00002340       ?_Delete_this@?$_Ref_count@VScopedHMAC@@@std@@EEAAXXZ 0000000180003340 f i hmac_gen.obj
 0001:00002340       ?_Delete_this@?$_Ref_count@V?$ScopedSSL@Uevp_pkey_st@@$1?ScopedEVP_PKEY_free@@YAXPEAX@Z@@@std@@EEAAXXZ 0000000180003340 f i key_exp.obj
 0001:00002340       ?_Delete_this@?$_Ref_count@V?$basic_string@DU?$char_traits@D@std@@V?$allocator@D@2@@std@@@std@@EEAAXXZ 0000000180003340 f i key_exp.obj
 0001:00002340       ?_Delete_this@?$_Ref_count@VJwkRsa@@@std@@EEAAXXZ 0000000180003340 f i rsa_jwk.obj
 0001:00002340       ?_Delete_this@?$_Ref_count@VScopedPbkdf2@@@std@@EEAAXXZ 0000000180003340 f i async_pbkdf2.obj
 0001:00002340       ?_Delete_this@?$_Ref_count@VJwkEc@@@std@@EEAAXXZ 0000000180003340 f i ec_jwk.obj
 0001:00002360       ?_Destroy@?$_Ref_count@V?$ScopedSSL@Uevp_pkey_st@@$1?ScopedEVP_PKEY_free@@YAXPEAX@Z@@@std@@EEAAXXZ 0000000180003360 f i key_exp.obj
 0001:000023a0       ?_Destroy@?$_Ref_count@V?$basic_string@DU?$char_traits@D@std@@V?$allocator@D@2@@std@@@std@@EEAAXXZ 00000001800033a0 f i key_exp.obj
 0001:000023b0       ??_E?$_Ref_count@VScopedPbkdf2@@@std@@UEAAPEAXI@Z 00000001800033b0 f i * CIL library *:* CIL module *
 0001:000023b0       ??_G?$_Ref_count@V?$ScopedSSL@Uevp_pkey_st@@$1?ScopedEVP_PKEY_free@@YAXPEAX@Z@@@std@@UEAAPEAXI@Z 00000001800033b0 f i key_exp.obj
 0001:000023b0       ??_E?$_Ref_count@V?$ScopedSSL@Uevp_pkey_st@@$1?ScopedEVP_PKEY_free@@YAXPEAX@Z@@@std@@UEAAPEAXI@Z 00000001800033b0 f i * CIL library *:* CIL module *
 0001:000023b0       ??_E?$_Ref_count@VScopedAES@@@std@@UEAAPEAXI@Z 00000001800033b0 f i * CIL library *:* CIL module *
 0001:000023b0       ??_E?$_Ref_count@V?$basic_string@DU?$char_traits@D@std@@V?$allocator@D@2@@std@@@std@@UEAAPEAXI@Z 00000001800033b0 f i * CIL library *:* CIL module *
 0001:000023b0       ??_G?$_Ref_count@VScopedHMAC@@@std@@UEAAPEAXI@Z 00000001800033b0 f i hmac_gen.obj
 0001:000023b0       ??_G?$_Ref_count@VJwkRsa@@@std@@UEAAPEAXI@Z 00000001800033b0 f i rsa_jwk.obj
 0001:000023b0       ??_E?$_Ref_count@VScopedHMAC@@@std@@UEAAPEAXI@Z 00000001800033b0 f i * CIL library *:* CIL module *
 0001:000023b0       ??_E?$_Ref_count@VJwkEc@@@std@@UEAAPEAXI@Z 00000001800033b0 f i * CIL library *:* CIL module *
 0001:000023b0       ??_G?$_Ref_count@V?$basic_string@DU?$char_traits@D@std@@V?$allocator@D@2@@std@@@std@@UEAAPEAXI@Z 00000001800033b0 f i key_exp.obj
 0001:000023b0       ??_G?$_Ref_count@VScopedAES@@@std@@UEAAPEAXI@Z 00000001800033b0 f i aes_gen.obj
 0001:000023b0       ??_G?$_Ref_count@VJwkEc@@@std@@UEAAPEAXI@Z 00000001800033b0 f i ec_jwk.obj
 0001:000023b0       ??_E?$_Ref_count@VJwkRsa@@@std@@UEAAPEAXI@Z 00000001800033b0 f i * CIL library *:* CIL module *
 0001:000023b0       ??_G?$_Ref_count@VScopedPbkdf2@@@std@@UEAAPEAXI@Z 00000001800033b0 f i async_pbkdf2.obj
 0001:000023e0       ?_Reset0@?$_Ptr_base@V?$ScopedSSL@Uevp_pkey_st@@$1?ScopedEVP_PKEY_free@@YAXPEAX@Z@@@std@@QEAAXPEAV?$ScopedSSL@Uevp_pkey_st@@$1?ScopedEVP_PKEY_free@@YAXPEAX@Z@@PEAV_Ref_count_base@2@@Z 00000001800033e0 f i key_exp.obj
 0001:000023e0       ?_Reset0@?$_Ptr_base@VScopedPbkdf2@@@std@@QEAAXPEAVScopedPbkdf2@@PEAV_Ref_count_base@2@@Z 00000001800033e0 f i w_pbkdf2.obj
 0001:000023e0       ?_Reset0@?$_Ptr_base@V?$basic_string@DU?$char_traits@D@std@@V?$allocator@D@2@@std@@@std@@QEAAXPEAV?$basic_string@DU?$char_traits@D@std@@V?$allocator@D@2@@2@PEAV_Ref_count_base@2@@Z 00000001800033e0 f i key_exp.obj
 0001:000023e0       ?_Reset0@?$_Ptr_base@VScopedAES@@@std@@QEAAXPEAVScopedAES@@PEAV_Ref_count_base@2@@Z 00000001800033e0 f i aes_gen.obj
 0001:000023e0       ?_Reset0@?$_Ptr_base@VJwkEc@@@std@@QEAAXPEAVJwkEc@@PEAV_Ref_count_base@2@@Z 00000001800033e0 f i ec_jwk.obj
 0001:000023e0       ?_Reset0@?$_Ptr_base@VScopedHMAC@@@std@@QEAAXPEAVScopedHMAC@@PEAV_Ref_count_base@2@@Z 00000001800033e0 f i hmac_gen.obj
 0001:000023e0       ?_Reset0@?$_Ptr_base@VJwkRsa@@@std@@QEAAXPEAVJwkRsa@@PEAV_Ref_count_base@2@@Z 00000001800033e0 f i rsa_jwk.obj
 0001:00002470       ?ScopedBIGNUM_free@@YAXPEAX@Z 0000000180003470 f   scoped_ssl.obj
 0001:00002480       ?ScopedEVP_PKEY_free@@YAXPEAX@Z 0000000180003480 f   scoped_ssl.obj
 0001:00002490       ?ScopedRSA_free@@YAXPEAX@Z 0000000180003490 f   scoped_ssl.obj
 0001:000024a0       ?ScopedEC_KEY_free@@YAXPEAX@Z 00000001800034a0 f   scoped_ssl.obj
 0001:000024b0       ?ScopedBIO_free@@YAXPEAX@Z 00000001800034b0 f   scoped_ssl.obj
 0001:000024c0       ?ScopedEVP_PKEY_CTX_free@@YAXPEAX@Z 00000001800034c0 f   scoped_ssl.obj
 0001:000024d0       ?ScopedBN_CTX_free@@YAXPEAX@Z 00000001800034d0 f   scoped_ssl.obj
 0001:000024e0       ?ScopedECDSA_SIG_free@@YAXPEAX@Z 00000001800034e0 f   scoped_ssl.obj
 0001:000024f0       ?ScopedEC_GROUP_free@@YAXPEAX@Z 00000001800034f0 f   scoped_ssl.obj
 0001:00002500       ?ScopedEVP_CIPHER_CTX_free@@YAXPEAX@Z 0000000180003500 f   scoped_ssl.obj
 0001:00002510       ?ScopedEVP_MD_CTX_free@@YAXPEAX@Z 0000000180003510 f   scoped_ssl.obj
 0001:00002520       ?OPENSSL_get_errors@@YA?AV?$basic_string@DU?$char_traits@D@std@@V?$allocator@D@2@@std@@XZ 0000000180003520 f   excep.obj
 0001:000025c0       ?digest@@YA?AV?$shared_ptr@V?$basic_string@DU?$char_traits@D@std@@V?$allocator@D@2@@std@@@std@@PEBUenv_md_st@@V12@@Z 00000001800035c0 f   digest.obj
 0001:00002770       ?resize@?$basic_string@DU?$char_traits@D@std@@V?$allocator@D@2@@std@@QEAAX_KD@Z 0000000180003770 f i digest.obj
 0001:00002990       ?RSA_generate@@YA?AV?$shared_ptr@V?$ScopedSSL@Uevp_pkey_st@@$1?ScopedEVP_PKEY_free@@YAXPEAX@Z@@@std@@HH@Z 0000000180003990 f   rsa_gen.obj
 0001:00002ba0       ??4?$ScopedSSL@Ubignum_st@@$1?ScopedBIGNUM_free@@YAXPEAX@Z@@QEAAAEAV0@PEAUbignum_st@@@Z 0000000180003ba0 f i rsa_gen.obj
 0001:00002be0       ?From@JwkRsa@@SA?AV?$shared_ptr@VJwkRsa@@@std@@V?$shared_ptr@V?$ScopedSSL@Uevp_pkey_st@@$1?ScopedEVP_PKEY_free@@YAXPEAX@Z@@@3@AEAH@Z 0000000180003be0 f   rsa_jwk.obj
 0001:00002ec0       ?To@JwkRsa@@QEAA?AV?$shared_ptr@V?$ScopedSSL@Uevp_pkey_st@@$1?ScopedEVP_PKEY_free@@YAXPEAX@Z@@@std@@AEAH@Z 0000000180003ec0 f   rsa_jwk.obj
 0001:00003050       ??$?0VJwkRsa@@@?$shared_ptr@VJwkRsa@@@std@@QEAA@PEAVJwkRsa@@@Z 0000000180004050 f i rsa_jwk.obj
 0001:000030b0       ??_GJwkRsa@@QEAAPEAXI@Z    00000001800040b0 f i rsa_jwk.obj
 0001:00003150       ?_Destroy@?$_Ref_count@VJwkRsa@@@std@@EEAAXXZ 0000000180004150 f i rsa_jwk.obj
 0001:00003160       ?RSA_PKCS1_sign@@YA?AV?$shared_ptr@V?$basic_string@DU?$char_traits@D@std@@V?$allocator@D@2@@std@@@std@@V?$shared_ptr@V?$ScopedSSL@Uevp_pkey_st@@$1?ScopedEVP_PKEY_free@@YAXPEAX@Z@@@2@PEBUenv_md_st@@V12@@Z 0000000180004160 f   rsa_pkcs1.obj
 0001:00003380       ?RSA_PKCS1_verify@@YA_NV?$shared_ptr@V?$ScopedSSL@Uevp_pkey_st@@$1?ScopedEVP_PKEY_free@@YAXPEAX@Z@@@std@@PEBUenv_md_st@@V?$shared_ptr@V?$basic_string@DU?$char_traits@D@std@@V?$allocator@D@2@@std@@@2@2@Z 0000000180004380 f   rsa_pkcs1.obj
 0001:00003510       ?RSA_OAEP_enc_dec@@YA?AV?$shared_ptr@V?$basic_string@DU?$char_traits@D@std@@V?$allocator@D@2@@std@@@std@@V?$shared_ptr@V?$ScopedSSL@Uevp_pkey_st@@$1?ScopedEVP_PKEY_free@@YAXPEAX@Z@@@2@PEBUenv_md_st@@V12@2_N@Z 0000000180004510 f   rsa_oaep.obj
 0001:00003a30       ?RSA_PSS_sign@@YA?AV?$shared_ptr@V?$basic_string@DU?$char_traits@D@std@@V?$allocator@D@2@@std@@@std@@V?$shared_ptr@V?$ScopedSSL@Uevp_pkey_st@@$1?ScopedEVP_PKEY_free@@YAXPEAX@Z@@@2@PEBUenv_md_st@@HV12@@Z 0000000180004a30 f   rsa_pss.obj
 0001:00003c70       ?RSA_PSS_verify@@YA_NV?$shared_ptr@V?$ScopedSSL@Uevp_pkey_st@@$1?ScopedEVP_PKEY_free@@YAXPEAX@Z@@@std@@PEBUenv_md_st@@HV?$shared_ptr@V?$basic_string@DU?$char_traits@D@std@@V?$allocator@D@2@@std@@@2@2@Z 0000000180004c70 f   rsa_pss.obj
 0001:00003e20       ?EC_generate@@YA?AV?$shared_ptr@V?$ScopedSSL@Uevp_pkey_st@@$1?ScopedEVP_PKEY_free@@YAXPEAX@Z@@@std@@AEAH@Z 0000000180004e20 f   ec_gen.obj
 0001:00004040       ??4?$shared_ptr@VScopedAES@@@std@@QEAAAEAV01@$$QEAV01@@Z 0000000180005040 f i async_aes.obj
 0001:00004040       ??4?$shared_ptr@V?$ScopedSSL@Uevp_pkey_st@@$1?ScopedEVP_PKEY_free@@YAXPEAX@Z@@@std@@QEAAAEAV01@$$QEAV01@@Z 0000000180005040 f i ec_gen.obj
 0001:00004040       ??4?$shared_ptr@V?$basic_string@DU?$char_traits@D@std@@V?$allocator@D@2@@std@@@std@@QEAAAEAV01@$$QEAV01@@Z 0000000180005040 f i w_key.obj
 0001:00004040       ??4?$shared_ptr@VScopedHMAC@@@std@@QEAAAEAV01@$$QEAV01@@Z 0000000180005040 f i async_hmac.obj
 0001:000045e0       ?EC_DSA_sign@@YA?AV?$shared_ptr@V?$basic_string@DU?$char_traits@D@std@@V?$allocator@D@2@@std@@@std@@V?$shared_ptr@V?$ScopedSSL@Uevp_pkey_st@@$1?ScopedEVP_PKEY_free@@YAXPEAX@Z@@@2@PEBUenv_md_st@@V12@@Z 00000001800055e0 f   ec_dsa.obj
 0001:00004890       ?EC_DSA_verify@@YA_NV?$shared_ptr@V?$ScopedSSL@Uevp_pkey_st@@$1?ScopedEVP_PKEY_free@@YAXPEAX@Z@@@std@@PEBUenv_md_st@@V?$shared_ptr@V?$basic_string@DU?$char_traits@D@std@@V?$allocator@D@2@@std@@@2@2@Z 0000000180005890 f   ec_dsa.obj
 0001:00004b80       ?ECDH_derive_key@@YA?AV?$shared_ptr@V?$basic_string@DU?$char_traits@D@std@@V?$allocator@D@2@@std@@@std@@V?$shared_ptr@V?$ScopedSSL@Uevp_pkey_st@@$1?ScopedEVP_PKEY_free@@YAXPEAX@Z@@@2@0AEA_K@Z 0000000180005b80 f   ec_dh.obj
 0001:00004e00       ?EC_get_named_curve@@YAHPEAUec_key_st@@@Z 0000000180005e00 f   ec_dh.obj
 0001:00004e80       ?ECDH_derive_bits@@YA?AV?$shared_ptr@V?$basic_string@DU?$char_traits@D@std@@V?$allocator@D@2@@std@@@std@@V?$shared_ptr@V?$ScopedSSL@Uevp_pkey_st@@$1?ScopedEVP_PKEY_free@@YAXPEAX@Z@@@2@0_NI@Z 0000000180005e80 f   ec_dh.obj
 0001:00005250       ?From@JwkEc@@SA?AV?$shared_ptr@VJwkEc@@@std@@V?$shared_ptr@V?$ScopedSSL@Uevp_pkey_st@@$1?ScopedEVP_PKEY_free@@YAXPEAX@Z@@@3@AEAH@Z 0000000180006250 f   ec_jwk.obj
 0001:00005590       ?To@JwkEc@@QEAA?AV?$shared_ptr@V?$ScopedSSL@Uevp_pkey_st@@$1?ScopedEVP_PKEY_free@@YAXPEAX@Z@@@std@@AEAH@Z 0000000180006590 f   ec_jwk.obj
 0001:000057d0       ??$?0VJwkEc@@@?$shared_ptr@VJwkEc@@@std@@QEAA@PEAVJwkEc@@@Z 00000001800067d0 f i ec_jwk.obj
 0001:00005830       ?_Destroy@?$_Ref_count@VJwkEc@@@std@@EEAAXXZ 0000000180006830 f i ec_jwk.obj
 0001:00005890       ??4?$shared_ptr@VScopedHMAC@@@std@@QEAAAEAV01@AEBV01@@Z 0000000180006890 f i async_hmac.obj
 0001:00005890       ??4?$shared_ptr@V?$basic_string@DU?$char_traits@D@std@@V?$allocator@D@2@@std@@@std@@QEAAAEAV01@AEBV01@@Z 0000000180006890 f i aes_gen.obj
 0001:00005890       ??4?$shared_ptr@V?$ScopedSSL@Uevp_pkey_st@@$1?ScopedEVP_PKEY_free@@YAXPEAX@Z@@@std@@QEAAAEAV01@AEBV01@@Z 0000000180006890 f i w_key.obj
 0001:00005890       ??4?$shared_ptr@VScopedAES@@@std@@QEAAAEAV01@AEBV01@@Z 0000000180006890 f i async_aes.obj
 0001:00005910       ??_GScopedHMAC@@QEAAPEAXI@Z 0000000180006910 f i hmac_gen.obj
 0001:00005910       ??_GScopedAES@@QEAAPEAXI@Z 0000000180006910 f i aes_gen.obj
 0001:00005910       ??_GScopedPbkdf2@@QEAAPEAXI@Z 0000000180006910 f i async_pbkdf2.obj
 0001:00005990       ?_Destroy@?$_Ref_count@VScopedAES@@@std@@EEAAXXZ 0000000180006990 f i aes_gen.obj
 0001:00005990       ?_Destroy@?$_Ref_count@VScopedPbkdf2@@@std@@EEAAXXZ 0000000180006990 f i async_pbkdf2.obj
 0001:00005990       ?_Destroy@?$_Ref_count@VScopedHMAC@@@std@@EEAAXXZ 0000000180006990 f i hmac_gen.obj
 0001:00006070       ?encryptCbc@ScopedAES@@QEAA?AV?$shared_ptr@V?$basic_string@DU?$char_traits@D@std@@V?$allocator@D@2@@std@@@std@@V23@0@Z 0000000180007070 f   aes_cbc.obj
 0001:000061a0       ?decryptCbc@ScopedAES@@QEAA?AV?$shared_ptr@V?$basic_string@DU?$char_traits@D@std@@V?$allocator@D@2@@std@@@std@@V23@0@Z 00000001800071a0 f   aes_cbc.obj
 0001:000062d0       ?wrap@ScopedAES@@QEAA?AV?$shared_ptr@V?$basic_string@DU?$char_traits@D@std@@V?$allocator@D@2@@std@@@std@@V23@@Z 00000001800072d0 f   aes_cbc.obj
 0001:000064c0       ?unwrap@ScopedAES@@QEAA?AV?$shared_ptr@V?$basic_string@DU?$char_traits@D@std@@V?$allocator@D@2@@std@@@std@@V23@@Z 00000001800074c0 f   aes_cbc.obj
 0001:000070b0       ?encryptGcm@ScopedAES@@QEAA?AV?$shared_ptr@V?$basic_string@DU?$char_traits@D@std@@V?$allocator@D@2@@std@@@std@@V23@00H@Z 00000001800080b0 f   aes_gcm.obj
 0001:00007250       ?decryptGcm@ScopedAES@@QEAA?AV?$shared_ptr@V?$basic_string@DU?$char_traits@D@std@@V?$allocator@D@2@@std@@@std@@V23@00H@Z 0000000180008250 f   aes_gcm.obj
 0001:000073f0       ?_Xran@?$_String_val@U?$_Simple_types@D@std@@@std@@SAXXZ 00000001800083f0 f i aes_gcm.obj
 0001:00007410       ?AES_CTR_encrypt@@YA?AV?$shared_ptr@V?$basic_string@DU?$char_traits@D@std@@V?$allocator@D@2@@std@@@std@@V12@00H_N@Z 0000000180008410 f   aes_ctr.obj
 0001:00007660       ?decryptCtr@ScopedAES@@QEAA?AV?$shared_ptr@V?$basic_string@DU?$char_traits@D@std@@V?$allocator@D@2@@std@@@std@@V23@0H@Z 0000000180008660 f   aes_ctr.obj
 0001:00007660       ?encryptCtr@ScopedAES@@QEAA?AV?$shared_ptr@V?$basic_string@DU?$char_traits@D@std@@V?$allocator@D@2@@std@@@std@@V23@0H@Z 0000000180008660 f   aes_ctr.obj
 0001:000077a0       ?generate@ScopedHMAC@@SA?AV?$shared_ptr@VScopedHMAC@@@std@@AEAH@Z 00000001800087a0 f   hmac_gen.obj
 0001:00007970       ?sign@ScopedHMAC@@QEAA?AV?$shared_ptr@V?$basic_string@DU?$char_traits@D@std@@V?$allocator@D@2@@std@@@std@@V23@PEBUenv_md_st@@@Z 0000000180008970 f   hmac_sign.obj
 0001:00007b40       ?verify@ScopedHMAC@@QEAA_NV?$shared_ptr@V?$basic_string@DU?$char_traits@D@std@@V?$allocator@D@2@@std@@@std@@PEBUenv_md_st@@0@Z 0000000180008b40 f   hmac_sign.obj
 0001:00007cc0       ?deriveBits@ScopedPbkdf2@@QEAA?AV?$shared_ptr@V?$basic_string@DU?$char_traits@D@std@@V?$allocator@D@2@@std@@@std@@V23@_KPEBUenv_md_st@@1@Z 0000000180008cc0 f   pbkdf2_derive.obj
 0001:00007eb0       ?v8Buffer_to_String@@YA?AV?$shared_ptr@V?$basic_string@DU?$char_traits@D@std@@V?$allocator@D@2@@std@@@std@@V?$Local@VValue@v8@@@v8@@@Z 0000000180008eb0 f   common.obj
 0001:00007f90       ?String_to_v8Buffer@@YA?AV?$Local@VObject@v8@@@v8@@V?$shared_ptr@V?$basic_string@DU?$char_traits@D@std@@V?$allocator@D@2@@std@@@std@@@Z 0000000180008f90 f   common.obj
 0001:00008080       ?bn2buf@@YA?AV?$Local@VObject@v8@@@v8@@PEAUbignum_st@@@Z 0000000180009080 f   common.obj
 0001:00008180       ??1ObjectWrap@node@@UEAA@XZ 0000000180009180 f i w_key.obj
 0001:00008200       ?Wrap@ObjectWrap@node@@IEAAXV?$Local@VObject@v8@@@v8@@@Z 0000000180009200 f i w_key.obj
 0001:000082e0       ?Ref@ObjectWrap@node@@MEAAXXZ 00000001800092e0 f i w_key.obj
 0001:00008320       ?Unref@ObjectWrap@node@@MEAAXXZ 0000000180009320 f i w_key.obj
 0001:000083d0       ?WeakCallback@ObjectWrap@node@@CAXAEBV?$WeakCallbackInfo@VObjectWrap@node@@@v8@@@Z 00000001800093d0 f i w_key.obj
 0001:00008430       ??_EWCore@@UEAAPEAXI@Z     0000000180009430 f i * CIL library *:* CIL module *
 0001:00008430       ??_EObjectWrap@node@@UEAAPEAXI@Z 0000000180009430 f i * CIL library *:* CIL module *
 0001:00008430       ??_GWCore@@UEAAPEAXI@Z     0000000180009430 f i w_core.obj
 0001:00008430       ??_GObjectWrap@node@@UEAAPEAXI@Z 0000000180009430 f i w_key.obj
 0001:00008610       ?Set@Nan@@YA?AV?$Maybe@_N@v8@@V?$Local@VObject@v8@@@3@V?$Local@VValue@v8@@@3@1@Z 0000000180009610 f i w_key.obj
 0001:000086a0       ?Get@Nan@@YA?AV?$MaybeLocal@VValue@v8@@@v8@@V?$Local@VObject@v8@@@3@V?$Local@VValue@v8@@@3@@Z 00000001800096a0 f i w_key.obj
 0001:00008730       ?New@?$Factory@VFunctionTemplate@v8@@@imp@Nan@@SA?AV?$Local@VFunctionTemplate@v8@@@v8@@P6AXAEBV?$FunctionCallbackInfo@VValue@v8@@@3@@ZV?$Local@VValue@v8@@@5@V?$Local@VSignature@v8@@@5@@Z 0000000180009730 f i w_key.obj
 0001:000088f0       ?ThrowError@Nan@@YAXPEBD@Z 00000001800098f0 f i w_key.obj
 0001:00008990       ?ThrowError@Nan@@YAXV?$Local@VString@v8@@@v8@@@Z 0000000180009990 f i w_key.obj
 0001:00008a00       ?Call@Callback@Nan@@QEBA?AV?$Local@VValue@v8@@@v8@@HQEAV34@@Z 0000000180009a00 f i w_key.obj
 0001:00008b10       ??0AsyncWorker@Nan@@QEAA@PEAVCallback@1@@Z 0000000180009b10 f i w_key.obj
 0001:00008be0       ??1AsyncWorker@Nan@@UEAA@XZ 0000000180009be0 f i w_key.obj
 0001:00008ca0       ?WorkComplete@AsyncWorker@Nan@@UEAAXXZ 0000000180009ca0 f i w_key.obj
 0001:00008df0       ?Destroy@AsyncWorker@Nan@@UEAAXXZ 0000000180009df0 f i w_key.obj
 0001:00008e10       ?HandleOKCallback@AsyncWorker@Nan@@MEAAXXZ 0000000180009e10 f i w_key.obj
 0001:00008e60       ?HandleErrorCallback@AsyncWorker@Nan@@MEAAXXZ 0000000180009e60 f i w_key.obj
 0001:00008f10       ??_GAsyncWorker@Nan@@UEAAPEAXI@Z 0000000180009f10 f i w_key.obj
 0001:00008f10       ??_EAsyncWorker@Nan@@UEAAPEAXI@Z 0000000180009f10 f i * CIL library *:* CIL module *
 0001:00008f50       ??1?$Persistent@VObject@v8@@V?$NonCopyablePersistentTraits@VObject@v8@@@2@@Nan@@QEAA@XZ 0000000180009f50 f i w_key.obj
 0001:00008f70       ?AsyncExecute@Nan@@YAXPEAUuv_work_s@@@Z 0000000180009f70 f i w_key.obj
 0001:00008f80       ?AsyncExecuteComplete@Nan@@YAXPEAUuv_work_s@@@Z 0000000180009f80 f i w_key.obj
 0001:00009110       ?SetPrototypeMethod@Nan@@YAXV?$Local@VFunctionTemplate@v8@@@v8@@PEBDP6AXAEBV?$FunctionCallbackInfo@VValue@v8@@@1@@Z@Z 000000018000a110 f i w_key.obj
 0001:00009200       ?NewInstance@WKey@@SA?AV?$Local@VObject@v8@@@v8@@XZ 000000018000a200 f i w_key.obj
 0001:000092d0       ?constructor@WKey@@KAAEAV?$Persistent@VFunction@v8@@V?$NonCopyablePersistentTraits@VFunction@v8@@@2@@Nan@@XZ 000000018000a2d0 f i w_key.obj
 0001:00009340       ??_GAsyncRsaGenerateKey@@UEAAPEAXI@Z 000000018000a340 f i w_key.obj
 0001:00009340       ??_EAsyncRsaGenerateKey@@UEAAPEAXI@Z 000000018000a340 f i * CIL library *:* CIL module *
 0001:000093e0       ??0AsyncEncrypDecryptRsaOAEP@@QEAA@PEAVCallback@Nan@@V?$shared_ptr@V?$ScopedSSL@Uevp_pkey_st@@$1?ScopedEVP_PKEY_free@@YAXPEAX@Z@@@std@@PEBUenv_md_st@@V?$shared_ptr@V?$basic_string@DU?$char_traits@D@std@@V?$allocator@D@2@@std@@@4@3_N@Z 000000018000a3e0 f i w_key.obj
 0001:00009570       ??_GAsyncEncrypDecryptRsaOAEP@@UEAAPEAXI@Z 000000018000a570 f i w_key.obj
 0001:00009570       ??_EAsyncEncrypDecryptRsaOAEP@@UEAAPEAXI@Z 000000018000a570 f i * CIL library *:* CIL module *
 0001:000096b0       ??_EAsyncExportJwkRsa@@UEAAPEAXI@Z 000000018000a6b0 f i * CIL library *:* CIL module *
 0001:000096b0       ??_GAsyncExportJwkRsa@@UEAAPEAXI@Z 000000018000a6b0 f i w_key.obj
 0001:00009790       ??_GAsyncExportSpki@@UEAAPEAXI@Z 000000018000a790 f i w_key.obj
 0001:00009790       ??_EAsyncExportSpki@@UEAAPEAXI@Z 000000018000a790 f i * CIL library *:* CIL module *
 0001:00009870       ??_GAsyncExportPkcs8@@UEAAPEAXI@Z 000000018000a870 f i w_key.obj
 0001:00009870       ??_EAsyncExportPkcs8@@UEAAPEAXI@Z 000000018000a870 f i * CIL library *:* CIL module *
 0001:00009950       ??_EAsyncImportPkcs8@@UEAAPEAXI@Z 000000018000a950 f i * CIL library *:* CIL module *
 0001:00009950       ??_GAsyncImportPkcs8@@UEAAPEAXI@Z 000000018000a950 f i w_key.obj
 0001:00009a30       ??_EAsyncImportSpki@@UEAAPEAXI@Z 000000018000aa30 f i * CIL library *:* CIL module *
 0001:00009a30       ??_GAsyncImportSpki@@UEAAPEAXI@Z 000000018000aa30 f i w_key.obj
 0001:00009b10       ??_EAsyncImportJwkRsa@@UEAAPEAXI@Z 000000018000ab10 f i * CIL library *:* CIL module *
 0001:00009b10       ??_GAsyncImportJwkRsa@@UEAAPEAXI@Z 000000018000ab10 f i w_key.obj
 0001:00009bf0       ??_GAsyncSignRsa@@UEAAPEAXI@Z 000000018000abf0 f i w_key.obj
 0001:00009bf0       ??_EAsyncSignRsa@@UEAAPEAXI@Z 000000018000abf0 f i * CIL library *:* CIL module *
 0001:00009d00       ??0AsyncVerifyRsa@@QEAA@PEAVCallback@Nan@@PEBUenv_md_st@@V?$shared_ptr@V?$ScopedSSL@Uevp_pkey_st@@$1?ScopedEVP_PKEY_free@@YAXPEAX@Z@@@std@@V?$shared_ptr@V?$basic_string@DU?$char_traits@D@std@@V?$allocator@D@2@@std@@@5@3@Z 000000018000ad00 f i w_key.obj
 0001:00009e70       ??_GAsyncVerifyRsa@@UEAAPEAXI@Z 000000018000ae70 f i w_key.obj
 0001:00009e70       ??_EAsyncVerifyRsa@@UEAAPEAXI@Z 000000018000ae70 f i * CIL library *:* CIL module *
 0001:00009f80       ??_GAsyncSignRsaPSS@@UEAAPEAXI@Z 000000018000af80 f i w_key.obj
 0001:00009f80       ??_EAsyncSignRsaPSS@@UEAAPEAXI@Z 000000018000af80 f i * CIL library *:* CIL module *
 0001:0000a090       ??0AsyncVerifyRsaPSS@@QEAA@PEAVCallback@Nan@@PEBUenv_md_st@@V?$shared_ptr@V?$ScopedSSL@Uevp_pkey_st@@$1?ScopedEVP_PKEY_free@@YAXPEAX@Z@@@std@@HV?$shared_ptr@V?$basic_string@DU?$char_traits@D@std@@V?$allocator@D@2@@std@@@5@3@Z 000000018000b090 f i w_key.obj
 0001:0000a210       ??_EAsyncVerifyRsaPSS@@UEAAPEAXI@Z 000000018000b210 f i * CIL library *:* CIL module *
 0001:0000a210       ??_GAsyncVerifyRsaPSS@@UEAAPEAXI@Z 000000018000b210 f i w_key.obj
 0001:0000a320       ??_EAsyncEcGenerateKey@@UEAAPEAXI@Z 000000018000b320 f i * CIL library *:* CIL module *
 0001:0000a320       ??_GAsyncEcGenerateKey@@UEAAPEAXI@Z 000000018000b320 f i w_key.obj
 0001:0000a3c0       ??_GAsyncEcdhDeriveKey@@UEAAPEAXI@Z 000000018000b3c0 f i w_key.obj
 0001:0000a3c0       ??_EAsyncEcdhDeriveKey@@UEAAPEAXI@Z 000000018000b3c0 f i * CIL library *:* CIL module *
 0001:0000a4d0       ??_GAsyncEcExportJwk@@UEAAPEAXI@Z 000000018000b4d0 f i w_key.obj
 0001:0000a4d0       ??_EAsyncEcExportJwk@@UEAAPEAXI@Z 000000018000b4d0 f i * CIL library *:* CIL module *
 0001:0000a5b0       ??_GAsyncEcImportJwk@@UEAAPEAXI@Z 000000018000b5b0 f i w_key.obj
 0001:0000a5b0       ??_EAsyncEcImportJwk@@UEAAPEAXI@Z 000000018000b5b0 f i * CIL library *:* CIL module *
 0001:0000a690       ??_EAsyncEcdsaSign@@UEAAPEAXI@Z 000000018000b690 f i * CIL library *:* CIL module *
 0001:0000a690       ??_GAsyncEcdsaSign@@UEAAPEAXI@Z 000000018000b690 f i w_key.obj
 0001:0000a7a0       ??0AsyncEcdsaVerify@@QEAA@PEAVCallback@Nan@@PEBUenv_md_st@@V?$shared_ptr@V?$ScopedSSL@Uevp_pkey_st@@$1?ScopedEVP_PKEY_free@@YAXPEAX@Z@@@std@@V?$shared_ptr@V?$basic_string@DU?$char_traits@D@std@@V?$allocator@D@2@@std@@@5@3@Z 000000018000b7a0 f i w_key.obj
 0001:0000a910       ??_GAsyncEcdsaVerify@@UEAAPEAXI@Z 000000018000b910 f i w_key.obj
 0001:0000a910       ??_EAsyncEcdsaVerify@@UEAAPEAXI@Z 000000018000b910 f i * CIL library *:* CIL module *
 0001:0000aa20       ??_EAsyncEcdhDeriveBits@@UEAAPEAXI@Z 000000018000ba20 f i * CIL library *:* CIL module *
 0001:0000aa20       ??_GAsyncEcdhDeriveBits@@UEAAPEAXI@Z 000000018000ba20 f i w_key.obj
 0001:0000ab30       ?Init@WKey@@SAXV?$Local@VObject@v8@@@v8@@@Z 000000018000bb30 f   w_key.obj
 0001:0000b2d0       ?New@WKey@@SAXAEBV?$FunctionCallbackInfo@VValue@v8@@@Nan@@@Z 000000018000c2d0 f   w_key.obj
 0001:0000b460       ??_EWHmac@@UEAAPEAXI@Z     000000018000c460 f i * CIL library *:* CIL module *
 0001:0000b460       ??_GWKey@@UEAAPEAXI@Z      000000018000c460 f i w_key.obj
 0001:0000b460       ??_GWAes@@UEAAPEAXI@Z      000000018000c460 f i w_aes.obj
 0001:0000b460       ??_EWAes@@UEAAPEAXI@Z      000000018000c460 f i * CIL library *:* CIL module *
 0001:0000b460       ??_GWPbkdf2@@UEAAPEAXI@Z   000000018000c460 f i w_pbkdf2.obj
 0001:0000b460       ??_EWPbkdf2@@UEAAPEAXI@Z   000000018000c460 f i * CIL library *:* CIL module *
 0001:0000b460       ??_EWKey@@UEAAPEAXI@Z      000000018000c460 f i * CIL library *:* CIL module *
 0001:0000b460       ??_GWHmac@@UEAAPEAXI@Z     000000018000c460 f i w_hmac.obj
 0001:0000b4f0       ?Type@WKey@@SAXV?$Local@VString@v8@@@v8@@AEBV?$PropertyCallbackInfo@VValue@v8@@@Nan@@@Z 000000018000c4f0 f   w_key.obj
 0001:0000b570       ?ModulusLength@WKey@@SAXAEBV?$FunctionCallbackInfo@VValue@v8@@@Nan@@@Z 000000018000c570 f   w_key.obj
 0001:0000b640       ?PublicExponent@WKey@@SAXAEBV?$FunctionCallbackInfo@VValue@v8@@@Nan@@@Z 000000018000c640 f   w_key.obj
 0001:0000b6e0       ?GenerateRsa@WKey@@SAXAEBV?$FunctionCallbackInfo@VValue@v8@@@Nan@@@Z 000000018000c6e0 f   w_key.obj
 0001:0000b890       ?GenerateEc@WKey@@SAXAEBV?$FunctionCallbackInfo@VValue@v8@@@Nan@@@Z 000000018000c890 f   w_key.obj
 0001:0000b9d0       ?ExportJwk@WKey@@SAXAEBV?$FunctionCallbackInfo@VValue@v8@@@Nan@@@Z 000000018000c9d0 f   w_key.obj
 0001:0000c700       ?ExportSpki@WKey@@SAXAEBV?$FunctionCallbackInfo@VValue@v8@@@Nan@@@Z 000000018000d700 f   w_key.obj
 0001:0000c880       ?ExportPkcs8@WKey@@SAXAEBV?$FunctionCallbackInfo@VValue@v8@@@Nan@@@Z 000000018000d880 f   w_key.obj
 0001:0000ca00       ?ImportPkcs8@WKey@@SAXAEBV?$FunctionCallbackInfo@VValue@v8@@@Nan@@@Z 000000018000da00 f   w_key.obj
 0001:0000cbe0       ?ImportSpki@WKey@@SAXAEBV?$FunctionCallbackInfo@VValue@v8@@@Nan@@@Z 000000018000dbe0 f   w_key.obj
 0001:0000cdc0       ?ImportJwk@WKey@@SAXAEBV?$FunctionCallbackInfo@VValue@v8@@@Nan@@@Z 000000018000ddc0 f   w_key.obj
 0001:0000eaa0       ?Sign@WKey@@SAXAEBV?$FunctionCallbackInfo@VValue@v8@@@Nan@@@Z 000000018000faa0 f   w_key.obj
 0001:0000f080       ?Verify@WKey@@SAXAEBV?$FunctionCallbackInfo@VValue@v8@@@Nan@@@Z 0000000180010080 f   w_key.obj
 0001:0000f580       ?RsaOaepEncDec@WKey@@SAXAEBV?$FunctionCallbackInfo@VValue@v8@@@Nan@@@Z 0000000180010580 f   w_key.obj
 0001:0000f990       ?RsaPssSign@WKey@@SAXAEBV?$FunctionCallbackInfo@VValue@v8@@@Nan@@@Z 0000000180010990 f   w_key.obj
 0001:0000fd10       ?RsaPssVerify@WKey@@SAXAEBV?$FunctionCallbackInfo@VValue@v8@@@Nan@@@Z 0000000180010d10 f   w_key.obj
 0001:00010050       ?EcdhDeriveKey@WKey@@SAXAEBV?$FunctionCallbackInfo@VValue@v8@@@Nan@@@Z 0000000180011050 f   w_key.obj
 0001:00010380       ?EcdhDeriveBits@WKey@@SAXAEBV?$FunctionCallbackInfo@VValue@v8@@@Nan@@@Z 0000000180011380 f   w_key.obj
 0001:000106b0       ??0?$shared_ptr@V?$ScopedSSL@Uevp_pkey_st@@$1?ScopedEVP_PKEY_free@@YAXPEAX@Z@@@std@@QEAA@AEBV01@@Z 00000001800116b0 f i w_key.obj
 0001:000106f0       ??$Unwrap@VWAes@@@ObjectWrap@node@@SAPEAVWAes@@V?$Local@VObject@v8@@@v8@@@Z 00000001800116f0 f i w_aes.obj
 0001:000106f0       ??$Unwrap@VWKey@@@ObjectWrap@node@@SAPEAVWKey@@V?$Local@VObject@v8@@@v8@@@Z 00000001800116f0 f i w_key.obj
 0001:000106f0       ??$Unwrap@VWHmac@@@ObjectWrap@node@@SAPEAVWHmac@@V?$Local@VObject@v8@@@v8@@@Z 00000001800116f0 f i w_hmac.obj
 0001:000106f0       ??$Unwrap@VWPbkdf2@@@ObjectWrap@node@@SAPEAVWPbkdf2@@V?$Local@VObject@v8@@@v8@@@Z 00000001800116f0 f i w_pbkdf2.obj
 0001:00010770       ??$SetMethodAux@V?$Local@VFunction@v8@@@v8@@@imp@Nan@@YAXV?$Local@VFunction@v8@@@v8@@V?$Local@VString@v8@@@3@V?$Local@VFunctionTemplate@v8@@@3@ZZ 0000000180011770 f i w_key.obj
 0001:00010810       ??_EAsyncAesGenerateKey@@UEAAPEAXI@Z 0000000180011810 f i * CIL library *:* CIL module *
 0001:00010810       ??_GAsyncAesGenerateKey@@UEAAPEAXI@Z 0000000180011810 f i w_aes.obj
 0001:000108b0       ??0AsyncAesEncryptCBC@@QEAA@PEAVCallback@Nan@@V?$shared_ptr@VScopedAES@@@std@@V?$shared_ptr@V?$basic_string@DU?$char_traits@D@std@@V?$allocator@D@2@@std@@@4@2_N@Z 00000001800118b0 f i w_aes.obj
 0001:00010a30       ??_GAsyncAesEncryptCBC@@UEAAPEAXI@Z 0000000180011a30 f i w_aes.obj
 0001:00010a30       ??_EAsyncAesEncryptCBC@@UEAAPEAXI@Z 0000000180011a30 f i * CIL library *:* CIL module *
 0001:00010b70       ??0AsyncAesEncryptECB@@QEAA@PEAVCallback@Nan@@V?$shared_ptr@VScopedAES@@@std@@V?$shared_ptr@V?$basic_string@DU?$char_traits@D@std@@V?$allocator@D@2@@std@@@4@_N@Z 0000000180011b70 f i w_aes.obj
 0001:00010c90       ??_EAsyncAesEncryptECB@@UEAAPEAXI@Z 0000000180011c90 f i * CIL library *:* CIL module *
 0001:00010c90       ??_GAsyncAesEncryptECB@@UEAAPEAXI@Z 0000000180011c90 f i w_aes.obj
 0001:00010da0       ??_EAsyncAesExport@@UEAAPEAXI@Z 0000000180011da0 f i * CIL library *:* CIL module *
 0001:00010da0       ??_EAsyncHmacExport@@UEAAPEAXI@Z 0000000180011da0 f i * CIL library *:* CIL module *
 0001:00010da0       ??_GAsyncHmacExport@@UEAAPEAXI@Z 0000000180011da0 f i w_hmac.obj
 0001:00010da0       ??_GAsyncAesExport@@UEAAPEAXI@Z 0000000180011da0 f i w_aes.obj
 0001:00010e80       ??_GAsyncAesImport@@UEAAPEAXI@Z 0000000180011e80 f i w_aes.obj
 0001:00010e80       ??_EAsyncAesImport@@UEAAPEAXI@Z 0000000180011e80 f i * CIL library *:* CIL module *
 0001:00010f60       ??0AsyncAesEncryptGCM@@QEAA@PEAVCallback@Nan@@V?$shared_ptr@VScopedAES@@@std@@V?$shared_ptr@V?$basic_string@DU?$char_traits@D@std@@V?$allocator@D@2@@std@@@4@22H_N@Z 0000000180011f60 f i w_aes.obj
 0001:00011150       ??1AsyncAesEncryptGCM@@UEAA@XZ 0000000180012150 f i w_aes.obj
 0001:000112b0       ??_GAsyncAesEncryptGCM@@UEAAPEAXI@Z 00000001800122b0 f i w_aes.obj
 0001:000112b0       ??_EAsyncAesEncryptGCM@@UEAAPEAXI@Z 00000001800122b0 f i * CIL library *:* CIL module *
 0001:000112f0       ??0AsyncAesWrapKey@@QEAA@PEAVCallback@Nan@@V?$shared_ptr@VScopedAES@@@std@@V?$shared_ptr@V?$basic_string@DU?$char_traits@D@std@@V?$allocator@D@2@@std@@@4@_N@Z 00000001800122f0 f i w_aes.obj
 0001:00011410       ??_GAsyncAesWrapKey@@UEAAPEAXI@Z 0000000180012410 f i w_aes.obj
 0001:00011410       ??_EAsyncAesWrapKey@@UEAAPEAXI@Z 0000000180012410 f i * CIL library *:* CIL module *
 0001:00011520       ??0AsyncAesEncryptCTR@@QEAA@PEAVCallback@Nan@@V?$shared_ptr@VScopedAES@@@std@@V?$shared_ptr@V?$basic_string@DU?$char_traits@D@std@@V?$allocator@D@2@@std@@@4@2H_N@Z 0000000180012520 f i w_aes.obj
 0001:000116b0       ??_EAsyncAesEncryptCTR@@UEAAPEAXI@Z 00000001800126b0 f i * CIL library *:* CIL module *
 0001:000116b0       ??_GAsyncAesEncryptCTR@@UEAAPEAXI@Z 00000001800126b0 f i w_aes.obj
 0001:000117f0       ?constructor@WAes@@KAAEAV?$Persistent@VFunction@v8@@V?$NonCopyablePersistentTraits@VFunction@v8@@@2@@Nan@@XZ 00000001800127f0 f i w_aes.obj
 0001:00011860       ?Init@WAes@@SAXV?$Local@VObject@v8@@@v8@@@Z 0000000180012860 f   w_aes.obj
 0001:00011cc0       ?New@WAes@@SAXAEBV?$FunctionCallbackInfo@VValue@v8@@@Nan@@@Z 0000000180012cc0 f   w_aes.obj
 0001:00011e50       ?Generate@WAes@@SAXAEBV?$FunctionCallbackInfo@VValue@v8@@@Nan@@@Z 0000000180012e50 f   w_aes.obj
 0001:00011f90       ?Encrypt@WAes@@SAXAEBV?$FunctionCallbackInfo@VValue@v8@@@Nan@@@Z 0000000180012f90 f   w_aes.obj
 0001:000122e0       ?Decrypt@WAes@@SAXAEBV?$FunctionCallbackInfo@VValue@v8@@@Nan@@@Z 00000001800132e0 f   w_aes.obj
 0001:00012630       ?EncryptEcb@WAes@@SAXAEBV?$FunctionCallbackInfo@VValue@v8@@@Nan@@@Z 0000000180013630 f   w_aes.obj
 0001:000127d0       ?DecryptEcb@WAes@@SAXAEBV?$FunctionCallbackInfo@VValue@v8@@@Nan@@@Z 00000001800137d0 f   w_aes.obj
 0001:00012970       ?Export@WHmac@@SAXAEBV?$FunctionCallbackInfo@VValue@v8@@@Nan@@@Z 0000000180013970 f   w_hmac.obj
 0001:00012970       ?Export@WAes@@SAXAEBV?$FunctionCallbackInfo@VValue@v8@@@Nan@@@Z 0000000180013970 f   w_aes.obj
 0001:00012af0       ?Import@WAes@@SAXAEBV?$FunctionCallbackInfo@VValue@v8@@@Nan@@@Z 0000000180013af0 f   w_aes.obj
 0001:00012cd0       ?EncryptGcm@WAes@@SAXAEBV?$FunctionCallbackInfo@VValue@v8@@@Nan@@@Z 0000000180013cd0 f   w_aes.obj
 0001:00013000       ?DecryptGcm@WAes@@SAXAEBV?$FunctionCallbackInfo@VValue@v8@@@Nan@@@Z 0000000180014000 f   w_aes.obj
 0001:00013330       ?WrapKey@WAes@@SAXAEBV?$FunctionCallbackInfo@VValue@v8@@@Nan@@@Z 0000000180014330 f   w_aes.obj
 0001:000134d0       ?UnwrapKey@WAes@@SAXAEBV?$FunctionCallbackInfo@VValue@v8@@@Nan@@@Z 00000001800144d0 f   w_aes.obj
 0001:00013670       ?EncryptCtr@WAes@@SAXAEBV?$FunctionCallbackInfo@VValue@v8@@@Nan@@@Z 0000000180014670 f   w_aes.obj
 0001:00013940       ?DecryptCtr@WAes@@SAXAEBV?$FunctionCallbackInfo@VValue@v8@@@Nan@@@Z 0000000180014940 f   w_aes.obj
 0001:00013c10       ??_EAsyncHmacGenerateKey@@UEAAPEAXI@Z 0000000180014c10 f i * CIL library *:* CIL module *
 0001:00013c10       ??_GAsyncHmacGenerateKey@@UEAAPEAXI@Z 0000000180014c10 f i w_hmac.obj
 0001:00013cb0       ??_GAsyncHmacImport@@UEAAPEAXI@Z 0000000180014cb0 f i w_hmac.obj
 0001:00013cb0       ??_EAsyncHmacImport@@UEAAPEAXI@Z 0000000180014cb0 f i * CIL library *:* CIL module *
 0001:00013d90       ??_EAsyncHmacSign@@UEAAPEAXI@Z 0000000180014d90 f i * CIL library *:* CIL module *
 0001:00013d90       ??_GAsyncHmacSign@@UEAAPEAXI@Z 0000000180014d90 f i w_hmac.obj
 0001:00013ea0       ??0AsyncHmacVerify@@QEAA@PEAVCallback@Nan@@PEBUenv_md_st@@V?$shared_ptr@VScopedHMAC@@@std@@V?$shared_ptr@V?$basic_string@DU?$char_traits@D@std@@V?$allocator@D@2@@std@@@5@3@Z 0000000180014ea0 f i w_hmac.obj
 0001:00014010       ??_GAsyncHmacVerify@@UEAAPEAXI@Z 0000000180015010 f i w_hmac.obj
 0001:00014010       ??_EAsyncHmacVerify@@UEAAPEAXI@Z 0000000180015010 f i * CIL library *:* CIL module *
 0001:00014120       ?constructor@WHmac@@KAAEAV?$Persistent@VFunction@v8@@V?$NonCopyablePersistentTraits@VFunction@v8@@@2@@Nan@@XZ 0000000180015120 f i w_hmac.obj
 0001:00014190       ?Init@WHmac@@SAXV?$Local@VObject@v8@@@v8@@@Z 0000000180015190 f   w_hmac.obj
 0001:00014540       ?New@WHmac@@SAXAEBV?$FunctionCallbackInfo@VValue@v8@@@Nan@@@Z 0000000180015540 f   w_hmac.obj
 0001:000146d0       ?Generate@WHmac@@SAXAEBV?$FunctionCallbackInfo@VValue@v8@@@Nan@@@Z 00000001800156d0 f   w_hmac.obj
 0001:00014810       ?Import@WHmac@@SAXAEBV?$FunctionCallbackInfo@VValue@v8@@@Nan@@@Z 0000000180015810 f   w_hmac.obj
 0001:000149f0       ?Sign@WHmac@@SAXAEBV?$FunctionCallbackInfo@VValue@v8@@@Nan@@@Z 00000001800159f0 f   w_hmac.obj
 0001:00014e00       ?Verify@WHmac@@SAXAEBV?$FunctionCallbackInfo@VValue@v8@@@Nan@@@Z 0000000180015e00 f   w_hmac.obj
 0001:00015210       ??_EAsyncPbkdf2Import@@UEAAPEAXI@Z 0000000180016210 f i * CIL library *:* CIL module *
 0001:00015210       ??_GAsyncPbkdf2Import@@UEAAPEAXI@Z 0000000180016210 f i w_pbkdf2.obj
 0001:000152f0       ??_GAsyncPbkdf2DeriveBits@@UEAAPEAXI@Z 00000001800162f0 f i w_pbkdf2.obj
 0001:000152f0       ??_EAsyncPbkdf2DeriveBits@@UEAAPEAXI@Z 00000001800162f0 f i * CIL library *:* CIL module *
 0001:00015400       ?constructor@WPbkdf2@@KAAEAV?$Persistent@VFunction@v8@@V?$NonCopyablePersistentTraits@VFunction@v8@@@2@@Nan@@XZ 0000000180016400 f i w_pbkdf2.obj
 0001:00015470       ?Init@WPbkdf2@@SAXV?$Local@VObject@v8@@@v8@@@Z 0000000180016470 f   w_pbkdf2.obj
 0001:00015750       ?New@WPbkdf2@@SAXAEBV?$FunctionCallbackInfo@VValue@v8@@@Nan@@@Z 0000000180016750 f   w_pbkdf2.obj
 0001:000158e0       ?ImportKey@WPbkdf2@@SAXAEBV?$FunctionCallbackInfo@VValue@v8@@@Nan@@@Z 00000001800168e0 f   w_pbkdf2.obj
 0001:00015ac0       ?DeriveBits@WPbkdf2@@SAXAEBV?$FunctionCallbackInfo@VValue@v8@@@Nan@@@Z 0000000180016ac0 f   w_pbkdf2.obj
 0001:00015fa0       ??_GAsyncDigest@@UEAAPEAXI@Z 0000000180016fa0 f i w_core.obj
 0001:00015fa0       ??_EAsyncDigest@@UEAAPEAXI@Z 0000000180016fa0 f i * CIL library *:* CIL module *
 0001:000160b0       ?constructor@WCore@@KAAEAV?$Persistent@VFunction@v8@@V?$NonCopyablePersistentTraits@VFunction@v8@@@2@@Nan@@XZ 00000001800170b0 f i w_core.obj
 0001:00016120       ?Init@WCore@@SAXV?$Local@VObject@v8@@@v8@@@Z 0000000180017120 f   w_core.obj
 0001:00016350       ?New@WCore@@SAXAEBV?$FunctionCallbackInfo@VValue@v8@@@Nan@@@Z 0000000180017350 f   w_core.obj
 0001:000164d0       ?Digest@WCore@@SAXAEBV?$FunctionCallbackInfo@VValue@v8@@@Nan@@@Z 00000001800174d0 f   w_core.obj
 0001:00016800       ?SetErrorMessage@AsyncWorker@Nan@@IEAAXPEBD@Z 0000000180017800 f i async_rsa.obj
 0001:00016860       ?Execute@AsyncEncrypDecryptRsaOAEP@@UEAAXXZ 0000000180017860 f   async_rsa.obj
 0001:00016990       ?HandleOKCallback@AsyncEncrypDecryptRsaOAEP@@UEAAXXZ 0000000180017990 f   async_rsa.obj
 0001:00016a40       ?Execute@AsyncRsaGenerateKey@@UEAAXXZ 0000000180017a40 f   async_rsa.obj
 0001:00016ad0       ?HandleOKCallback@AsyncRsaGenerateKey@@UEAAXXZ 0000000180017ad0 f   async_rsa.obj
 0001:00016ad0       ?HandleOKCallback@AsyncEcGenerateKey@@UEAAXXZ 0000000180017ad0 f   async_ec.obj
 0001:00016b70       ?Execute@AsyncExportJwkRsa@@UEAAXXZ 0000000180017b70 f   async_rsa.obj
 0001:00016c60       ?HandleOKCallback@AsyncExportJwkRsa@@UEAAXXZ 0000000180017c60 f   async_rsa.obj
 0001:000172a0       ?Execute@AsyncExportSpki@@UEAAXXZ 00000001800182a0 f   async_rsa.obj
 0001:00017330       ?HandleOKCallback@AsyncExportSpki@@UEAAXXZ 0000000180018330 f   async_rsa.obj
 0001:00017330       ?HandleOKCallback@AsyncExportPkcs8@@UEAAXXZ 0000000180018330 f   async_rsa.obj
 0001:000173e0       ?Execute@AsyncExportPkcs8@@UEAAXXZ 00000001800183e0 f   async_rsa.obj
 0001:00017470       ?Execute@AsyncImportPkcs8@@UEAAXXZ 0000000180018470 f   async_rsa.obj
 0001:000175c0       ?HandleOKCallback@AsyncImportSpki@@UEAAXXZ 00000001800185c0 f   async_rsa.obj
 0001:000175c0       ?HandleOKCallback@AsyncImportPkcs8@@UEAAXXZ 00000001800185c0 f   async_rsa.obj
 0001:00017660       ?Execute@AsyncImportSpki@@UEAAXXZ 0000000180018660 f   async_rsa.obj
 0001:000177b0       ?Execute@AsyncImportJwkRsa@@UEAAXXZ 00000001800187b0 f   async_rsa.obj
 0001:00017840       ?HandleOKCallback@AsyncEcImportJwk@@UEAAXXZ 0000000180018840 f   async_ec.obj
 0001:00017840       ?HandleOKCallback@AsyncImportJwkRsa@@UEAAXXZ 0000000180018840 f   async_rsa.obj
 0001:000178e0       ?Execute@AsyncSignRsa@@UEAAXXZ 00000001800188e0 f   async_rsa.obj
 0001:000179c0       ?HandleOKCallback@AsyncSignRsa@@UEAAXXZ 00000001800189c0 f   async_rsa.obj
 0001:000179c0       ?HandleOKCallback@AsyncHmacSign@@UEAAXXZ 00000001800189c0 f   async_hmac.obj
 0001:000179c0       ?HandleOKCallback@AsyncEcdsaSign@@UEAAXXZ 00000001800189c0 f   async_ec.obj
 0001:00017a70       ?Execute@AsyncVerifyRsa@@UEAAXXZ 0000000180018a70 f   async_rsa.obj
 0001:00017b30       ?HandleOKCallback@AsyncEcdsaVerify@@UEAAXXZ 0000000180018b30 f   async_ec.obj
 0001:00017b30       ?HandleOKCallback@AsyncVerifyRsa@@UEAAXXZ 0000000180018b30 f   async_rsa.obj
 0001:00017b30       ?HandleOKCallback@AsyncHmacVerify@@UEAAXXZ 0000000180018b30 f   async_hmac.obj
 0001:00017bc0       ?Execute@AsyncSignRsaPSS@@UEAAXXZ 0000000180018bc0 f   async_rsa.obj
 0001:00017cb0       ?HandleOKCallback@AsyncSignRsaPSS@@UEAAXXZ 0000000180018cb0 f   async_rsa.obj
 0001:00017d60       ?Execute@AsyncVerifyRsaPSS@@UEAAXXZ 0000000180018d60 f   async_rsa.obj
 0001:00017e30       ?HandleOKCallback@AsyncVerifyRsaPSS@@UEAAXXZ 0000000180018e30 f   async_rsa.obj
 0001:00017ec0       ?Execute@AsyncEcGenerateKey@@UEAAXXZ 0000000180018ec0 f   async_ec.obj
 0001:00017f40       ?Execute@AsyncEcdhDeriveKey@@UEAAXXZ 0000000180018f40 f   async_ec.obj
 0001:00018020       ?HandleOKCallback@AsyncEcdhDeriveBits@@UEAAXXZ 0000000180019020 f   async_ec.obj
 0001:00018020       ?HandleOKCallback@AsyncEcdhDeriveKey@@UEAAXXZ 0000000180019020 f   async_ec.obj
 0001:00018020       ?HandleOKCallback@AsyncAesEncryptECB@@UEAAXXZ 0000000180019020 f   async_aes.obj
 0001:00018020       ?HandleOKCallback@AsyncAesWrapKey@@UEAAXXZ 0000000180019020 f   async_aes.obj
 0001:000180d0       ?Execute@AsyncEcExportJwk@@UEAAXXZ 00000001800190d0 f   async_ec.obj
 0001:000181c0       ?HandleOKCallback@AsyncEcExportJwk@@UEAAXXZ 00000001800191c0 f   async_ec.obj
 0001:000185b0       ?Execute@AsyncEcImportJwk@@UEAAXXZ 00000001800195b0 f   async_ec.obj
 0001:00018640       ?Execute@AsyncEcdsaSign@@UEAAXXZ 0000000180019640 f   async_ec.obj
 0001:00018720       ?Execute@AsyncEcdsaVerify@@UEAAXXZ 0000000180019720 f   async_ec.obj
 0001:000187e0       ?Execute@AsyncEcdhDeriveBits@@UEAAXXZ 00000001800197e0 f   async_ec.obj
 0001:000188d0       ?NewInstance@WAes@@SA?AV?$Local@VObject@v8@@@v8@@XZ 00000001800198d0 f i async_aes.obj
 0001:000189a0       ?Execute@AsyncAesGenerateKey@@UEAAXXZ 00000001800199a0 f   async_aes.obj
 0001:00018b80       ?HandleOKCallback@AsyncAesGenerateKey@@UEAAXXZ 0000000180019b80 f   async_aes.obj
 0001:00018c20       ?Execute@AsyncAesEncryptCBC@@UEAAXXZ 0000000180019c20 f   async_aes.obj
 0001:00018d90       ?HandleOKCallback@AsyncAesEncryptCBC@@UEAAXXZ 0000000180019d90 f   async_aes.obj
 0001:00018d90       ?HandleOKCallback@AsyncAesEncryptCTR@@UEAAXXZ 0000000180019d90 f   async_aes.obj
 0001:00018e40       ?Execute@AsyncAesEncryptECB@@UEAAXXZ 0000000180019e40 f   async_aes.obj
 0001:000190a0       ?Execute@AsyncHmacExport@@UEAAXXZ 000000018001a0a0 f   async_hmac.obj
 0001:000190a0       ?Execute@AsyncAesExport@@UEAAXXZ 000000018001a0a0 f   async_aes.obj
 0001:000190c0       ?HandleOKCallback@AsyncAesExport@@UEAAXXZ 000000018001a0c0 f   async_aes.obj
 0001:000190c0       ?HandleOKCallback@AsyncHmacExport@@UEAAXXZ 000000018001a0c0 f   async_hmac.obj
 0001:00019170       ?Execute@AsyncAesImport@@UEAAXXZ 000000018001a170 f   async_aes.obj
 0001:000192d0       ?HandleOKCallback@AsyncAesImport@@UEAAXXZ 000000018001a2d0 f   async_aes.obj
 0001:00019370       ?Execute@AsyncAesEncryptGCM@@UEAAXXZ 000000018001a370 f   async_aes.obj
 0001:00019570       ?HandleOKCallback@AsyncAesEncryptGCM@@UEAAXXZ 000000018001a570 f   async_aes.obj
 0001:00019620       ?Execute@AsyncAesWrapKey@@UEAAXXZ 000000018001a620 f   async_aes.obj
 0001:00019720       ?Execute@AsyncAesEncryptCTR@@UEAAXXZ 000000018001a720 f   async_aes.obj
 0001:000198b0       ?NewInstance@WHmac@@SA?AV?$Local@VObject@v8@@@v8@@XZ 000000018001a8b0 f i async_hmac.obj
 0001:00019980       ?Execute@AsyncHmacGenerateKey@@UEAAXXZ 000000018001a980 f   async_hmac.obj
 0001:00019a00       ?HandleOKCallback@AsyncHmacGenerateKey@@UEAAXXZ 000000018001aa00 f   async_hmac.obj
 0001:00019aa0       ?Execute@AsyncHmacImport@@UEAAXXZ 000000018001aaa0 f   async_hmac.obj
 0001:00019c00       ?HandleOKCallback@AsyncHmacImport@@UEAAXXZ 000000018001ac00 f   async_hmac.obj
 0001:00019ca0       ?Execute@AsyncHmacSign@@UEAAXXZ 000000018001aca0 f   async_hmac.obj
 0001:00019d60       ?Execute@AsyncHmacVerify@@UEAAXXZ 000000018001ad60 f   async_hmac.obj
 0001:00019e00       ?Execute@AsyncPbkdf2Import@@UEAAXXZ 000000018001ae00 f   async_pbkdf2.obj
 0001:00019f40       ?HandleOKCallback@AsyncPbkdf2Import@@UEAAXXZ 000000018001af40 f   async_pbkdf2.obj
 0001:0001a0c0       ?Execute@AsyncPbkdf2DeriveBits@@UEAAXXZ 000000018001b0c0 f   async_pbkdf2.obj
 0001:0001a190       ?HandleOKCallback@AsyncPbkdf2DeriveBits@@UEAAXXZ 000000018001b190 f   async_pbkdf2.obj
 0001:0001a240       ?Execute@AsyncDigest@@UEAAXXZ 000000018001b240 f   async_core.obj
 0001:0001a310       ?HandleOKCallback@AsyncDigest@@UEAAXXZ 000000018001b310 f   async_core.obj
 0001:0001a40c       __imp_load_?GetCurrent@Isolate@v8@@SAPEAV12@XZ 000000018001b40c f   node:node.exe
 0001:0001a418       __tailMerge_node_exe       000000018001b418     node:node.exe
 0001:0001a491       __imp_load_??1HandleScope@v8@@QEAA@XZ 000000018001b491 f   node:node.exe
 0001:0001a49d       __imp_load_??0HandleScope@v8@@QEAA@PEAVIsolate@1@@Z 000000018001b49d f   node:node.exe
 0001:0001a4a9       __imp_load_?ToLocalEmpty@V8@v8@@CAXXZ 000000018001b4a9 f   node:node.exe
 0001:0001a4b5       __imp_load_?NewFromUtf8@String@v8@@SA?AV?$MaybeLocal@VString@v8@@@2@PEAVIsolate@2@PEBDW4NewStringType@2@H@Z 000000018001b4b5 f   node:node.exe
 0001:0001a4c1       __imp_load_?New@Number@v8@@SA?AV?$Local@VNumber@v8@@@2@PEAVIsolate@2@N@Z 000000018001b4c1 f   node:node.exe
 0001:0001a4cd       __imp_load_?New@Object@v8@@SA?AV?$Local@VObject@v8@@@2@PEAVIsolate@2@@Z 000000018001b4cd f   node:node.exe
 0001:0001a4d9       __imp_load_?Set@Object@v8@@QEAA_NV?$Local@VValue@v8@@@2@0@Z 000000018001b4d9 f   node:node.exe
 0001:0001a4e5       __imp_load_?Set@Object@v8@@QEAA_NIV?$Local@VValue@v8@@@2@@Z 000000018001b4e5 f   node:node.exe
 0001:0001a4f1       __imp_load_node_module_register 000000018001b4f1 f   node:node.exe
 0001:0001a4fd       __imp_load_OPENSSL_add_all_algorithms_noconf 000000018001b4fd f   node:node.exe
 0001:0001a509       __imp_load_ERR_load_crypto_strings 000000018001b509 f   node:node.exe
 0001:0001a515       __imp_load_OPENSSL_init    000000018001b515 f   node:node.exe
 0001:0001a521       __imp_load_BIO_new_mem_buf 000000018001b521 f   node:node.exe
 0001:0001a52d       __imp_load_i2d_PUBKEY_bio  000000018001b52d f   node:node.exe
 0001:0001a539       __imp_load_d2i_PUBKEY_bio  000000018001b539 f   node:node.exe
 0001:0001a545       __imp_load_i2d_PKCS8PrivateKeyInfo_bio 000000018001b545 f   node:node.exe
 0001:0001a551       __imp_load_BIO_s_mem       000000018001b551 f   node:node.exe
 0001:0001a55d       __imp_load_d2i_PrivateKey_bio 000000018001b55d f   node:node.exe
 0001:0001a569       __imp_load_BIO_ctrl        000000018001b569 f   node:node.exe
 0001:0001a575       __imp_load_BIO_new         000000018001b575 f   node:node.exe
 0001:0001a581       __imp_load_EVP_CIPHER_CTX_free 000000018001b581 f   node:node.exe
 0001:0001a58d       __imp_load_BN_CTX_free     000000018001b58d f   node:node.exe
 0001:0001a599       __imp_load_EVP_MD_CTX_destroy 000000018001b599 f   node:node.exe
 0001:0001a5a5       __imp_load_BIO_free        000000018001b5a5 f   node:node.exe
 0001:0001a5b1       __imp_load_EC_GROUP_free   000000018001b5b1 f   node:node.exe
 0001:0001a5bd       __imp_load_EVP_PKEY_free   000000018001b5bd f   node:node.exe
 0001:0001a5c9       __imp_load_ECDSA_SIG_free  000000018001b5c9 f   node:node.exe
 0001:0001a5d5       __imp_load_EC_KEY_free     000000018001b5d5 f   node:node.exe
 0001:0001a5e1       __imp_load_BN_free         000000018001b5e1 f   node:node.exe
 0001:0001a5ed       __imp_load_RSA_free        000000018001b5ed f   node:node.exe
 0001:0001a5f9       __imp_load_EVP_PKEY_CTX_free 000000018001b5f9 f   node:node.exe
 0001:0001a605       __imp_load_ERR_print_errors 000000018001b605 f   node:node.exe
 0001:0001a611       __imp_load_EVP_Digest      000000018001b611 f   node:node.exe
 0001:0001a61d       __imp_load_BN_new          000000018001b61d f   node:node.exe
 0001:0001a629       __imp_load_EVP_PKEY_assign 000000018001b629 f   node:node.exe
 0001:0001a635       __imp_load_BN_set_word     000000018001b635 f   node:node.exe
 0001:0001a641       __imp_load_RSA_new         000000018001b641 f   node:node.exe
 0001:0001a64d       __imp_load_EVP_PKEY_new    000000018001b64d f   node:node.exe
 0001:0001a659       __imp_load_RSA_generate_key_ex 000000018001b659 f   node:node.exe
 0001:0001a665       __imp_load_BN_dup          000000018001b665 f   node:node.exe
 0001:0001a671       __imp_load_EVP_DigestVerifyInit 000000018001b671 f   node:node.exe
 0001:0001a67d       __imp_load_EVP_DigestSignInit 000000018001b67d f   node:node.exe
 0001:0001a689       __imp_load_EVP_DigestVerifyFinal 000000018001b689 f   node:node.exe
 0001:0001a695       __imp_load_EVP_DigestSignFinal 000000018001b695 f   node:node.exe
 0001:0001a6a1       __imp_load_EVP_MD_CTX_create 000000018001b6a1 f   node:node.exe
 0001:0001a6ad       __imp_load_EVP_DigestUpdate 000000018001b6ad f   node:node.exe
 0001:0001a6b9       __imp_load_EVP_PKEY_CTX_new 000000018001b6b9 f   node:node.exe
 0001:0001a6c5       __imp_load_EVP_PKEY_CTX_ctrl 000000018001b6c5 f   node:node.exe
 0001:0001a6d1       __imp_load_EVP_PKEY_encrypt 000000018001b6d1 f   node:node.exe
 0001:0001a6dd       __imp_load_CRYPTO_malloc   000000018001b6dd f   node:node.exe
 0001:0001a6e9       __imp_load_EVP_PKEY_decrypt 000000018001b6e9 f   node:node.exe
 0001:0001a6f5       __imp_load_EVP_PKEY_encrypt_init 000000018001b6f5 f   node:node.exe
 0001:0001a701       __imp_load_EVP_PKEY_decrypt_init 000000018001b701 f   node:node.exe
 0001:0001a70d       __imp_load_EC_KEY_new_by_curve_name 000000018001b70d f   node:node.exe
 0001:0001a719       __imp_load_EC_KEY_get0_group 000000018001b719 f   node:node.exe
 0001:0001a725       __imp_load_EC_GROUP_set_asn1_flag 000000018001b725 f   node:node.exe
 0001:0001a731       __imp_load_EC_KEY_generate_key 000000018001b731 f   node:node.exe
 0001:0001a73d       __imp_load_i2d_ECDSA_SIG   000000018001b73d f   node:node.exe
 0001:0001a749       __imp_load_BN_bin2bn       000000018001b749 f   node:node.exe
 0001:0001a755       __imp_load_ECDSA_SIG_new   000000018001b755 f   node:node.exe
 0001:0001a761       __imp_load_BN_num_bits     000000018001b761 f   node:node.exe
 0001:0001a76d       __imp_load_CRYPTO_free     000000018001b76d f   node:node.exe
 0001:0001a779       __imp_load_d2i_ECDSA_SIG   000000018001b779 f   node:node.exe
 0001:0001a785       __imp_load_EC_GROUP_get_order 000000018001b785 f   node:node.exe
 0001:0001a791       __imp_load_EC_GROUP_get_degree 000000018001b791 f   node:node.exe
 0001:0001a79d       __imp_load_EC_KEY_get0_private_key 000000018001b79d f   node:node.exe
 0001:0001a7a9       __imp_load_EC_GROUP_get_curve_name 000000018001b7a9 f   node:node.exe
 0001:0001a7b5       __imp_load_EVP_PKEY_derive 000000018001b7b5 f   node:node.exe
 0001:0001a7c1       __imp_load_EVP_PKEY_derive_init 000000018001b7c1 f   node:node.exe
 0001:0001a7cd       __imp_load_EC_KEY_get0_public_key 000000018001b7cd f   node:node.exe
 0001:0001a7d9       __imp_load_EVP_PKEY_derive_set_peer 000000018001b7d9 f   node:node.exe
 0001:0001a7e5       __imp_load_EVP_PKEY_get1_EC_KEY 000000018001b7e5 f   node:node.exe
 0001:0001a7f1       __imp_load_ECDH_compute_key 000000018001b7f1 f   node:node.exe
 0001:0001a7fd       __imp_load_EC_GROUP_new_by_curve_name 000000018001b7fd f   node:node.exe
 0001:0001a809       __imp_load_BN_CTX_new      000000018001b809 f   node:node.exe
 0001:0001a815       __imp_load_EC_KEY_new      000000018001b815 f   node:node.exe
 0001:0001a821       __imp_load_EC_KEY_set_group 000000018001b821 f   node:node.exe
 0001:0001a82d       __imp_load_BN_CTX_get      000000018001b82d f   node:node.exe
 0001:0001a839       __imp_load_EC_POINT_get_affine_coordinates_GFp 000000018001b839 f   node:node.exe
 0001:0001a845       __imp_load_EC_KEY_set_private_key 000000018001b845 f   node:node.exe
 0001:0001a851       __imp_load_EC_KEY_set_public_key_affine_coordinates 000000018001b851 f   node:node.exe
 0001:0001a85d       __imp_load_RAND_bytes      000000018001b85d f   node:node.exe
 0001:0001a869       __imp_load_EVP_aes_256_ecb 000000018001b869 f   node:node.exe
 0001:0001a875       __imp_load_EVP_CipherFinal_ex 000000018001b875 f   node:node.exe
 0001:0001a881       __imp_load_EVP_aes_192_ecb 000000018001b881 f   node:node.exe
 0001:0001a88d       __imp_load_EVP_CipherInit_ex 000000018001b88d f   node:node.exe
 0001:0001a899       __imp_load_EVP_aes_128_ecb 000000018001b899 f   node:node.exe
 0001:0001a8a5       __imp_load_EVP_CipherUpdate 000000018001b8a5 f   node:node.exe
 0001:0001a8b1       __imp_load_EVP_CIPHER_CTX_new 000000018001b8b1 f   node:node.exe
 0001:0001a8bd       __imp_load_AES_set_decrypt_key 000000018001b8bd f   node:node.exe
 0001:0001a8c9       __imp_load_AES_wrap_key    000000018001b8c9 f   node:node.exe
 0001:0001a8d5       __imp_load_EVP_aes_192_cbc 000000018001b8d5 f   node:node.exe
 0001:0001a8e1       __imp_load_EVP_aes_128_cbc 000000018001b8e1 f   node:node.exe
 0001:0001a8ed       __imp_load_AES_set_encrypt_key 000000018001b8ed f   node:node.exe
 0001:0001a8f9       __imp_load_AES_unwrap_key  000000018001b8f9 f   node:node.exe
 0001:0001a905       __imp_load_EVP_aes_256_cbc 000000018001b905 f   node:node.exe
 0001:0001a911       __imp_load_EVP_aes_128_gcm 000000018001b911 f   node:node.exe
 0001:0001a91d       __imp_load_EVP_EncryptUpdate 000000018001b91d f   node:node.exe
 0001:0001a929       __imp_load_EVP_aes_256_gcm 000000018001b929 f   node:node.exe
 0001:0001a935       __imp_load_EVP_CIPHER_CTX_ctrl 000000018001b935 f   node:node.exe
 0001:0001a941       __imp_load_EVP_EncryptFinal_ex 000000018001b941 f   node:node.exe
 0001:0001a94d       __imp_load_EVP_DecryptInit_ex 000000018001b94d f   node:node.exe
 0001:0001a959       __imp_load_EVP_EncryptInit_ex 000000018001b959 f   node:node.exe
 0001:0001a965       __imp_load_EVP_DecryptFinal_ex 000000018001b965 f   node:node.exe
 0001:0001a971       __imp_load_EVP_aes_192_gcm 000000018001b971 f   node:node.exe
 0001:0001a97d       __imp_load_EVP_CIPHER_block_size 000000018001b97d f   node:node.exe
 0001:0001a989       __imp_load_EVP_DecryptUpdate 000000018001b989 f   node:node.exe
 0001:0001a995       __imp_load_AES_ctr128_encrypt 000000018001b995 f   node:node.exe
 0001:0001a9a1       __imp_load_HMAC            000000018001b9a1 f   node:node.exe
 0001:0001a9ad       __imp_load_EVP_MD_size     000000018001b9ad f   node:node.exe
 0001:0001a9b9       __imp_load_PKCS5_PBKDF2_HMAC 000000018001b9b9 f   node:node.exe
 0001:0001a9c5       __imp_load_?New@Buffer@node@@YA?AV?$MaybeLocal@VObject@v8@@@v8@@PEAVIsolate@4@_K@Z 000000018001b9c5 f   node:node.exe
 0001:0001a9d1       __imp_load_?Data@Buffer@node@@YAPEADV?$Local@VObject@v8@@@v8@@@Z 000000018001b9d1 f   node:node.exe
 0001:0001a9dd       __imp_load_?Length@Buffer@node@@YA_KV?$Local@VObject@v8@@@v8@@@Z 000000018001b9dd f   node:node.exe
 0001:0001a9e9       __imp_load_BN_bn2bin       000000018001b9e9 f   node:node.exe
 0001:0001a9f5       __imp_load_?ToObject@Value@v8@@QEBA?AV?$Local@VObject@v8@@@2@XZ 000000018001b9f5 f   node:node.exe
 0001:0001aa01       __imp_load_uv_queue_work   000000018001ba01 f   node:node.exe
 0001:0001aa0d       __imp_load_?Global@Context@v8@@QEAA?AV?$Local@VObject@v8@@@2@XZ 000000018001ba0d f   node:node.exe
 0001:0001aa19       __imp_load_?Value@External@v8@@QEBAPEAXXZ 000000018001ba19 f   node:node.exe
 0001:0001aa25       __imp_load_?New@External@v8@@SA?AV?$Local@VExternal@v8@@@2@PEAVIsolate@2@PEAX@Z 000000018001ba25 f   node:node.exe
 0001:0001aa31       __imp_load_?New@Signature@v8@@SA?AV?$Local@VSignature@v8@@@2@PEAVIsolate@2@V?$Local@VFunctionTemplate@v8@@@2@@Z 000000018001ba31 f   node:node.exe
 0001:0001aa3d       __imp_load_?ThrowException@Isolate@v8@@QEAA?AV?$Local@VValue@v8@@@2@V32@@Z 000000018001ba3d f   node:node.exe
 0001:0001aa49       __imp_load_?GetCurrentContext@Isolate@v8@@QEAA?AV?$Local@VContext@v8@@@2@XZ 000000018001ba49 f   node:node.exe
 0001:0001aa55       __imp_load_?CreateHandle@HandleScope@v8@@KAPEAPEAVObject@internal@2@PEAVIsolate@42@PEAV342@@Z 000000018001ba55 f   node:node.exe
 0001:0001aa61       __imp_load_?CreateHandle@HandleScope@v8@@CAPEAPEAVObject@internal@2@PEAVHeapObject@42@PEAV342@@Z 000000018001ba61 f   node:node.exe
 0001:0001aa6d       __imp_load_?Set@Template@v8@@QEAAXV?$Local@VName@v8@@@2@V?$Local@VData@v8@@@2@W4PropertyAttribute@2@@Z 000000018001ba6d f   node:node.exe
 0001:0001aa79       __imp_load_?Error@Exception@v8@@SA?AV?$Local@VValue@v8@@@2@V?$Local@VString@v8@@@2@@Z 000000018001ba79 f   node:node.exe
 0001:0001aa85       __imp_load_?SetClassName@FunctionTemplate@v8@@QEAAXV?$Local@VString@v8@@@2@@Z 000000018001ba85 f   node:node.exe
 0001:0001aa91       __imp_load_?PrototypeTemplate@FunctionTemplate@v8@@QEAA?AV?$Local@VObjectTemplate@v8@@@2@XZ 000000018001ba91 f   node:node.exe
 0001:0001aa9d       __imp_load_?InstanceTemplate@FunctionTemplate@v8@@QEAA?AV?$Local@VObjectTemplate@v8@@@2@XZ 000000018001ba9d f   node:node.exe
 0001:0001aaa9       __imp_load_?GetFunction@FunctionTemplate@v8@@QEAA?AV?$Local@VFunction@v8@@@2@XZ 000000018001baa9 f   node:node.exe
 0001:0001aab5       __imp_load_?GetFunction@FunctionTemplate@v8@@QEAA?AV?$MaybeLocal@VFunction@v8@@@2@V?$Local@VContext@v8@@@2@@Z 000000018001bab5 f   node:node.exe
 0001:0001aac1       __imp_load_?New@FunctionTemplate@v8@@SA?AV?$Local@VFunctionTemplate@v8@@@2@PEAVIsolate@2@P6AXAEBV?$FunctionCallbackInfo@VValue@v8@@@2@@ZV?$Local@VValue@v8@@@2@V?$Local@VSignature@v8@@@2@HW4ConstructorBehavior@2@@Z 000000018001bac1 f   node:node.exe
 0001:0001aacd       __imp_load_?FromJustIsNothing@V8@v8@@CAXXZ 000000018001bacd f   node:node.exe
 0001:0001aad9       __imp_load_?ClearWeak@V8@v8@@CAPEAXPEAPEAVObject@internal@2@@Z 000000018001bad9 f   node:node.exe
 0001:0001aae5       __imp_load_?MakeWeak@V8@v8@@CAXPEAPEAVObject@internal@2@PEAXP6AXAEBV?$WeakCallbackInfo@X@2@@ZW4WeakCallbackType@2@@Z 000000018001bae5 f   node:node.exe
 0001:0001aaf1       __imp_load_?DisposeGlobal@V8@v8@@CAXPEAPEAVObject@internal@2@@Z 000000018001baf1 f   node:node.exe
 0001:0001aafd       __imp_load_?GlobalizeReference@V8@v8@@CAPEAPEAVObject@internal@2@PEAVIsolate@42@PEAPEAV342@@Z 000000018001bafd f   node:node.exe
 0001:0001ab09       __imp_load_?Int32Value@Value@v8@@QEBA?AV?$Maybe@H@2@V?$Local@VContext@v8@@@2@@Z 000000018001bb09 f   node:node.exe
 0001:0001ab15       __imp_load_?BooleanValue@Value@v8@@QEBA_NXZ 000000018001bb15 f   node:node.exe
 0001:0001ab21       __imp_load_?ToObject@Value@v8@@QEBA?AV?$MaybeLocal@VObject@v8@@@2@V?$Local@VContext@v8@@@2@@Z 000000018001bb21 f   node:node.exe
 0001:0001ab2d       __imp_load_?Escape@EscapableHandleScope@v8@@AEAAPEAPEAVObject@internal@2@PEAPEAV342@@Z 000000018001bb2d f   node:node.exe
 0001:0001ab39       __imp_load_??0EscapableHandleScope@v8@@QEAA@PEAVIsolate@1@@Z 000000018001bb39 f   node:node.exe
 0001:0001ab45       __imp_load_??1Utf8Value@String@v8@@QEAA@XZ 000000018001bb45 f   node:node.exe
 0001:0001ab51       __imp_load_??0Utf8Value@String@v8@@QEAA@V?$Local@VValue@v8@@@2@@Z 000000018001bb51 f   node:node.exe
 0001:0001ab5d       __imp_load_?SlowGetAlignedPointerFromInternalField@Object@v8@@AEAAPEAXH@Z 000000018001bb5d f   node:node.exe
 0001:0001ab69       __imp_load_?SlowGetInternalField@Object@v8@@AEAA?AV?$Local@VValue@v8@@@2@H@Z 000000018001bb69 f   node:node.exe
 0001:0001ab75       __imp_load_?CallAsFunction@Object@v8@@QEAA?AV?$MaybeLocal@VValue@v8@@@2@V?$Local@VContext@v8@@@2@V?$Local@VValue@v8@@@2@HQEAV52@@Z 000000018001bb75 f   node:node.exe
 0001:0001ab81       __imp_load_?SetAlignedPointerInInternalField@Object@v8@@QEAAXHPEAX@Z 000000018001bb81 f   node:node.exe
 0001:0001ab8d       __imp_load_?SetInternalField@Object@v8@@QEAAXHV?$Local@VValue@v8@@@2@@Z 000000018001bb8d f   node:node.exe
 0001:0001ab99       __imp_load_?InternalFieldCount@Object@v8@@QEAAHXZ 000000018001bb99 f   node:node.exe
 0001:0001aba5       __imp_load_?Get@Object@v8@@QEAA?AV?$MaybeLocal@VValue@v8@@@2@V?$Local@VContext@v8@@@2@V?$Local@VValue@v8@@@2@@Z 000000018001bba5 f   node:node.exe
 0001:0001abb1       __imp_load_?Set@Object@v8@@QEAA?AV?$Maybe@_N@2@V?$Local@VContext@v8@@@2@V?$Local@VValue@v8@@@2@1@Z 000000018001bbb1 f   node:node.exe
 0001:0001abbd       __imp_load_?NewInstance@Function@v8@@QEBA?AV?$MaybeLocal@VObject@v8@@@2@V?$Local@VContext@v8@@@2@HQEAV?$Local@VValue@v8@@@2@@Z 000000018001bbbd f   node:node.exe
 0001:0001abc9       __imp_load_?SetInternalFieldCount@ObjectTemplate@v8@@QEAAXH@Z 000000018001bbc9 f   node:node.exe
 0001:0001abd5       __imp_load_?SetAccessor@ObjectTemplate@v8@@QEAAXV?$Local@VName@v8@@@2@P6AX0AEBV?$PropertyCallbackInfo@VValue@v8@@@2@@ZP6AX0V?$Local@VValue@v8@@@2@AEBV?$PropertyCallbackInfo@X@2@@Z3W4AccessControl@2@W4PropertyAttribute@2@V?$Local@VAccessorSignature@v8@@@2@@Z 000000018001bbd5 f   node:node.exe
 0001:0001abe1       __imp_load_?NewInstance@ObjectTemplate@v8@@QEAA?AV?$MaybeLocal@VObject@v8@@@2@V?$Local@VContext@v8@@@2@@Z 000000018001bbe1 f   node:node.exe
 0001:0001abed       __imp_load_?New@ObjectTemplate@v8@@SA?AV?$Local@VObjectTemplate@v8@@@2@PEAVIsolate@2@V?$Local@VFunctionTemplate@v8@@@2@@Z 000000018001bbed f   node:node.exe
 0001:0001abf9       __imp_load_?MakeCallback@node@@YA?AV?$Local@VValue@v8@@@v8@@PEAVIsolate@3@V?$Local@VObject@v8@@@3@V?$Local@VFunction@v8@@@3@HPEAV23@@Z 000000018001bbf9 f   node:node.exe
 0001:0001ac05       __imp_load_RSA_size        000000018001bc05 f   node:node.exe
 0001:0001ac11       __imp_load_EVP_PKEY_get1_RSA 000000018001bc11 f   node:node.exe
 0001:0001ac1d       __imp_load_EVP_get_digestbyname 000000018001bc1d f   node:node.exe
 0001:0001ac29       __imp_load_uv_default_loop 000000018001bc29 f   node:node.exe
 0001:0001ac35       __imp_load_?ToString@Value@v8@@QEBA?AV?$Local@VString@v8@@@2@XZ 000000018001bc35 f   node:node.exe
 0001:0001ac41       __imp_load_??1EscapableHandleScope@v8@@QEAA@XZ 000000018001bc41 f   node:node.exe
 0001:0001ac4d       __imp_load_?Uint32Value@Value@v8@@QEBAIXZ 000000018001bc4d f   node:node.exe
 0001:0001ac59       __imp_load_?ToNumber@Value@v8@@QEBA?AV?$MaybeLocal@VNumber@v8@@@2@V?$Local@VContext@v8@@@2@@Z 000000018001bc59 f   node:node.exe
 0001:0001ac68       ??0bad_alloc@std@@QEAA@AEBV01@@Z 000000018001bc68 f i libcpmt:xthrow.obj
 0001:0001aca8       ??0bad_alloc@std@@QEAA@XZ  000000018001bca8 f i libcpmt:xthrow.obj
 0001:0001acc8       ??0exception@std@@QEAA@AEBV01@@Z 000000018001bcc8 f i libcpmt:xthrow.obj
 0001:0001ad00       ??0length_error@std@@QEAA@AEBV01@@Z 000000018001bd00 f i libcpmt:xthrow.obj
 0001:0001ad40       ??0length_error@std@@QEAA@PEBD@Z 000000018001bd40 f i libcpmt:xthrow.obj
 0001:0001ad8c       ??0logic_error@std@@QEAA@AEBV01@@Z 000000018001bd8c f i libcpmt:xthrow.obj
 0001:0001adcc       ??0out_of_range@std@@QEAA@AEBV01@@Z 000000018001bdcc f i libcpmt:xthrow.obj
 0001:0001ae0c       ??0out_of_range@std@@QEAA@PEBD@Z 000000018001be0c f i libcpmt:xthrow.obj
 0001:0001ae58       ??_Gbad_alloc@std@@UEAAPEAXI@Z 000000018001be58 f i libcpmt:xthrow.obj
 0001:0001ae58       ??_Gbad_exception@std@@UEAAPEAXI@Z 000000018001be58 f i libvcruntime:frame.obj
 0001:0001ae58       ??_Gexception@std@@UEAAPEAXI@Z 000000018001be58 f i libcpmt:xthrow.obj
 0001:0001ae58       ??_Elength_error@std@@UEAAPEAXI@Z 000000018001be58 f i libcpmt:xthrow.obj
 0001:0001ae58       ??_Ebad_alloc@std@@UEAAPEAXI@Z 000000018001be58 f i libcpmt:xthrow.obj
 0001:0001ae58       ??_Glength_error@std@@UEAAPEAXI@Z 000000018001be58 f i libcpmt:xthrow.obj
 0001:0001ae58       ??_Ebad_array_new_length@std@@UEAAPEAXI@Z 000000018001be58 f i LIBCMT:throw_bad_alloc.obj
 0001:0001ae58       ??_Elogic_error@std@@UEAAPEAXI@Z 000000018001be58 f i libcpmt:xthrow.obj
 0001:0001ae58       ??_Gout_of_range@std@@UEAAPEAXI@Z 000000018001be58 f i libcpmt:xthrow.obj
 0001:0001ae58       ??_Ebad_exception@std@@UEAAPEAXI@Z 000000018001be58 f i libvcruntime:frame.obj
 0001:0001ae58       ??_Eout_of_range@std@@UEAAPEAXI@Z 000000018001be58 f i libcpmt:xthrow.obj
 0001:0001ae58       ??_Gbad_array_new_length@std@@UEAAPEAXI@Z 000000018001be58 f i LIBCMT:throw_bad_alloc.obj
 0001:0001ae58       ??_Eexception@std@@UEAAPEAXI@Z 000000018001be58 f i libcpmt:xthrow.obj
 0001:0001ae58       ??_Glogic_error@std@@UEAAPEAXI@Z 000000018001be58 f i libcpmt:xthrow.obj
 0001:0001ae9c       ?_Xlength_error@std@@YAXPEBD@Z 000000018001be9c f   libcpmt:xthrow.obj
 0001:0001aec0       ?_Xout_of_range@std@@YAXPEBD@Z 000000018001bec0 f   libcpmt:xthrow.obj
 0001:0001aee4       ?what@exception@std@@UEBAPEBDXZ 000000018001bee4 f i libcpmt:xthrow.obj
 0001:0001af10       __security_check_cookie    000000018001bf10 f   LIBCMT:_amdsecgs_.obj
 0001:0001af34       ??2@YAPEAX_K@Z             000000018001bf34 f   LIBCMT:new_scalar.obj
 0001:0001af70       ??3@YAXPEAX@Z              000000018001bf70 f   LIBCMT:delete_scalar.obj
 0001:0001af78       ??_V@YAXPEAX@Z             000000018001bf78 f   LIBCMT:delete_array.obj
 0001:0001af78       ??3@YAXPEAX_K@Z            000000018001bf78 f   LIBCMT:delete_scalar_size.obj
 0001:0001af80       ??_Etype_info@@UEAAPEAXI@Z 000000018001bf80 f i LIBCMT:std_type_info_static.obj
 0001:0001af80       ??_Gtype_info@@UEAAPEAXI@Z 000000018001bf80 f i LIBCMT:std_type_info_static.obj
 0001:0001b120       _Init_thread_footer        000000018001c120 f   LIBCMT:thread_safe_statics.obj
 0001:0001b180       _Init_thread_header        000000018001c180 f   LIBCMT:thread_safe_statics.obj
 0001:0001b1e8       _Init_thread_notify        000000018001c1e8 f   LIBCMT:thread_safe_statics.obj
 0001:0001b244       _Init_thread_wait          000000018001c244 f   LIBCMT:thread_safe_statics.obj
 0001:0001b2d0       __scrt_acquire_startup_lock 000000018001c2d0 f   LIBCMT:utility.obj
 0001:0001b30c       __scrt_dllmain_after_initialize_c 000000018001c30c f   LIBCMT:utility.obj
 0001:0001b340       __scrt_dllmain_before_initialize_c 000000018001c340 f   LIBCMT:utility.obj
 0001:0001b358       __scrt_dllmain_crt_thread_attach 000000018001c358 f   LIBCMT:utility.obj
 0001:0001b380       __scrt_dllmain_crt_thread_detach 000000018001c380 f   LIBCMT:utility.obj
 0001:0001b398       __scrt_dllmain_exception_filter 000000018001c398 f   LIBCMT:utility.obj
 0001:0001b3fc       __scrt_dllmain_uninitialize_c 000000018001c3fc f   LIBCMT:utility.obj
 0001:0001b42c       __scrt_dllmain_uninitialize_critical 000000018001c42c f   LIBCMT:utility.obj
 0001:0001b440       __scrt_initialize_crt      000000018001c440 f   LIBCMT:utility.obj
 0001:0001b48c       __scrt_initialize_onexit_tables 000000018001c48c f   LIBCMT:utility.obj
 0001:0001b56c       __scrt_is_nonwritable_in_current_image 000000018001c56c f   LIBCMT:utility.obj
 0001:0001b608       __scrt_release_startup_lock 000000018001c608 f   LIBCMT:utility.obj
 0001:0001b62c       __scrt_uninitialize_crt    000000018001c62c f   LIBCMT:utility.obj
 0001:0001b658       _onexit                    000000018001c658 f   LIBCMT:utility.obj
 0001:0001b6a8       atexit                     000000018001c6a8 f   LIBCMT:utility.obj
 0001:0001b6c0       ??_U@YAPEAX_K@Z            000000018001c6c0 f   LIBCMT:new_array.obj
 0001:0001ba04       _DllMainCRTStartup         000000018001ca04 f   LIBCMT:dll_dllmain.obj
 0001:0001ba44       __raise_securityfailure    000000018001ca44 f   LIBCMT:gs_report.obj
 0001:0001ba78       __report_gsfailure         000000018001ca78 f   LIBCMT:gs_report.obj
 0001:0001bb4c       __report_rangecheckfailure 000000018001cb4c f   LIBCMT:gs_report.obj
 0001:0001bb60       __report_securityfailure   000000018001cb60 f   LIBCMT:gs_report.obj
 0001:0001bce0       ??0bad_array_new_length@std@@QEAA@AEBV01@@Z 000000018001cce0 f i LIBCMT:throw_bad_alloc.obj
 0001:0001bd20       ??0bad_array_new_length@std@@QEAA@XZ 000000018001cd20 f i LIBCMT:throw_bad_alloc.obj
 0001:0001bd40       ?_Xbad_alloc@std@@YAXXZ    000000018001cd40 f   libcpmt:xthrow.obj
 0001:0001bd40       ?__scrt_throw_std_bad_alloc@@YAXXZ 000000018001cd40 f   LIBCMT:throw_bad_alloc.obj
 0001:0001bd60       ?__scrt_throw_std_bad_array_new_length@@YAXXZ 000000018001cd60 f   LIBCMT:throw_bad_alloc.obj
 0001:0001bd80       __crt_debugger_hook        000000018001cd80 f   LIBCMT:utility_desktop.obj
 0001:0001bd88       __scrt_fastfail            000000018001cd88 f   LIBCMT:utility_desktop.obj
 0001:0001bed4       _guard_check_icall         000000018001ced4 f i LIBCMT:checkcfg.obj
 0001:0001bedc       __isa_available_init       000000018001cedc f   LIBCMT:_cpu_disp_.obj
 0001:0001c098       __scrt_is_ucrt_dll_in_use  000000018001d098 f   LIBCMT:ucrt_detection.obj
 0001:0001c0a4       __security_init_cookie     000000018001d0a4 f   LIBCMT:gs_support.obj
 0001:0001c150       DllMain                    000000018001d150 f   LIBCMT:dll_dllmain_stub.obj
 0001:0001c150       _get_startup_argv_mode     000000018001d150 f   LIBCMT:argv_mode.obj
 0001:0001c158       ?__scrt_initialize_type_info@@YAXXZ 000000018001d158 f   LIBCMT:tncleanup.obj
 0001:0001c168       ?__scrt_uninitialize_type_info@@YAXXZ 000000018001d168 f   LIBCMT:tncleanup.obj
 0001:0001c174       __local_stdio_printf_options 000000018001d174 f i LIBCMT:default_local_stdio_options.obj
 0001:0001c17c       __local_stdio_scanf_options 000000018001d17c f i LIBCMT:default_local_stdio_options.obj
 0001:0001c184       __scrt_initialize_default_local_stdio_options 000000018001d184 f   LIBCMT:default_local_stdio_options.obj
 0001:0001c1a0       __scrt_get_dyn_tls_init_callback 000000018001d1a0 f   LIBCMT:dyn_tls_init.obj
 0001:0001c1a8       _RTC_Initialize            000000018001d1a8 f   LIBCMT:_initsect_.obj
 0001:0001c1f4       _RTC_Terminate             000000018001d1f4 f   LIBCMT:_initsect_.obj
 0001:0001c240       ?_ExecutionInCatch@@YAHPEAU_xDISPATCHER_CONTEXT@@PEBU_s_FuncInfo@@@Z 000000018001d240 f   libvcruntime:risctrnsctrl.obj
 0001:0001c2b4       ?_GetEstablisherFrame@@YAPEA_KPEA_KPEAU_xDISPATCHER_CONTEXT@@PEBU_s_FuncInfo@@0@Z 000000018001d2b4 f   libvcruntime:risctrnsctrl.obj
 0001:0001c380       ?_GetRangeOfTrysToCheck@@YAPEBU_s_TryBlockMapEntry@@PEA_KPEBU_s_FuncInfo@@HHPEAI2PEAU_xDISPATCHER_CONTEXT@@@Z 000000018001d380 f   libvcruntime:risctrnsctrl.obj
 0001:0001c4ac       ?__FrameUnwindToEmptyState@@YAXPEA_KPEAU_xDISPATCHER_CONTEXT@@PEBU_s_FuncInfo@@@Z 000000018001d4ac f   libvcruntime:risctrnsctrl.obj
 0001:0001c540       _CallSETranslator          000000018001d540 f   libvcruntime:risctrnsctrl.obj
 0001:0001c598       _CreateFrameInfo           000000018001d598 f   libvcruntime:risctrnsctrl.obj
 0001:0001c5d4       _FindAndUnlinkFrame        000000018001d5d4 f   libvcruntime:risctrnsctrl.obj
 0001:0001c62c       _GetImageBase              000000018001d62c f   libvcruntime:risctrnsctrl.obj
 0001:0001c640       _GetThrowImageBase         000000018001d640 f   libvcruntime:risctrnsctrl.obj
 0001:0001c654       _SetImageBase              000000018001d654 f   libvcruntime:risctrnsctrl.obj
 0001:0001c66c       _SetThrowImageBase         000000018001d66c f   libvcruntime:risctrnsctrl.obj
 0001:0001c684       _UnwindNestedFrames        000000018001d684 f   libvcruntime:risctrnsctrl.obj
 0001:0001c7a8       __CxxFrameHandler3         000000018001d7a8 f   libvcruntime:risctrnsctrl.obj
 0001:0001c828       __DestructExceptionObject  000000018001d828 f   libvcruntime:ehhelpers.obj
 0001:0001c8b0       ?_CallMemberFunction0@@YAXQEAX0@Z 000000018001d8b0 f i libvcruntime:ehhelpers.obj
 0001:0001c8b4       _IsExceptionObjectToBeDestroyed 000000018001d8b4 f   libvcruntime:ehhelpers.obj
 0001:0001c8e4       __AdjustPointer            000000018001d8e4 f   libvcruntime:ehhelpers.obj
 0001:0001c908       __FrameUnwindFilter        000000018001d908 f   libvcruntime:ehhelpers.obj
 0001:0001c954       __std_terminate            000000018001d954 f   libvcruntime:ehhelpers.obj
 0001:0001c970       memmove                    000000018001d970 f   libvcruntime:memcpy.obj
 0001:0001c970       memcpy                     000000018001d970 f   libvcruntime:memcpy.obj
 0001:0001cdb8       _purecall                  000000018001ddb8 f   libvcruntime:purevirt.obj
 0001:0001cdf0       __std_exception_copy       000000018001ddf0 f   libvcruntime:std_exception.obj
 0001:0001ce80       __std_exception_destroy    000000018001de80 f   libvcruntime:std_exception.obj
 0001:0001cea8       _CxxThrowException         000000018001dea8 f   libvcruntime:throw.obj
 0001:0001d158       __vcrt_FlsAlloc            000000018001e158 f   libvcruntime:winapi_downlevel.obj
 0001:0001d1ac       __vcrt_FlsFree             000000018001e1ac f   libvcruntime:winapi_downlevel.obj
 0001:0001d200       __vcrt_FlsGetValue         000000018001e200 f   libvcruntime:winapi_downlevel.obj
 0001:0001d254       __vcrt_FlsSetValue         000000018001e254 f   libvcruntime:winapi_downlevel.obj
 0001:0001d2bc       __vcrt_InitializeCriticalSectionEx 000000018001e2bc f   libvcruntime:winapi_downlevel.obj
 0001:0001d334       __vcrt_initialize_winapi_thunks 000000018001e334 f   libvcruntime:winapi_downlevel.obj
 0001:0001d378       __vcrt_uninitialize_winapi_thunks 000000018001e378 f   libvcruntime:winapi_downlevel.obj
 0001:0001d3b8       __vcrt_initialize          000000018001e3b8 f   libvcruntime:initialization.obj
 0001:0001d3ec       __vcrt_thread_attach       000000018001e3ec f   libvcruntime:initialization.obj
 0001:0001d400       __vcrt_thread_detach       000000018001e400 f   libvcruntime:initialization.obj
 0001:0001d414       __vcrt_uninitialize        000000018001e414 f   libvcruntime:initialization.obj
 0001:0001d434       __vcrt_uninitialize_critical 000000018001e434 f   libvcruntime:initialization.obj
 0001:0001d444       __C_specific_handler       000000018001e444 f   libvcruntime:_riscchandler_.obj
 0001:0001d650       memset                     000000018001e650 f   libvcruntime:memset.obj
 0001:0001d800       __std_type_info_compare    000000018001e800 f   libvcruntime:std_type_info.obj
 0001:0001d828       __std_type_info_destroy_list 000000018001e828 f   libvcruntime:std_type_info.obj
 0001:0001d854       __vcrt_freefls             000000018001e854 f   libvcruntime:per_thread_data.obj
 0001:0001d874       __vcrt_freeptd             000000018001e874 f   libvcruntime:per_thread_data.obj
 0001:0001d8c4       __vcrt_getptd              000000018001e8c4 f   libvcruntime:per_thread_data.obj
 0001:0001d8e0       __vcrt_getptd_noexit       000000018001e8e0 f   libvcruntime:per_thread_data.obj
 0001:0001d998       __vcrt_initialize_ptd      000000018001e998 f   libvcruntime:per_thread_data.obj
 0001:0001d9d8       __vcrt_uninitialize_ptd    000000018001e9d8 f   libvcruntime:per_thread_data.obj
 0001:0001d9fc       ?__GetCurrentState@@YAHPEA_KPEAU_xDISPATCHER_CONTEXT@@PEBU_s_FuncInfo@@@Z 000000018001e9fc f   libvcruntime:riscehstate.obj
 0001:0001da24       ?__GetUnwindTryBlock@@YAHPEA_KPEAU_xDISPATCHER_CONTEXT@@PEBU_s_FuncInfo@@@Z 000000018001ea24 f   libvcruntime:riscehstate.obj
 0001:0001da50       ?__SetState@@YAXPEA_KPEAU_xDISPATCHER_CONTEXT@@PEBU_s_FuncInfo@@H@Z 000000018001ea50 f   libvcruntime:riscehstate.obj
 0001:0001da5c       ?__SetUnwindTryBlock@@YAXPEA_KPEAU_xDISPATCHER_CONTEXT@@PEBU_s_FuncInfo@@H@Z 000000018001ea5c f   libvcruntime:riscehstate.obj
 0001:0001da98       ?__StateFromControlPc@@YAHPEBU_s_FuncInfo@@PEAU_xDISPATCHER_CONTEXT@@@Z 000000018001ea98 f   libvcruntime:riscehstate.obj
 0001:0001daa0       ?__StateFromIp@@YAHPEBU_s_FuncInfo@@PEAU_xDISPATCHER_CONTEXT@@_K@Z 000000018001eaa0 f   libvcruntime:riscehstate.obj
 0001:0001db0c       ??0bad_exception@std@@QEAA@AEBV01@@Z 000000018001eb0c f i libvcruntime:frame.obj
 0001:0001db4c       ??0bad_exception@std@@QEAA@XZ 000000018001eb4c f i libvcruntime:frame.obj
 0001:0001db6c       ??1length_error@std@@UEAA@XZ 000000018001eb6c f i libcpmt:xthrow.obj
 0001:0001db6c       ??1bad_exception@std@@UEAA@XZ 000000018001eb6c f i libvcruntime:frame.obj
 0001:0001db6c       ??1bad_array_new_length@std@@UEAA@XZ 000000018001eb6c f i LIBCMT:throw_bad_alloc.obj
 0001:0001db6c       ??1out_of_range@std@@UEAA@XZ 000000018001eb6c f i libcpmt:xthrow.obj
 0001:0001db6c       ??1bad_alloc@std@@UEAA@XZ  000000018001eb6c f i libcpmt:xthrow.obj
 0001:0001e4dc       ?_CallMemberFunction1@@YAXQEAX00@Z 000000018001f4dc f i libvcruntime:frame.obj
 0001:0001e4e8       ?_CallMemberFunction2@@YAXQEAX00H@Z 000000018001f4e8 f i libvcruntime:frame.obj
 0001:0001e4f8       __BuildCatchObject         000000018001f4f8 f   libvcruntime:frame.obj
 0001:0001e5bc       __BuildCatchObjectHelper   000000018001f5bc f   libvcruntime:frame.obj
 0001:0001e79c       __CxxCallCatchBlock        000000018001f79c f   libvcruntime:frame.obj
 0001:0001e988       __FrameUnwindToState       000000018001f988 f   libvcruntime:frame.obj
 0001:0001eb1c       __InternalCxxFrameHandler  000000018001fb1c f   libvcruntime:frame.obj
 0001:0001ed70       __TypeMatch                000000018001fd70 f   libvcruntime:frame.obj
 0001:0001eeb0       __vcrt_initialize_pure_virtual_call_handler 000000018001feb0 f   libvcruntime:purevirt_data.obj
 0001:0001eed4       __vcrt_initialize_locks    000000018001fed4 f   libvcruntime:locks.obj
 0001:0001ef1c       __vcrt_uninitialize_locks  000000018001ff1c f   libvcruntime:locks.obj
 0001:0001ef70       _local_unwind              000000018001ff70 f   libvcruntime:_jmpuwind_.obj
 0001:0001efa0       _NLG_Notify                000000018001ffa0 f   libvcruntime:_jmpuwind_.obj
 0001:0001efc0       __NLG_Dispatch2            000000018001ffc0 f   libvcruntime:_jmpuwind_.obj
 0001:0001efd0       __NLG_Return2              000000018001ffd0 f   libvcruntime:_jmpuwind_.obj
 0001:0001efd4       __except_validate_context_record 000000018001ffd4 f   libvcruntime:jbcxrval.obj
 0001:0001f020       _CallSettingFrame          0000000180020020 f   libvcruntime:handlers.obj
 0001:0001f060       __acrt_call_reportfault    0000000180020060 f   libucrt:invalid_parameter.obj
 0001:0001f1bc       __acrt_initialize_invalid_parameter_handler 00000001800201bc f   libucrt:invalid_parameter.obj
 0001:0001f1c4       _invalid_parameter         00000001800201c4 f   libucrt:invalid_parameter.obj
 0001:0001f274       _invalid_parameter_noinfo  0000000180020274 f   libucrt:invalid_parameter.obj
 0001:0001f294       _invalid_parameter_noinfo_noreturn 0000000180020294 f   libucrt:invalid_parameter.obj
 0001:0001f2c4       _invoke_watson             00000001800202c4 f   libucrt:invalid_parameter.obj
 0001:0001fce0       ??$ftprintf@PEAU_iobuf@@PEB_WAEBQEB_WAEBQEB_WAEBI@?$__crt_char_traits@_W@@SAH$$QEAPEAU_iobuf@@$$QEAPEB_WAEBQEB_W2AEBI@Z 0000000180020ce0 f i libucrt:assert.obj
 0001:0001fd08       _wassert                   0000000180020d08 f   libucrt:assert.obj
 0001:0001fd8c       fwprintf                   0000000180020d8c f i libucrt:assert.obj
 0001:0001fdd0       swprintf                   0000000180020dd0 f i libucrt:assert.obj
 0001:0001fe24       ??0_LocaleUpdate@@QEAA@QEAU__crt_locale_pointers@@@Z 0000000180020e24 f i libucrt:stricmp.obj
 0001:0001feb4       __ascii_stricmp            0000000180020eb4 f   libucrt:stricmp.obj
 0001:0001fef4       _stricmp                   0000000180020ef4 f   libucrt:stricmp.obj
 0001:0001ff3c       _stricmp_l                 0000000180020f3c f   libucrt:stricmp.obj
 0001:0001fff0       __acrt_initialize_new_handler 0000000180020ff0 f   libucrt:new_handler.obj
 0001:0001fff8       _callnewh                  0000000180020ff8 f   libucrt:new_handler.obj
 0001:00020028       _query_new_handler         0000000180021028 f   libucrt:new_handler.obj
 0001:0002005c       malloc                     000000018002105c f   libucrt:malloc.obj
 0001:00020064       free                       0000000180021064 f   libucrt:free.obj
 0001:00020078       _seh_filter_dll            0000000180021078 f   libucrt:exception_filter.obj
 0001:0002008c       _seh_filter_exe            000000018002108c f   libucrt:exception_filter.obj
 0001:00020498       __acrt_initialize_thread_local_exit_callback 0000000180021498 f   libucrt:exit.obj
 0001:000204a0       _cexit                     00000001800214a0 f   libucrt:exit.obj
 0001:000204b0       _exit                      00000001800214b0 f   libucrt:exit.obj
 0001:000204bc       _is_c_termination_complete 00000001800214bc f   libucrt:exit.obj
 0001:00020680       __acrt_allocate_buffer_for_argv 0000000180021680 f   libucrt:argv_parsing.obj
 0001:000206e0       _configure_narrow_argv     00000001800216e0 f   libucrt:argv_parsing.obj
 0001:00020a5c       __dcrt_uninitialize_environments_nolock 0000000180021a5c f   libucrt:environment_initialization.obj
 0001:00020a94       _initialize_narrow_environment 0000000180021a94 f   libucrt:environment_initialization.obj
 0001:00020e24       _crt_atexit                0000000180021e24 f   libucrt:onexit.obj
 0001:00020e34       _execute_onexit_table      0000000180021e34 f   libucrt:onexit.obj
 0001:00020e70       _initialize_onexit_table   0000000180021e70 f   libucrt:onexit.obj
 0001:00020eb0       _register_onexit_function  0000000180021eb0 f   libucrt:onexit.obj
 0001:00020f30       __acrt_uninitialize_command_line 0000000180021f30 f   libucrt:argv_data.obj
 0001:0002103c       __acrt_initialize          000000018002203c f   libucrt:initialization.obj
 0001:00021050       __acrt_thread_attach       0000000180022050 f   libucrt:initialization.obj
 0001:00021064       __acrt_thread_detach       0000000180022064 f   libucrt:initialization.obj
 0001:00021074       __acrt_uninitialize        0000000180022074 f   libucrt:initialization.obj
 0001:000210ac       __acrt_uninitialize_critical 00000001800220ac f   libucrt:initialization.obj
 0001:000210bc       _initterm                  00000001800220bc f   libucrt:initterm.obj
 0001:00021120       _initterm_e                0000000180022120 f   libucrt:initterm.obj
 0001:00021160       terminate                  0000000180022160 f   libucrt:terminate.obj
 0001:00021180       abort                      0000000180022180 f   libucrt:abort.obj
 0001:000211d8       strcpy_s                   00000001800221d8 f   libucrt:strcpy_s.obj
 0001:00021238       wcsncmp                    0000000180022238 f   libucrt:wcsncmp.obj
 0001:00021264       _free_base                 0000000180022264 f   libucrt:free_base.obj
 0001:000212a4       _malloc_base               00000001800222a4 f   libucrt:malloc_base.obj
 0001:00021304       _calloc_base               0000000180022304 f   libucrt:calloc_base.obj
 0001:00021590       ??$ensure_buffer_is_big_enough@D@formatting_buffer@__crt_stdio_output@@QEAA_N_K@Z 0000000180022590 f i libucrt:output.obj
 0001:00021638       ??$ensure_buffer_is_big_enough@_W@formatting_buffer@__crt_stdio_output@@QEAA_N_K@Z 0000000180022638 f i libucrt:output.obj
 0001:000216e4       ??$is_wide_character_specifier@_W@__crt_stdio_output@@YA_N_K_WW4length_modifier@0@@Z 00000001800226e4 f i libucrt:output.obj
 0001:00021724       ??$type_case_integer_parse_into_buffer@I@?$output_processor@_WV?$string_output_adapter@_W@__crt_stdio_output@@V?$standard_base@_WV?$string_output_adapter@_W@__crt_stdio_output@@@2@@__crt_stdio_output@@AEAAXII_N@Z 0000000180022724 f i libucrt:output.obj
 0001:00021724       ??$type_case_integer_parse_into_buffer@I@?$output_processor@_WV?$stream_output_adapter@_W@__crt_stdio_output@@V?$standard_base@_WV?$stream_output_adapter@_W@__crt_stdio_output@@@2@@__crt_stdio_output@@AEAAXII_N@Z 0000000180022724 f i libucrt:output.obj
 0001:000217c0       ??$type_case_integer_parse_into_buffer@_K@?$output_processor@_WV?$stream_output_adapter@_W@__crt_stdio_output@@V?$standard_base@_WV?$stream_output_adapter@_W@__crt_stdio_output@@@2@@__crt_stdio_output@@AEAAX_KI_N@Z 00000001800227c0 f i libucrt:output.obj
 0001:000217c0       ??$type_case_integer_parse_into_buffer@_K@?$output_processor@_WV?$string_output_adapter@_W@__crt_stdio_output@@V?$standard_base@_WV?$string_output_adapter@_W@__crt_stdio_output@@@2@@__crt_stdio_output@@AEAAX_KI_N@Z 00000001800227c0 f i libucrt:output.obj
 0001:00021860       ??$write_multiple_characters@V?$stream_output_adapter@_W@__crt_stdio_output@@D@__crt_stdio_output@@YAXAEBV?$stream_output_adapter@_W@0@DHQEAH@Z 0000000180022860 f i libucrt:output.obj
 0001:000218ec       ??$write_multiple_characters@V?$string_output_adapter@_W@__crt_stdio_output@@D@__crt_stdio_output@@YAXAEBV?$string_output_adapter@_W@0@DHQEAH@Z 00000001800228ec f i libucrt:output.obj
 0001:00021a90       ?force_decimal_point@__crt_stdio_output@@YAXPEADQEAU__crt_locale_pointers@@@Z 0000000180022a90 f i libucrt:output.obj
 0001:00021b00       ?parse_int_from_format_string@?$output_processor@_WV?$stream_output_adapter@_W@__crt_stdio_output@@V?$standard_base@_WV?$stream_output_adapter@_W@__crt_stdio_output@@@2@@__crt_stdio_output@@AEAA_NQEAH@Z 0000000180022b00 f i libucrt:output.obj
 0001:00021b00       ?parse_int_from_format_string@?$output_processor@_WV?$string_output_adapter@_W@__crt_stdio_output@@V?$standard_base@_WV?$string_output_adapter@_W@__crt_stdio_output@@@2@@__crt_stdio_output@@AEAA_NQEAH@Z 0000000180022b00 f i libucrt:output.obj
 0001:00021ba4       ?process@?$output_processor@_WV?$stream_output_adapter@_W@__crt_stdio_output@@V?$standard_base@_WV?$stream_output_adapter@_W@__crt_stdio_output@@@2@@__crt_stdio_output@@QEAAHXZ 0000000180022ba4 f i libucrt:output.obj
 0001:00021e14       ?process@?$output_processor@_WV?$string_output_adapter@_W@__crt_stdio_output@@V?$standard_base@_WV?$string_output_adapter@_W@__crt_stdio_output@@@2@@__crt_stdio_output@@QEAAHXZ 0000000180022e14 f i libucrt:output.obj
 0001:0002207c       ?state_case_size@?$output_processor@_WV?$stream_output_adapter@_W@__crt_stdio_output@@V?$standard_base@_WV?$stream_output_adapter@_W@__crt_stdio_output@@@2@@__crt_stdio_output@@AEAA_NXZ 000000018002307c f i libucrt:output.obj
 0001:00022220       ?state_case_size@?$output_processor@_WV?$string_output_adapter@_W@__crt_stdio_output@@V?$standard_base@_WV?$string_output_adapter@_W@__crt_stdio_output@@@2@@__crt_stdio_output@@AEAA_NXZ 0000000180023220 f i libucrt:output.obj
 0001:000223c4       ?state_case_type@?$output_processor@_WV?$stream_output_adapter@_W@__crt_stdio_output@@V?$standard_base@_WV?$stream_output_adapter@_W@__crt_stdio_output@@@2@@__crt_stdio_output@@AEAA_NXZ 00000001800233c4 f i libucrt:output.obj
 0001:000226b0       ?state_case_type@?$output_processor@_WV?$string_output_adapter@_W@__crt_stdio_output@@V?$standard_base@_WV?$string_output_adapter@_W@__crt_stdio_output@@@2@@__crt_stdio_output@@AEAA_NXZ 00000001800236b0 f i libucrt:output.obj
 0001:0002298c       ?type_case_Z@?$output_processor@_WV?$stream_output_adapter@_W@__crt_stdio_output@@V?$standard_base@_WV?$stream_output_adapter@_W@__crt_stdio_output@@@2@@__crt_stdio_output@@AEAA_NXZ 000000018002398c f i libucrt:output.obj
 0001:0002298c       ?type_case_Z@?$output_processor@_WV?$string_output_adapter@_W@__crt_stdio_output@@V?$standard_base@_WV?$string_output_adapter@_W@__crt_stdio_output@@@2@@__crt_stdio_output@@AEAA_NXZ 000000018002398c f i libucrt:output.obj
 0001:00022a0c       ?type_case_a@?$output_processor@_WV?$stream_output_adapter@_W@__crt_stdio_output@@V?$standard_base@_WV?$stream_output_adapter@_W@__crt_stdio_output@@@2@@__crt_stdio_output@@AEAA_NXZ 0000000180023a0c f i libucrt:output.obj
 0001:00022a0c       ?type_case_a@?$output_processor@_WV?$string_output_adapter@_W@__crt_stdio_output@@V?$standard_base@_WV?$string_output_adapter@_W@__crt_stdio_output@@@2@@__crt_stdio_output@@AEAA_NXZ 0000000180023a0c f i libucrt:output.obj
 0001:00022c4c       ?type_case_c_tchar@?$output_processor@_WV?$stream_output_adapter@_W@__crt_stdio_output@@V?$standard_base@_WV?$stream_output_adapter@_W@__crt_stdio_output@@@2@@__crt_stdio_output@@AEAA_N_W@Z 0000000180023c4c f i libucrt:output.obj
 0001:00022c4c       ?type_case_c_tchar@?$output_processor@_WV?$string_output_adapter@_W@__crt_stdio_output@@V?$standard_base@_WV?$string_output_adapter@_W@__crt_stdio_output@@@2@@__crt_stdio_output@@AEAA_N_W@Z 0000000180023c4c f i libucrt:output.obj
 0001:00022cf4       ?type_case_integer@?$output_processor@_WV?$stream_output_adapter@_W@__crt_stdio_output@@V?$standard_base@_WV?$stream_output_adapter@_W@__crt_stdio_output@@@2@@__crt_stdio_output@@AEAA_NI_N@Z 0000000180023cf4 f i libucrt:output.obj
 0001:00022cf4       ?type_case_integer@?$output_processor@_WV?$string_output_adapter@_W@__crt_stdio_output@@V?$standard_base@_WV?$string_output_adapter@_W@__crt_stdio_output@@@2@@__crt_stdio_output@@AEAA_NI_N@Z 0000000180023cf4 f i libucrt:output.obj
 0001:00022ec0       ?type_case_n@?$output_processor@_WV?$string_output_adapter@_W@__crt_stdio_output@@V?$standard_base@_WV?$string_output_adapter@_W@__crt_stdio_output@@@2@@__crt_stdio_output@@AEAA_NXZ 0000000180023ec0 f i libucrt:output.obj
 0001:00022ec0       ?type_case_n@?$output_processor@_WV?$stream_output_adapter@_W@__crt_stdio_output@@V?$standard_base@_WV?$stream_output_adapter@_W@__crt_stdio_output@@@2@@__crt_stdio_output@@AEAA_NXZ 0000000180023ec0 f i libucrt:output.obj
 0001:00022f9c       ?type_case_s@?$output_processor@_WV?$stream_output_adapter@_W@__crt_stdio_output@@V?$standard_base@_WV?$stream_output_adapter@_W@__crt_stdio_output@@@2@@__crt_stdio_output@@AEAA_NXZ 0000000180023f9c f i libucrt:output.obj
 0001:00022f9c       ?type_case_s@?$output_processor@_WV?$string_output_adapter@_W@__crt_stdio_output@@V?$standard_base@_WV?$string_output_adapter@_W@__crt_stdio_output@@@2@@__crt_stdio_output@@AEAA_NXZ 0000000180023f9c f i libucrt:output.obj
 0001:00023064       ?write_stored_string_tchar@?$output_processor@_WV?$stream_output_adapter@_W@__crt_stdio_output@@V?$standard_base@_WV?$stream_output_adapter@_W@__crt_stdio_output@@@2@@__crt_stdio_output@@AEAA_N_W@Z 0000000180024064 f i libucrt:output.obj
 0001:0002316c       ?write_stored_string_tchar@?$output_processor@_WV?$string_output_adapter@_W@__crt_stdio_output@@V?$standard_base@_WV?$string_output_adapter@_W@__crt_stdio_output@@@2@@__crt_stdio_output@@AEAA_N_W@Z 000000018002416c f i libucrt:output.obj
 0001:0002325c       ?write_string@?$string_output_adapter@_W@__crt_stdio_output@@QEBAXQEB_WHQEAHAEAV__crt_deferred_errno_cache@@@Z 000000018002425c f i libucrt:output.obj
 0001:00023304       ?write_string_impl@?$output_adapter_common@_WV?$stream_output_adapter@_W@__crt_stdio_output@@@__crt_stdio_output@@IEBAXQEB_WHQEAHAEAV__crt_deferred_errno_cache@@@Z 0000000180024304 f i libucrt:output.obj
 0001:00023408       __stdio_common_vfwprintf   0000000180024408 f   libucrt:output.obj
 0001:00023494       __stdio_common_vswprintf   0000000180024494 f   libucrt:output.obj
 0001:0002349c       ??$parse_integer@KV?$c_string_character_source@_W@__crt_strtox@@@__crt_strtox@@YAKQEAU__crt_locale_pointers@@V?$c_string_character_source@_W@0@H_N@Z 000000018002449c f i libucrt:atox.obj
 0001:00023ed8       __acrt_freeptd             0000000180024ed8 f   libucrt:per_thread_data.obj
 0001:00023f1c       __acrt_getptd              0000000180024f1c f   libucrt:per_thread_data.obj
 0001:00023fe8       __acrt_getptd_head         0000000180024fe8 f   libucrt:per_thread_data.obj
 0001:00024090       __acrt_getptd_noexit       0000000180025090 f   libucrt:per_thread_data.obj
 0001:00024160       __acrt_initialize_ptd      0000000180025160 f   libucrt:per_thread_data.obj
 0001:0002419c       __acrt_uninitialize_ptd    000000018002519c f   libucrt:per_thread_data.obj
 0001:000241c0       _query_app_type            00000001800251c0 f   libucrt:report_runtime_error.obj
 0001:000241c8       __acrt_errno_from_os_error 00000001800251c8 f   libucrt:errno.obj
 0001:00024210       __acrt_errno_map_os_error  0000000180025210 f   libucrt:errno.obj
 0001:00024260       __doserrno                 0000000180025260 f   libucrt:errno.obj
 0001:00024280       _errno                     0000000180025280 f   libucrt:errno.obj
 0001:000243b4       _itow_s                    00000001800253b4 f   libucrt:xtoa.obj
 0001:000243d4       _set_error_mode            00000001800253d4 f   libucrt:set_error_mode.obj
 0001:00024414       wcscat_s                   0000000180025414 f   libucrt:wcscat_s.obj
 0001:00024494       wcscpy_s                   0000000180025494 f   libucrt:wcscpy_s.obj
 0001:000244fc       wcsncat_s                  00000001800254fc f   libucrt:wcsncat_s.obj
 0001:000245fc       __acrt_show_wide_message_box 00000001800255fc f   libucrt:crtmbox.obj
 0001:000246a0       __acrt_initialize_stdio    00000001800256a0 f   libucrt:_file.obj
 0001:000247c0       __acrt_iob_func            00000001800257c0 f   libucrt:_file.obj
 0001:000247d4       __acrt_uninitialize_stdio  00000001800257d4 f   libucrt:_file.obj
 0001:00024830       _lock_file                 0000000180025830 f   libucrt:_file.obj
 0001:0002483c       _unlock_file               000000018002583c f   libucrt:_file.obj
 0001:00024a6c       __acrt_stdio_flush_nolock  0000000180025a6c f   libucrt:fflush.obj
 0001:00024ae8       _fflush_nolock             0000000180025ae8 f   libucrt:fflush.obj
 0001:00024b34       _flushall                  0000000180025b34 f   libucrt:fflush.obj
 0001:00024b3c       fflush                     0000000180025b3c f   libucrt:fflush.obj
 0001:00024cd4       setvbuf                    0000000180025cd4 f   libucrt:setvbuf.obj
 0001:00024db8       __acrt_get_sigabrt_handler 0000000180025db8 f   libucrt:signal.obj
 0001:00024de8       __acrt_initialize_signal_handlers 0000000180025de8 f   libucrt:signal.obj
 0001:00024e08       raise                      0000000180025e08 f   libucrt:signal.obj
 0001:000250c0       _tolower_l                 00000001800260c0 f   libucrt:tolower_toupper.obj
 0001:00025200       tolower                    0000000180026200 f   libucrt:tolower_toupper.obj
 0001:0002522c       __acrt_update_locale_info  000000018002622c f   libucrt:locale_update.obj
 0001:00025260       __acrt_update_multibyte_info 0000000180026260 f   libucrt:locale_update.obj
 0001:00025304       __acrt_set_locale_changed  0000000180026304 f   libucrt:wsetlocale.obj
 0001:00025310       __acrt_uninitialize_locale 0000000180026310 f   libucrt:wsetlocale.obj
 0001:00025340       __acrt_initialize_locks    0000000180026340 f   libucrt:locks.obj
 0001:00025388       __acrt_lock                0000000180026388 f   libucrt:locks.obj
 0001:000253a4       __acrt_uninitialize_locks  00000001800263a4 f   libucrt:locks.obj
 0001:000253dc       __acrt_unlock              00000001800263dc f   libucrt:locks.obj
 0001:000253f8       __acrt_get_developer_information_policy 00000001800263f8 f   libucrt:win_policies.obj
 0001:0002544c       __acrt_get_process_end_policy 000000018002644c f   libucrt:win_policies.obj
 0001:00025488       __acrt_get_windowing_model_policy 0000000180026488 f   libucrt:win_policies.obj
 0001:00025a58       __acrt_expand_narrow_argv_wildcards 0000000180026a58 f   libucrt:argv_wildcards.obj
 0001:000261a0       __acrt_initialize_multibyte 00000001800271a0 f   libucrt:mbctype.obj
 0001:00026200       __acrt_update_thread_multibyte_data 0000000180027200 f   libucrt:mbctype.obj
 0001:0002621c       _setmbcp_nolock            000000018002721c f   libucrt:mbctype.obj
 0001:00026554       _ismbblead                 0000000180027554 f   libucrt:ismbbyte.obj
 0001:00026568       __acrt_initialize_command_line 0000000180027568 f   libucrt:argv_data.obj
 0001:00026590       __dcrt_get_narrow_environment_from_os 0000000180027590 f   libucrt:get_environment_from_os.obj
 0001:00026694       _recalloc                  0000000180027694 f   libucrt:recalloc.obj
 0001:0002669c       _recalloc_base             000000018002769c f   libucrt:recalloc.obj
 0001:0002690c       __acrt_AppPolicyGetProcessTerminationMethodInternal 000000018002790c f   libucrt:winapi_thunks.obj
 0001:0002695c       __acrt_AppPolicyGetShowDeveloperDiagnosticInternal 000000018002795c f   libucrt:winapi_thunks.obj
 0001:000269ac       __acrt_AppPolicyGetWindowingModelInternal 00000001800279ac f   libucrt:winapi_thunks.obj
 0001:000269fc       __acrt_FlsAlloc            00000001800279fc f   libucrt:winapi_thunks.obj
 0001:00026a44       __acrt_FlsFree             0000000180027a44 f   libucrt:winapi_thunks.obj
 0001:00026a8c       __acrt_FlsGetValue         0000000180027a8c f   libucrt:winapi_thunks.obj
 0001:00026ad4       __acrt_FlsSetValue         0000000180027ad4 f   libucrt:winapi_thunks.obj
 0001:00026b28       __acrt_InitializeCriticalSectionEx 0000000180027b28 f   libucrt:winapi_thunks.obj
 0001:00026b8c       __acrt_LCMapStringEx       0000000180027b8c f   libucrt:winapi_thunks.obj
 0001:00026c68       __acrt_LocaleNameToLCID    0000000180027c68 f   libucrt:winapi_thunks.obj
 0001:00026cb8       __acrt_MessageBoxW         0000000180027cb8 f   libucrt:winapi_thunks.obj
 0001:00026d2c       __acrt_OutputDebugStringW  0000000180027d2c f   libucrt:winapi_thunks.obj
 0001:00026d34       __acrt_can_show_message_box 0000000180027d34 f   libucrt:winapi_thunks.obj
 0001:00026da4       __acrt_get_parent_window   0000000180027da4 f   libucrt:winapi_thunks.obj
 0001:00026e20       __acrt_initialize_winapi_thunks 0000000180027e20 f   libucrt:winapi_thunks.obj
 0001:00026e68       __acrt_is_interactive      0000000180027e68 f   libucrt:winapi_thunks.obj
 0001:00026f30       __acrt_uninitialize_winapi_thunks 0000000180027f30 f   libucrt:winapi_thunks.obj
 0001:00026f74       __acrt_initialize_heap     0000000180027f74 f   libucrt:heap_handle.obj
 0001:00026f90       __acrt_uninitialize_heap   0000000180027f90 f   libucrt:heap_handle.obj
 0001:00027184       __acrt_initialize_lowio    0000000180028184 f   libucrt:ioinit.obj
 0001:000271c0       __acrt_uninitialize_lowio  00000001800281c0 f   libucrt:ioinit.obj
 0001:00027200       __acrt_execute_initializers 0000000180028200 f   libucrt:shared_initialization.obj
 0001:00027280       __acrt_execute_uninitializers 0000000180028280 f   libucrt:shared_initialization.obj
 0001:000272bc       __acrt_has_user_matherr    00000001800282bc f   libucrt:matherr.obj
 0001:000272dc       __acrt_initialize_user_matherr 00000001800282dc f   libucrt:matherr.obj
 0001:000272e4       __acrt_invoke_user_matherr 00000001800282e4 f   libucrt:matherr.obj
 0001:00027314       __acrt_stdio_begin_temporary_buffering_nolock 0000000180028314 f   libucrt:_sftbuf.obj
 0001:000273e4       __acrt_stdio_end_temporary_buffering_nolock 00000001800283e4 f   libucrt:_sftbuf.obj
 0001:00027420       _query_new_mode            0000000180028420 f   libucrt:new_mode.obj
 0001:00027428       isdigit                    0000000180028428 f i libucrt:_ctype.obj
 0001:0002749c       wcstol                     000000018002849c f   libucrt:strtox.obj
 0001:000274c8       _mbtowc_l                  00000001800284c8 f   libucrt:mbtowc.obj
 0001:00027610       mbtowc                     0000000180028610 f   libucrt:mbtowc.obj
 0001:00027618       _wctomb_s_l                0000000180028618 f   libucrt:wctomb.obj
 0001:0002779c       wctomb_s                   000000018002879c f   libucrt:wctomb.obj
 0001:000277b0       wcsnlen                    00000001800287b0 f   libucrt:strnlen.obj
 0001:00028334       __acrt_fp_format           0000000180029334 f   libucrt:cvt.obj
 0001:000285bc       _fputwc_nolock             00000001800295bc f   libucrt:fputwc.obj
 0001:00028734       _fileno                    0000000180029734 f   libucrt:fileno.obj
 0001:0002875c       _fputc_nolock              000000018002975c f   libucrt:fputc.obj
 0001:00028774       _get_printf_count_output   0000000180029774 f   libucrt:printf_count_output.obj
 0001:0002878c       __pctype_func              000000018002978c f   libucrt:ctype.obj
 0001:000287bc       iswctype                   00000001800297bc f   libucrt:iswctype.obj
 0001:0002882c       _isctype_l                 000000018002982c f   libucrt:isctype.obj
 0001:0002893c       __acrt_add_locale_ref      000000018002993c f   libucrt:locale_refcounting.obj
 0001:000289c8       __acrt_free_locale         00000001800299c8 f   libucrt:locale_refcounting.obj
 0001:00028b40       __acrt_locale_add_lc_time_reference 0000000180029b40 f   libucrt:locale_refcounting.obj
 0001:00028b68       __acrt_locale_free_lc_time_if_unreferenced 0000000180029b68 f   libucrt:locale_refcounting.obj
 0001:00028ba0       __acrt_locale_release_lc_time_reference 0000000180029ba0 f   libucrt:locale_refcounting.obj
 0001:00028bc8       __acrt_release_locale_ref  0000000180029bc8 f   libucrt:locale_refcounting.obj
 0001:00028c70       __acrt_update_thread_locale_data 0000000180029c70 f   libucrt:locale_refcounting.obj
 0001:00028ce0       _updatetlocinfoEx_nolock   0000000180029ce0 f   libucrt:locale_refcounting.obj
 0001:00028d48       _fcloseall                 0000000180029d48 f   libucrt:closeall.obj
 0001:00028dfc       __acrt_stdio_free_buffer_nolock 0000000180029dfc f   libucrt:_freebuf.obj
 0001:00028ec8       _commit                    0000000180029ec8 f   libucrt:commit.obj
 0001:00029514       _write                     000000018002a514 f   libucrt:write.obj
 0001:00029600       _write_nolock              000000018002a600 f   libucrt:write.obj
 0001:00029944       _isleadbyte_l              000000018002a944 f i libucrt:_wctype.obj
 0001:00029c9c       __acrt_LCMapStringA        000000018002ac9c f   libucrt:lcmapstringa.obj
 0001:00029d34       __acrt_locale_free_monetary 000000018002ad34 f   libucrt:initmon.obj
 0001:00029e40       __acrt_locale_free_numeric 000000018002ae40 f   libucrt:initnum.obj
 0001:00029f00       __acrt_locale_free_time    000000018002af00 f   libucrt:inittime.obj
 0001:0002a008       __acrt_GetStringTypeA      000000018002b008 f   libucrt:getstringtypea.obj
 0001:0002a1a0       qsort                      000000018002b1a0 f   libucrt:qsort.obj
 0001:0002a550       strncpy_s                  000000018002b550 f   libucrt:strncpy_s.obj
 0001:0002a6d0       strpbrk                    000000018002b6d0 f   libucrt:strpbrk.obj
 0001:0002aab0       _mbsdec                    000000018002bab0 f   libucrt:mbsdec.obj
 0001:0002aab8       _mbsdec_l                  000000018002bab8 f   libucrt:mbsdec.obj
 0001:0002ab60       _msize                     000000018002bb60 f   libucrt:msize.obj
 0001:0002ab68       _msize_base                000000018002bb68 f   libucrt:msize.obj
 0001:0002aba4       _realloc_base              000000018002bba4 f   libucrt:realloc_base.obj
 0001:0002acec       __acrt_DownlevelLocaleNameToLCID 000000018002bcec f   libucrt:lcidtoname_downlevel.obj
 0001:0002ad20       __acrt_lowio_create_handle_array 000000018002bd20 f   libucrt:osfinfo.obj
 0001:0002adb8       __acrt_lowio_destroy_handle_array 000000018002bdb8 f   libucrt:osfinfo.obj
 0001:0002ae08       __acrt_lowio_ensure_fh_exists 000000018002be08 f   libucrt:osfinfo.obj
 0001:0002aeb0       __acrt_lowio_lock_fh       000000018002beb0 f   libucrt:osfinfo.obj
 0001:0002aed4       __acrt_lowio_unlock_fh     000000018002bed4 f   libucrt:osfinfo.obj
 0001:0002aef8       _free_osfhnd               000000018002bef8 f   libucrt:osfinfo.obj
 0001:0002afb4       _get_osfhandle             000000018002bfb4 f   libucrt:osfinfo.obj
 0001:0002b02c       _isatty                    000000018002c02c f   libucrt:isatty.obj
 0001:0002b08c       __acrt_MultiByteToWideChar 000000018002c08c f   libucrt:multibytetowidechar.obj
 0001:0002b094       __acrt_WideCharToMultiByte 000000018002c094 f   libucrt:widechartomultibyte.obj
 0001:0002b09c       __acrt_fp_strflt_to_string 000000018002c09c f   libucrt:_fptostr.obj
 0001:0002b160       ?divide@__crt_strtox@@YA_KAEAUbig_integer@1@AEBU21@@Z 000000018002c160 f i libucrt:cfout.obj
 0001:0002b5f4       __acrt_fltout              000000018002c5f4 f   libucrt:cfout.obj
 0001:0002cb94       __acrt_stdio_flush_and_write_narrow_nolock 000000018002db94 f   libucrt:_flsbuf.obj
 0001:0002cc7c       __acrt_stdio_flush_and_write_wide_nolock 000000018002dc7c f   libucrt:_flsbuf.obj
 0001:0002cd68       __acrt_GetStringTypeW      000000018002dd68 f   libucrt:getstringtypew.obj
 0001:0002cd70       _fclose_nolock             000000018002dd70 f   libucrt:fclose.obj
 0001:0002cdf4       fclose                     000000018002ddf4 f   libucrt:fclose.obj
 0001:0002cfe4       _lseeki64                  000000018002dfe4 f   libucrt:lseek.obj
 0001:0002cfec       _lseeki64_nolock           000000018002dfec f   libucrt:lseek.obj
 0001:0002cff4       _putwch_nolock             000000018002dff4 f   libucrt:putwch.obj
 0001:0002d030       __strncnt                  000000018002e030 f   libucrt:strncnt.obj
 0001:0002d048       fegetenv                   000000018002e048 f   libucrt:fegetenv.obj
 0001:0002d068       fesetenv                   000000018002e068 f   libucrt:fesetenv.obj
 0001:0002d0b8       feholdexcept               000000018002e0b8 f   libucrt:feholdexcept.obj
 0001:0002d108       ceil                       000000018002e108 f   libucrt:ceil.obj
 0001:0002d1d0       log10                      000000018002e1d0 f   libucrt:log10.obj
 0001:0002d77c       __acrt_stdio_allocate_buffer_nolock 000000018002e77c f   libucrt:_getbuf.obj
 0001:0002d854       _close                     000000018002e854 f   libucrt:close.obj
 0001:0002d8f8       _close_nolock              000000018002e8f8 f   libucrt:close.obj
 0001:0002d9b4       ?__acrt_stdio_free_stream@@YAXV__crt_stdio_stream@@@Z 000000018002e9b4 f   libucrt:stream.obj
 0001:0002d9d0       __dcrt_lowio_ensure_console_output_initialized 000000018002e9d0 f   libucrt:initcon.obj
 0001:0002da24       __dcrt_terminate_console_output 000000018002ea24 f   libucrt:initcon.obj
 0001:0002da40       __dcrt_write_console_w     000000018002ea40 f   libucrt:initcon.obj
 0001:0002db00       __acrt_fenv_get_control    000000018002eb00 f   libucrt:_fenvutils.obj
 0001:0002dc00       __acrt_fenv_get_status     000000018002ec00 f   libucrt:_fenvutils.obj
 0001:0002dc58       __acrt_fenv_set_control    000000018002ec58 f   libucrt:_fenvutils.obj
 0001:0002dda0       __acrt_fenv_set_status     000000018002eda0 f   libucrt:_fenvutils.obj
 0001:0002de24       _clearfp                   000000018002ee24 f   libucrt:ieee.obj
 0001:0002dfb8       _handle_error              000000018002efb8 f   libucrt:libm_error.obj
 0001:0002e0e0       _handle_nan                000000018002f0e0 f   libucrt:libm_error.obj
 0001:0002e100       __acrt_initialize_fma3     000000018002f100 f   libucrt:fma3_available.obj
 0001:0002e170       _log10_special             000000018002f170 f   libucrt:log_special.obj
 0001:0002e240       _get_fpsr                  000000018002f240 f   libucrt:fpsr.obj
 0001:0002e250       _set_fpsr                  000000018002f250 f   libucrt:fpsr.obj
 0001:0002e25a       _fclrf                     000000018002f25a f   libucrt:fpsr.obj
 0001:0002e26e       _frnd                      000000018002f26e f   libucrt:fpsr.obj
 0001:0002e290       _raise_exc                 000000018002f290 f   libucrt:fpexcept.obj
 0001:0002e2b8       _raise_exc_ex              000000018002f2b8 f   libucrt:fpexcept.obj
 0001:0002e5c0       _set_errno_from_matherr    000000018002f5c0 f   libucrt:fpexcept.obj
 0001:0002e5f0       _clrfp                     000000018002f5f0 f   libucrt:fpctrl.obj
 0001:0002e610       _ctrlfp                    000000018002f610 f   libucrt:fpctrl.obj
 0001:0002e68c       _set_statfp                000000018002f68c f   libucrt:fpctrl.obj
 0001:0002e6ac       _statfp                    000000018002f6ac f   libucrt:fpctrl.obj
 0001:0002e6bd       IsProcessorFeaturePresent  000000018002f6bd f   kernel32:KERNEL32.dll
 0001:0002e6c3       RtlUnwindEx                000000018002f6c3 f   kernel32:KERNEL32.dll
 0001:0002e6cc       ?DloadAcquireSectionWriteAccess@@YAXXZ 000000018002f6cc f i DelayImp:delayhlp.obj
 0001:0002e788       ?DloadGetSRWLockFunctionPointers@@YAEXZ 000000018002f788 f i DelayImp:delayhlp.obj
 0001:0002e824       ?DloadMakePermanentImageCommit@@YAXPEAX_K@Z 000000018002f824 f i DelayImp:delayhlp.obj
 0001:0002e8b8       ?DloadObtainSection@@YAPEAXPEAK0@Z 000000018002f8b8 f i DelayImp:delayhlp.obj
 0001:0002e94c       ?DloadProtectSection@@YAXKPEAK@Z 000000018002f94c f i DelayImp:delayhlp.obj
 0001:0002e9dc       ?DloadReleaseSectionWriteAccess@@YAXXZ 000000018002f9dc f i DelayImp:delayhlp.obj
 0001:0002ea80       __delayLoadHelper2         000000018002fa80 f   DelayImp:delayhlp.obj
 0001:0002ed7c       __GSHandlerCheck           000000018002fd7c f   LIBCMT:_gshandler_.obj
 0001:0002ed9c       __GSHandlerCheckCommon     000000018002fd9c f   LIBCMT:_gshandler_.obj
 0001:0002ee00       _FindPESection             000000018002fe00 f   LIBCMT:pesect.obj
 0001:0002ee50       _IsNonwritableInCurrentImage 000000018002fe50 f   LIBCMT:pesect.obj
 0001:0002eea0       _ValidateImageBase         000000018002fea0 f   LIBCMT:pesect.obj
 0001:0002eee0       _alloca_probe              000000018002fee0 f   LIBCMT:_chkstk_.obj
 0001:0002eee0       __chkstk                   000000018002fee0 f   LIBCMT:_chkstk_.obj
 0001:0002ef50       memcmp                     000000018002ff50 f   libvcruntime:memcmp.obj
 0001:0002f018       strrchr                    0000000180030018 f   libvcruntime:strrchr.obj
 0001:0002f158       __GSHandlerCheck_EH        0000000180030158 f   LIBCMT:gshandlereh.obj
 0001:0002f1f0       _guard_dispatch_icall_nop  00000001800301f0 f   LIBCMT:_guard_dispatch_.obj
 0001:0002f210       __guard_ss_verify_failure  0000000180030210 f   LIBCMT:_rfgfailure_.obj
 0001:0002f21b       __guard_ss_verify_failure_rcx 000000018003021b     LIBCMT:_rfgfailure_.obj
 0001:0002f221       __guard_ss_verify_failure_rdx 0000000180030221     LIBCMT:_rfgfailure_.obj
 0001:0002f227       __guard_ss_verify_failure_r8 0000000180030227     LIBCMT:_rfgfailure_.obj
 0001:0002f22d       __guard_ss_verify_failure_r9 000000018003022d     LIBCMT:_rfgfailure_.obj
 0001:0002f233       __guard_ss_verify_failure_r10 0000000180030233     LIBCMT:_rfgfailure_.obj
 0001:0002f240       __guard_ss_verify_failure_default 0000000180030240 f   LIBCMT:_rfgfailure_.obj
 0001:0002f2a0       __guard_ss_verify_sp       00000001800302a0 f   LIBCMT:_rfgfailure_.obj
 0001:0002f2b0       __guard_ss_verify_sp_default 00000001800302b0 f   LIBCMT:_rfgfailure_.obj
 0001:00031fc0       ??__Fmy_constructor@?1??constructor@WKey@@KAAEAV?$Persistent@VFunction@v8@@V?$NonCopyablePersistentTraits@VFunction@v8@@@2@@Nan@@XZ@YAXXZ 0000000180032fc0 f i w_key.obj
 0001:00031fe0       ??__Fmy_constructor@?1??constructor@WAes@@KAAEAV?$Persistent@VFunction@v8@@V?$NonCopyablePersistentTraits@VFunction@v8@@@2@@Nan@@XZ@YAXXZ 0000000180032fe0 f i w_aes.obj
 0001:00032000       ??__Fmy_constructor@?1??constructor@WHmac@@KAAEAV?$Persistent@VFunction@v8@@V?$NonCopyablePersistentTraits@VFunction@v8@@@2@@Nan@@XZ@YAXXZ 0000000180033000 f i w_hmac.obj
 0001:00032020       ??__Fmy_constructor@?1??constructor@WPbkdf2@@KAAEAV?$Persistent@VFunction@v8@@V?$NonCopyablePersistentTraits@VFunction@v8@@@2@@Nan@@XZ@YAXXZ 0000000180033020 f i w_pbkdf2.obj
 0001:00032040       ??__Fmy_constructor@?1??constructor@WCore@@KAAEAV?$Persistent@VFunction@v8@@V?$NonCopyablePersistentTraits@VFunction@v8@@@2@@Nan@@XZ@YAXXZ 0000000180033040 f i w_core.obj
 0002:00000000       __imp_GetModuleHandleA     0000000180034000     kernel32:KERNEL32.dll
 0002:00000008       __imp_VirtualQuery         0000000180034008     kernel32:KERNEL32.dll
 0002:00000010       __imp_CloseHandle          0000000180034010     kernel32:KERNEL32.dll
 0002:00000018       __imp_EnterCriticalSection 0000000180034018     kernel32:KERNEL32.dll
 0002:00000020       __imp_LeaveCriticalSection 0000000180034020     kernel32:KERNEL32.dll
 0002:00000028       __imp_DeleteCriticalSection 0000000180034028     kernel32:KERNEL32.dll
 0002:00000030       __imp_SetEvent             0000000180034030     kernel32:KERNEL32.dll
 0002:00000038       __imp_ResetEvent           0000000180034038     kernel32:KERNEL32.dll
 0002:00000040       __imp_WaitForSingleObjectEx 0000000180034040     kernel32:KERNEL32.dll
 0002:00000048       __imp_CreateEventW         0000000180034048     kernel32:KERNEL32.dll
 0002:00000050       __imp_GetModuleHandleW     0000000180034050     kernel32:KERNEL32.dll
 0002:00000058       __imp_GetProcAddress       0000000180034058     kernel32:KERNEL32.dll
 0002:00000060       __imp_RtlCaptureContext    0000000180034060     kernel32:KERNEL32.dll
 0002:00000068       __imp_RtlLookupFunctionEntry 0000000180034068     kernel32:KERNEL32.dll
 0002:00000070       __imp_RtlVirtualUnwind     0000000180034070     kernel32:KERNEL32.dll
 0002:00000078       __imp_UnhandledExceptionFilter 0000000180034078     kernel32:KERNEL32.dll
 0002:00000080       __imp_SetUnhandledExceptionFilter 0000000180034080     kernel32:KERNEL32.dll
 0002:00000088       __imp_GetCurrentProcess    0000000180034088     kernel32:KERNEL32.dll
 0002:00000090       __imp_TerminateProcess     0000000180034090     kernel32:KERNEL32.dll
 0002:00000098       __imp_IsProcessorFeaturePresent 0000000180034098     kernel32:KERNEL32.dll
 0002:000000a0       __imp_IsDebuggerPresent    00000001800340a0     kernel32:KERNEL32.dll
 0002:000000a8       __imp_GetStartupInfoW      00000001800340a8     kernel32:KERNEL32.dll
 0002:000000b0       __imp_QueryPerformanceCounter 00000001800340b0     kernel32:KERNEL32.dll
 0002:000000b8       __imp_GetCurrentProcessId  00000001800340b8     kernel32:KERNEL32.dll
 0002:000000c0       __imp_GetCurrentThreadId   00000001800340c0     kernel32:KERNEL32.dll
 0002:000000c8       __imp_GetSystemTimeAsFileTime 00000001800340c8     kernel32:KERNEL32.dll
 0002:000000d0       __imp_InitializeSListHead  00000001800340d0     kernel32:KERNEL32.dll
 0002:000000d8       __imp_RtlUnwindEx          00000001800340d8     kernel32:KERNEL32.dll
 0002:000000e0       __imp_RtlPcToFileHeader    00000001800340e0     kernel32:KERNEL32.dll
 0002:000000e8       __imp_RaiseException       00000001800340e8     kernel32:KERNEL32.dll
 0002:000000f0       __imp_GetLastError         00000001800340f0     kernel32:KERNEL32.dll
 0002:000000f8       __imp_InitializeCriticalSectionAndSpinCount 00000001800340f8     kernel32:KERNEL32.dll
 0002:00000100       __imp_TlsAlloc             0000000180034100     kernel32:KERNEL32.dll
 0002:00000108       __imp_TlsGetValue          0000000180034108     kernel32:KERNEL32.dll
 0002:00000110       __imp_TlsSetValue          0000000180034110     kernel32:KERNEL32.dll
 0002:00000118       __imp_TlsFree              0000000180034118     kernel32:KERNEL32.dll
 0002:00000120       __imp_FreeLibrary          0000000180034120     kernel32:KERNEL32.dll
 0002:00000128       __imp_LoadLibraryExW       0000000180034128     kernel32:KERNEL32.dll
 0002:00000130       __imp_InterlockedFlushSList 0000000180034130     kernel32:KERNEL32.dll
 0002:00000138       __imp_SetLastError         0000000180034138     kernel32:KERNEL32.dll
 0002:00000140       __imp_EncodePointer        0000000180034140     kernel32:KERNEL32.dll
 0002:00000148       __imp_GetStdHandle         0000000180034148     kernel32:KERNEL32.dll
 0002:00000150       __imp_GetFileType          0000000180034150     kernel32:KERNEL32.dll
 0002:00000158       __imp_GetModuleFileNameA   0000000180034158     kernel32:KERNEL32.dll
 0002:00000160       __imp_GetModuleFileNameW   0000000180034160     kernel32:KERNEL32.dll
 0002:00000168       __imp_GetModuleHandleExW   0000000180034168     kernel32:KERNEL32.dll
 0002:00000170       __imp_WriteConsoleW        0000000180034170     kernel32:KERNEL32.dll
 0002:00000178       __imp_ExitProcess          0000000180034178     kernel32:KERNEL32.dll
 0002:00000180       __imp_MultiByteToWideChar  0000000180034180     kernel32:KERNEL32.dll
 0002:00000188       __imp_WideCharToMultiByte  0000000180034188     kernel32:KERNEL32.dll
 0002:00000190       __imp_HeapFree             0000000180034190     kernel32:KERNEL32.dll
 0002:00000198       __imp_HeapAlloc            0000000180034198     kernel32:KERNEL32.dll
 0002:000001a0       __imp_WriteFile            00000001800341a0     kernel32:KERNEL32.dll
 0002:000001a8       __imp_GetACP               00000001800341a8     kernel32:KERNEL32.dll
 0002:000001b0       __imp_FindClose            00000001800341b0     kernel32:KERNEL32.dll
 0002:000001b8       __imp_FindFirstFileExA     00000001800341b8     kernel32:KERNEL32.dll
 0002:000001c0       __imp_FindNextFileA        00000001800341c0     kernel32:KERNEL32.dll
 0002:000001c8       __imp_IsValidCodePage      00000001800341c8     kernel32:KERNEL32.dll
 0002:000001d0       __imp_GetOEMCP             00000001800341d0     kernel32:KERNEL32.dll
 0002:000001d8       __imp_GetCPInfo            00000001800341d8     kernel32:KERNEL32.dll
 0002:000001e0       __imp_GetCommandLineA      00000001800341e0     kernel32:KERNEL32.dll
 0002:000001e8       __imp_GetCommandLineW      00000001800341e8     kernel32:KERNEL32.dll
 0002:000001f0       __imp_GetEnvironmentStringsW 00000001800341f0     kernel32:KERNEL32.dll
 0002:000001f8       __imp_FreeEnvironmentStringsW 00000001800341f8     kernel32:KERNEL32.dll
 0002:00000200       __imp_OutputDebugStringW   0000000180034200     kernel32:KERNEL32.dll
 0002:00000208       __imp_LCMapStringW         0000000180034208     kernel32:KERNEL32.dll
 0002:00000210       __imp_GetProcessHeap       0000000180034210     kernel32:KERNEL32.dll
 0002:00000218       __imp_FlushFileBuffers     0000000180034218     kernel32:KERNEL32.dll
 0002:00000220       __imp_GetConsoleCP         0000000180034220     kernel32:KERNEL32.dll
 0002:00000228       __imp_GetConsoleMode       0000000180034228     kernel32:KERNEL32.dll
 0002:00000230       __imp_GetStringTypeW       0000000180034230     kernel32:KERNEL32.dll
 0002:00000238       __imp_HeapSize             0000000180034238     kernel32:KERNEL32.dll
 0002:00000240       __imp_HeapReAlloc          0000000180034240     kernel32:KERNEL32.dll
 0002:00000248       __imp_SetStdHandle         0000000180034248     kernel32:KERNEL32.dll
 0002:00000250       __imp_SetFilePointerEx     0000000180034250     kernel32:KERNEL32.dll
 0002:00000258       __imp_CreateFileW          0000000180034258     kernel32:KERNEL32.dll
 0002:00000260       __imp_GetSystemInfo        0000000180034260     kernel32:KERNEL32.dll
 0002:00000268       __imp_VirtualProtect       0000000180034268     kernel32:KERNEL32.dll
 0002:00000270       __imp_LoadLibraryExA       0000000180034270     kernel32:KERNEL32.dll
 0002:00000278       \177KERNEL32_NULL_THUNK_DATA 0000000180034278     kernel32:KERNEL32.dll
 0002:00000280       __guard_check_icall_fptr   0000000180034280     LIBCMT:guard_support.obj
 0002:00000288       __guard_dispatch_icall_fptr 0000000180034288     LIBCMT:guard_support.obj
 0002:00000290       __guard_ss_verify_failure_fptr 0000000180034290     LIBCMT:guard_support.obj
 0002:00000298       __guard_ss_verify_sp_fptr  0000000180034298     LIBCMT:guard_support.obj
 0002:000002a0       __xc_a                     00000001800342a0     LIBCMT:initializers.obj
 0002:000002a8       _register_nodessl_         00000001800342a8     main.obj
 0002:000002b0       __xc_z                     00000001800342b0     LIBCMT:initializers.obj
 0002:000002b8       __xi_a                     00000001800342b8     LIBCMT:initializers.obj
 0002:000002c8       __acrt_stdio_initializer   00000001800342c8     libucrt:stdio_initializer.obj
 0002:000002d0       __acrt_multibyte_initializer 00000001800342d0     libucrt:multibyte_initializer.obj
 0002:000002d8       __acrt_tran_fma3_initializer 00000001800342d8     libucrt:fma3_initializer.obj
 0002:000002e0       __xi_z                     00000001800342e0     LIBCMT:initializers.obj
 0002:000002e8       __xl_a                     00000001800342e8     LIBCMT:tlssup.obj
 0002:000002f0       __xl_z                     00000001800342f0     LIBCMT:tlssup.obj
 0002:000002f8       __xp_a                     00000001800342f8     LIBCMT:initializers.obj
 0002:00000300       __acrt_locale_terminator   0000000180034300     libucrt:locale_initializer.obj
 0002:00000308       __dcrt_console_output_terminator 0000000180034308     libucrt:console_output_initializer.obj
 0002:00000310       __acrt_stdio_terminator    0000000180034310     libucrt:stdio_initializer.obj
 0002:00000318       __xp_z                     0000000180034318     LIBCMT:initializers.obj
 0002:00000320       __xt_a                     0000000180034320     LIBCMT:initializers.obj
 0002:00000328       __xt_z                     0000000180034328     LIBCMT:initializers.obj
 0002:00000330       __sz_node_exe              0000000180034330     node:node.exe
 0002:00000348       ??_7exception@std@@6B@     0000000180034348     libcpmt:xthrow.obj
 0002:00000358       ??_C@_0BC@EOODALEL@Unknown?5exception?$AA@ 0000000180034358     libcpmt:xthrow.obj
 0002:00000378       ??_7bad_alloc@std@@6B@     0000000180034378     libcpmt:xthrow.obj
 0002:00000388       ??_C@_0P@GHFPNOJB@bad?5allocation?$AA@ 0000000180034388     libcpmt:xthrow.obj
 0002:000003a0       ??_7logic_error@std@@6B@   00000001800343a0     libcpmt:xthrow.obj
 0002:000003b8       ??_7length_error@std@@6B@  00000001800343b8     libcpmt:xthrow.obj
 0002:000003d0       ??_7out_of_range@std@@6B@  00000001800343d0     libcpmt:xthrow.obj
 0002:000003e8       ??_7runtime_error@std@@6B@ 00000001800343e8     libcpmt:xthrow.obj
 0002:00000400       ??_7type_info@@6B@         0000000180034400     LIBCMT:std_type_info_static.obj
 0002:00000410       ??_C@_1EC@JIJBPKFM@?$AAa?$AAp?$AAi?$AA?9?$AAm?$AAs?$AA?9?$AAw?$AAi?$AAn?$AA?9?$AAc?$AAo?$AAr?$AAe?$AA?9?$AAs?$AAy?$AAn?$AAc?$AAh?$AA?9?$AAl?$AA1?$AA?9?$AA2?$AA?9?$AA0?$AA?4?$AAd?$AAl?$AAl@ 0000000180034410     LIBCMT:thread_safe_statics.obj
 0002:00000458       ??_C@_1BK@MGMFAEKH@?$AAk?$AAe?$AAr?$AAn?$AAe?$AAl?$AA3?$AA2?$AA?4?$AAd?$AAl?$AAl?$AA?$AA@ 0000000180034458     LIBCMT:thread_safe_statics.obj
 0002:00000478       ??_C@_0BM@HLJJNPAH@InitializeConditionVariable?$AA@ 0000000180034478     LIBCMT:thread_safe_statics.obj
 0002:00000498       ??_C@_0BJ@JEBJOJFJ@SleepConditionVariableCS?$AA@ 0000000180034498     LIBCMT:thread_safe_statics.obj
 0002:000004b8       ??_C@_0BJ@PGPPEPCC@WakeAllConditionVariable?$AA@ 00000001800344b8     LIBCMT:thread_safe_statics.obj
 0002:000004d8       _pRawDllMain               00000001800344d8     LIBCMT:dll_dllmain.obj
 0002:000004d8       _pDefaultRawDllMain        00000001800344d8     LIBCMT:dll_dllmain.obj
 0002:000004f8       ??_7bad_array_new_length@std@@6B@ 00000001800344f8     LIBCMT:throw_bad_alloc.obj
 0002:00000508       ??_C@_0BF@KINCDENJ@bad?5array?5new?5length?$AA@ 0000000180034508     LIBCMT:throw_bad_alloc.obj
 0002:000005b8       _pDestructExceptionObject  00000001800345b8     libvcruntime:ehhelpers.obj
 0002:00000618       ??_C@_1DM@KHCHBNEB@?$AAa?$AAp?$AAi?$AA?9?$AAm?$AAs?$AA?9?$AAw?$AAi?$AAn?$AA?9?$AAc?$AAo?$AAr?$AAe?$AA?9?$AAf?$AAi?$AAb?$AAe?$AAr?$AAs?$AA?9?$AAl?$AA1?$AA?9?$AA1?$AA?9?$AA1?$AA?$AA@ 0000000180034618     libvcruntime:winapi_downlevel.obj
 0002:00000658       ??_C@_1DK@LPPGFMPP@?$AAa?$AAp?$AAi?$AA?9?$AAm?$AAs?$AA?9?$AAw?$AAi?$AAn?$AA?9?$AAc?$AAo?$AAr?$AAe?$AA?9?$AAs?$AAy?$AAn?$AAc?$AAh?$AA?9?$AAl?$AA1?$AA?9?$AA2?$AA?9?$AA0?$AA?$AA@ 0000000180034658     libvcruntime:winapi_downlevel.obj
 0002:00000698       ??_C@_1BC@GDMECMAK@?$AAk?$AAe?$AAr?$AAn?$AAe?$AAl?$AA3?$AA2?$AA?$AA@ 0000000180034698     libvcruntime:winapi_downlevel.obj
 0002:000006b0       ??_C@_1BA@PFFKHIOG@?$AAa?$AAp?$AAi?$AA?9?$AAm?$AAs?$AA?9?$AA?$AA@ 00000001800346b0     libvcruntime:winapi_downlevel.obj
 0002:000006c0       ??_C@_1BA@IAIFMGEF@?$AAe?$AAx?$AAt?$AA?9?$AAm?$AAs?$AA?9?$AA?$AA@ 00000001800346c0     libvcruntime:winapi_downlevel.obj
 0002:000006d8       ??_C@_08KNHFBNJ@FlsAlloc?$AA@ 00000001800346d8     libvcruntime:winapi_downlevel.obj
 0002:000006f0       ??_C@_07PEJMOBNF@FlsFree?$AA@ 00000001800346f0     libvcruntime:winapi_downlevel.obj
 0002:00000700       ??_C@_0M@GDNOONDI@FlsGetValue?$AA@ 0000000180034700     libvcruntime:winapi_downlevel.obj
 0002:00000718       ??_C@_0M@JCPCPOEF@FlsSetValue?$AA@ 0000000180034718     libvcruntime:winapi_downlevel.obj
 0002:00000730       ??_C@_0BM@HCFOFFN@InitializeCriticalSectionEx?$AA@ 0000000180034730     libvcruntime:winapi_downlevel.obj
 0002:00000758       ??_7bad_exception@std@@6B@ 0000000180034758     libvcruntime:frame.obj
 0002:00000768       ??_C@_0O@DPKOEFFH@bad?5exception?$AA@ 0000000180034768     libvcruntime:frame.obj
 0002:00000aa8       ??_C@_08EHJDFFNH@__based?$CI?$AA@ 0000000180034aa8     libvcruntime:undname.obj
 0002:00000ab8       ??_C@_07KOLFKCDI@__cdecl?$AA@ 0000000180034ab8     libvcruntime:undname.obj
 0002:00000ac0       ??_C@_08GHMPAG@__pascal?$AA@ 0000000180034ac0     libvcruntime:undname.obj
 0002:00000ad0       ??_C@_09IFJBGAPI@__stdcall?$AA@ 0000000180034ad0     libvcruntime:undname.obj
 0002:00000ae0       ??_C@_0L@NPHFGOKO@__thiscall?$AA@ 0000000180034ae0     libvcruntime:undname.obj
 0002:00000af0       ??_C@_0L@JMKHOMEK@__fastcall?$AA@ 0000000180034af0     libvcruntime:undname.obj
 0002:00000b00       ??_C@_0N@BCKKPABJ@__vectorcall?$AA@ 0000000180034b00     libvcruntime:undname.obj
 0002:00000b10       ??_C@_09HIJEGCPM@__clrcall?$AA@ 0000000180034b10     libvcruntime:undname.obj
 0002:00000b1c       ??_C@_06GHPCKEAG@__eabi?$AA@ 0000000180034b1c     libvcruntime:undname.obj
 0002:00000b28       ??_C@_07JOMMBBKO@__ptr64?$AA@ 0000000180034b28     libvcruntime:undname.obj
 0002:00000b30       ??_C@_0L@PILCLIHE@__restrict?$AA@ 0000000180034b30     libvcruntime:undname.obj
 0002:00000b40       ??_C@_0M@GFIIJFMG@__unaligned?$AA@ 0000000180034b40     libvcruntime:undname.obj
 0002:00000b50       ??_C@_09DHDLOLLB@restrict?$CI?$AA@ 0000000180034b50     libvcruntime:undname.obj
 0002:00000b5c       ??_C@_04NIHEBCM@?5new?$AA@ 0000000180034b5c     libvcruntime:undname.obj
 0002:00000b68       ??_C@_07FPCDHGMM@?5delete?$AA@ 0000000180034b68     libvcruntime:undname.obj
 0002:00000b70       ??_C@_01NEMOKFLO@?$DN?$AA@ 0000000180034b70     libvcruntime:undname.obj
 0002:00000b74       ??_C@_02GPIOPFAK@?$DO?$DO?$AA@ 0000000180034b74     libvcruntime:undname.obj
 0002:00000b78       ??_C@_02FODMEDOG@?$DM?$DM?$AA@ 0000000180034b78     libvcruntime:undname.obj
 0002:00000b7c       ??_C@_01DCLJPIOD@?$CB?$AA@ 0000000180034b7c     libvcruntime:undname.obj
 0002:00000b80       ??_C@_02EGOFBIJA@?$DN?$DN?$AA@ 0000000180034b80     libvcruntime:undname.obj
 0002:00000b84       ??_C@_02FDNJECIE@?$CB?$DN?$AA@ 0000000180034b84     libvcruntime:undname.obj
 0002:00000b88       ??_C@_02GPECMEKF@?$FL?$FN?$AA@ 0000000180034b88     libvcruntime:undname.obj
 0002:00000b90       ??_C@_08LHJFAFGD@operator?$AA@ 0000000180034b90     libvcruntime:undname.obj
 0002:00000b9c       ??_C@_02HBOOOICD@?9?$DO?$AA@ 0000000180034b9c     libvcruntime:undname.obj
 0002:00000ba0       ??_C@_01NBENCBCI@?$CK?$AA@ 0000000180034ba0     libvcruntime:undname.obj
 0002:00000ba4       ??_C@_02ECNGHCIF@?$CL?$CL?$AA@ 0000000180034ba4     libvcruntime:undname.obj
 0002:00000ba8       ??_C@_02BAABKJLB@?9?9?$AA@ 0000000180034ba8     libvcruntime:undname.obj
 0002:00000bac       ??_C@_01JOAMLHOP@?9?$AA@   0000000180034bac     libvcruntime:undname.obj
 0002:00000bb0       ??_C@_01MIFGBAGJ@?$CL?$AA@ 0000000180034bb0     libvcruntime:undname.obj
 0002:00000bb4       ??_C@_01HNPIGOCE@?$CG?$AA@ 0000000180034bb4     libvcruntime:undname.obj
 0002:00000bb8       ??_C@_03MNHNFDLC@?9?$DO?$CK?$AA@ 0000000180034bb8     libvcruntime:undname.obj
 0002:00000bbc       ??_C@_01KMDKNFGN@?1?$AA@   0000000180034bbc     libvcruntime:undname.obj
 0002:00000bc0       ??_C@_01FGNFDNOH@?$CF?$AA@ 0000000180034bc0     libvcruntime:undname.obj
 0002:00000bc4       ??_C@_01MNNFJEPP@?$DM?$AA@ 0000000180034bc4     libvcruntime:undname.obj
 0002:00000bc8       ??_C@_02EHCHHCKH@?$DM?$DN?$AA@ 0000000180034bc8     libvcruntime:undname.obj
 0002:00000bcc       ??_C@_01PPODPGHN@?$DO?$AA@ 0000000180034bcc     libvcruntime:undname.obj
 0002:00000bd0       ??_C@_02EEKDKGMJ@?$DO?$DN?$AA@ 0000000180034bd0     libvcruntime:undname.obj
 0002:00000bd4       ??_C@_01IHBHIGKO@?0?$AA@   0000000180034bd4     libvcruntime:undname.obj
 0002:00000bd8       ??_C@_02HCKGKOFO@?$CI?$CJ?$AA@ 0000000180034bd8     libvcruntime:undname.obj
 0002:00000bdc       ??_C@_01PJKLJHI@?$HO?$AA@  0000000180034bdc     libvcruntime:undname.obj
 0002:00000be0       ??_C@_01JKBOJNNK@?$FO?$AA@ 0000000180034be0     libvcruntime:undname.obj
 0002:00000be4       ??_C@_01DNKMNLPK@?$HM?$AA@ 0000000180034be4     libvcruntime:undname.obj
 0002:00000be8       ??_C@_02PPKAJPJL@?$CG?$CG?$AA@ 0000000180034be8     libvcruntime:undname.obj
 0002:00000bec       ??_C@_02NONPIBCD@?$HM?$HM?$AA@ 0000000180034bec     libvcruntime:undname.obj
 0002:00000bf0       ??_C@_02FPIMKNGF@?$CK?$DN?$AA@ 0000000180034bf0     libvcruntime:undname.obj
 0002:00000bf4       ??_C@_02FOEOMHFC@?$CL?$DN?$AA@ 0000000180034bf4     libvcruntime:undname.obj
 0002:00000bf8       ??_C@_02FKMDLLOA@?9?$DN?$AA@ 0000000180034bf8     libvcruntime:undname.obj
 0002:00000bfc       ??_C@_02FJEHGPIO@?1?$DN?$AA@ 0000000180034bfc     libvcruntime:undname.obj
 0002:00000c00       ??_C@_02FENAOKFI@?$CF?$DN?$AA@ 0000000180034c00     libvcruntime:undname.obj
 0002:00000c04       ??_C@_03IKFCCPFF@?$DO?$DO?$DN?$AA@ 0000000180034c04     libvcruntime:undname.obj
 0002:00000c08       ??_C@_03CDNPDDLA@?$DM?$DM?$DN?$AA@ 0000000180034c08     libvcruntime:undname.obj
 0002:00000c0c       ??_C@_02FGJGFEAB@?$CG?$DN?$AA@ 0000000180034c0c     libvcruntime:undname.obj
 0002:00000c10       ??_C@_02DHLNPPGH@?$HM?$DN?$AA@ 0000000180034c10     libvcruntime:undname.obj
 0002:00000c14       ??_C@_02MHEGNOJ@?$FO?$DN?$AA@ 0000000180034c14     libvcruntime:undname.obj
 0002:00000c18       ??_C@_09IFPLHPGF@?$GAvftable?8?$AA@ 0000000180034c18     libvcruntime:undname.obj
 0002:00000c28       ??_C@_09BLBHBJP@?$GAvbtable?8?$AA@ 0000000180034c28     libvcruntime:undname.obj
 0002:00000c38       ??_C@_07FEEIOKP@?$GAvcall?8?$AA@ 0000000180034c38     libvcruntime:undname.obj
 0002:00000c40       ??_C@_08LLFFHHDJ@?$GAtypeof?8?$AA@ 0000000180034c40     libvcruntime:undname.obj
 0002:00000c50       ??_C@_0BF@KDPPACIK@?$GAlocal?5static?5guard?8?$AA@ 0000000180034c50     libvcruntime:undname.obj
 0002:00000c68       ??_C@_08OBABFOLI@?$GAstring?8?$AA@ 0000000180034c68     libvcruntime:undname.obj
 0002:00000c78       ??_C@_0BD@JDLKDPAB@?$GAvbase?5destructor?8?$AA@ 0000000180034c78     libvcruntime:undname.obj
 0002:00000c90       ??_C@_0BN@DEGPLNFK@?$GAvector?5deleting?5destructor?8?$AA@ 0000000180034c90     libvcruntime:undname.obj
 0002:00000cb0       ??_C@_0BO@OBMKPJIG@?$GAdefault?5constructor?5closure?8?$AA@ 0000000180034cb0     libvcruntime:undname.obj
 0002:00000cd0       ??_C@_0BN@IMDCHIKM@?$GAscalar?5deleting?5destructor?8?$AA@ 0000000180034cd0     libvcruntime:undname.obj
 0002:00000cf0       ??_C@_0BO@PFGOCPJJ@?$GAvector?5constructor?5iterator?8?$AA@ 0000000180034cf0     libvcruntime:undname.obj
 0002:00000d10       ??_C@_0BN@LFPFMEDL@?$GAvector?5destructor?5iterator?8?$AA@ 0000000180034d10     libvcruntime:undname.obj
 0002:00000d30       ??_C@_0CE@IKBNEHA@?$GAvector?5vbase?5constructor?5iterat@ 0000000180034d30     libvcruntime:undname.obj
 0002:00000d58       ??_C@_0BL@NILFHHPC@?$GAvirtual?5displacement?5map?8?$AA@ 0000000180034d58     libvcruntime:undname.obj
 0002:00000d78       ??_C@_0CB@JONCMFFK@?$GAeh?5vector?5constructor?5iterator?8@ 0000000180034d78     libvcruntime:undname.obj
 0002:00000da0       ??_C@_0CA@GCEOPDGL@?$GAeh?5vector?5destructor?5iterator?8?$AA@ 0000000180034da0     libvcruntime:undname.obj
 0002:00000dc0       ??_C@_0CH@OOJPLCPH@?$GAeh?5vector?5vbase?5constructor?5ite@ 0000000180034dc0     libvcruntime:undname.obj
 0002:00000de8       ??_C@_0BL@LLKPOHJI@?$GAcopy?5constructor?5closure?8?$AA@ 0000000180034de8     libvcruntime:undname.obj
 0002:00000e08       ??_C@_0BA@KBCDOMBN@?$GAudt?5returning?8?$AA@ 0000000180034e08     libvcruntime:undname.obj
 0002:00000e18       ??_C@_03KLGMFNMG@?$GAEH?$AA@ 0000000180034e18     libvcruntime:undname.obj
 0002:00000e1c       ??_C@_05KHLCHHI@?$GARTTI?$AA@ 0000000180034e1c     libvcruntime:undname.obj
 0002:00000e28       ??_C@_0BA@KKLDJDLB@?$GAlocal?5vftable?8?$AA@ 0000000180034e28     libvcruntime:undname.obj
 0002:00000e38       ??_C@_0CE@IIHCMGGL@?$GAlocal?5vftable?5constructor?5closu@ 0000000180034e38     libvcruntime:undname.obj
 0002:00000e5c       ??_C@_06FHBGPFGH@?5new?$FL?$FN?$AA@ 0000000180034e5c     libvcruntime:undname.obj
 0002:00000e68       ??_C@_09LBNFPBCA@?5delete?$FL?$FN?$AA@ 0000000180034e68     libvcruntime:undname.obj
 0002:00000e78       ??_C@_0P@HJKNJFNN@?$GAomni?5callsig?8?$AA@ 0000000180034e78     libvcruntime:undname.obj
 0002:00000e88       ??_C@_0BL@CNOONJFP@?$GAplacement?5delete?5closure?8?$AA@ 0000000180034e88     libvcruntime:undname.obj
 0002:00000ea8       ??_C@_0BN@CKNJLHMB@?$GAplacement?5delete?$FL?$FN?5closure?8?$AA@ 0000000180034ea8     libvcruntime:undname.obj
 0002:00000ec8       ??_C@_0CG@CFDHKGGD@?$GAmanaged?5vector?5constructor?5iter@ 0000000180034ec8     libvcruntime:undname.obj
 0002:00000ef0       ??_C@_0CF@IMGKMJNO@?$GAmanaged?5vector?5destructor?5itera@ 0000000180034ef0     libvcruntime:undname.obj
 0002:00000f18       ??_C@_0CG@HLDDJMAG@?$GAeh?5vector?5copy?5constructor?5iter@ 0000000180034f18     libvcruntime:undname.obj
 0002:00000f40       ??_C@_0CM@FCBBDIGB@?$GAeh?5vector?5vbase?5copy?5constructo@ 0000000180034f40     libvcruntime:undname.obj
 0002:00000f70       ??_C@_0BL@CLIPGLGB@?$GAdynamic?5initializer?5for?5?8?$AA@ 0000000180034f70     libvcruntime:undname.obj
 0002:00000f90       ??_C@_0CB@PDBIFEP@?$GAdynamic?5atexit?5destructor?5for?5?8@ 0000000180034f90     libvcruntime:undname.obj
 0002:00000fb8       ??_C@_0CD@CGAJBKEJ@?$GAvector?5copy?5constructor?5iterato@ 0000000180034fb8     libvcruntime:undname.obj
 0002:00000fe0       ??_C@_0CJ@GJELGAMM@?$GAvector?5vbase?5copy?5constructor?5i@ 0000000180034fe0     libvcruntime:undname.obj
 0002:00001010       ??_C@_0CL@FGIJHLCE@?$GAmanaged?5vector?5copy?5constructor@ 0000000180035010     libvcruntime:undname.obj
 0002:00001040       ??_C@_0BM@PMGGMLDN@?$GAlocal?5static?5thread?5guard?8?$AA@ 0000000180035040     libvcruntime:undname.obj
 0002:00001060       ??_C@_0N@BDNMDMOL@operator?5?$CC?$CC?5?$AA@ 0000000180035060     libvcruntime:undname.obj
 0002:00001070       ??_C@_0BC@GGEBGALA@operator?5co_await?$AA@ 0000000180035070     libvcruntime:undname.obj
 0002:00001088       ??_C@_0BC@DAFEJGAK@?5Type?5Descriptor?8?$AA@ 0000000180035088     libvcruntime:undname.obj
 0002:000010a0       ??_C@_0BM@LDKODKLH@?5Base?5Class?5Descriptor?5at?5?$CI?$AA@ 00000001800350a0     libvcruntime:undname.obj
 0002:000010c0       ??_C@_0BD@LGICGFMM@?5Base?5Class?5Array?8?$AA@ 00000001800350c0     libvcruntime:undname.obj
 0002:000010d8       ??_C@_0BN@MECKDCOJ@?5Class?5Hierarchy?5Descriptor?8?$AA@ 00000001800350d8     libvcruntime:undname.obj
 0002:000010f8       ??_C@_0BK@CFCOFLF@?5Complete?5Object?5Locator?8?$AA@ 00000001800350f8     libvcruntime:undname.obj
 0002:00001120       ??_C@_1FE@LHBLIKM@?$AAA?$AAs?$AAs?$AAe?$AAr?$AAt?$AAi?$AAo?$AAn?$AA?5?$AAf?$AAa?$AAi?$AAl?$AAe?$AAd?$AA?3?$AA?5?$AA?$CF?$AAT?$AAs?$AA?0?$AA?5?$AAf?$AAi?$AAl?$AAe?$AA?5?$AA?$CF?$AAT?$AAs?$AA?0@ 0000000180035120     libucrt:assert.obj
 0002:00001180       ??_C@_1EK@MBDPDCGA@?$AAM?$AAi?$AAc?$AAr?$AAo?$AAs?$AAo?$AAf?$AAt?$AA?5?$AAV?$AAi?$AAs?$AAu?$AAa?$AAl?$AA?5?$AAC?$AA?$CL?$AA?$CL?$AA?5?$AAR?$AAu?$AAn?$AAt?$AAi?$AAm?$AAe?$AA?5?$AAL?$AAi?$AAb@ 0000000180035180     libucrt:assert.obj
 0002:000011d0       ??_C@_1CE@OJBNHDMO@?$AAA?$AAs?$AAs?$AAe?$AAr?$AAt?$AAi?$AAo?$AAn?$AA?5?$AAf?$AAa?$AAi?$AAl?$AAe?$AAd?$AA?$CB?$AA?$AA@ 00000001800351d0     libucrt:assert.obj
 0002:000011f8       ??_C@_1BE@PHKBBGE@?$AAP?$AAr?$AAo?$AAg?$AAr?$AAa?$AAm?$AA?3?$AA?5?$AA?$AA@ 00000001800351f8     libucrt:assert.obj
 0002:00001210       ??_C@_1O@HEMHKNDC@?$AAF?$AAi?$AAl?$AAe?$AA?3?$AA?5?$AA?$AA@ 0000000180035210     libucrt:assert.obj
 0002:00001220       ??_C@_1O@KCAFKHJE@?$AAL?$AAi?$AAn?$AAe?$AA?3?$AA?5?$AA?$AA@ 0000000180035220     libucrt:assert.obj
 0002:00001230       ??_C@_1BK@PEDCIPMA@?$AAE?$AAx?$AAp?$AAr?$AAe?$AAs?$AAs?$AAi?$AAo?$AAn?$AA?3?$AA?5?$AA?$AA@ 0000000180035230     libucrt:assert.obj
 0002:00001250       ??_C@_1OA@EGMLFBHJ@?$AAF?$AAo?$AAr?$AA?5?$AAi?$AAn?$AAf?$AAo?$AAr?$AAm?$AAa?$AAt?$AAi?$AAo?$AAn?$AA?5?$AAo?$AAn?$AA?5?$AAh?$AAo?$AAw?$AA?5?$AAy?$AAo?$AAu?$AAr?$AA?5?$AAp?$AAr?$AAo?$AAg@ 0000000180035250     libucrt:assert.obj
 0002:00001330       ??_C@_1HK@POCJMFGK@?$AA?$CI?$AAP?$AAr?$AAe?$AAs?$AAs?$AA?5?$AAR?$AAe?$AAt?$AAr?$AAy?$AA?5?$AAt?$AAo?$AA?5?$AAd?$AAe?$AAb?$AAu?$AAg?$AA?5?$AAt?$AAh?$AAe?$AA?5?$AAa?$AAp?$AAp?$AAl?$AAi?$AAc@ 0000000180035330     libucrt:assert.obj
 0002:000013b0       ??_C@_17LGKOMLJ@?$AA?4?$AA?4?$AA?4?$AA?$AA@ 00000001800353b0     libucrt:assert.obj
 0002:000013b8       ??_C@_13LBAGMAIH@?$AA?6?$AA?$AA@ 00000001800353b8     libucrt:assert.obj
 0002:000013bc       ??_C@_15IABLJNFO@?$AA?6?$AA?6?$AA?$AA@ 00000001800353bc     libucrt:assert.obj
 0002:000013c8       ??_C@_1CO@EAEJAADC@?$AA?$DM?$AAp?$AAr?$AAo?$AAg?$AAr?$AAa?$AAm?$AA?5?$AAn?$AAa?$AAm?$AAe?$AA?5?$AAu?$AAn?$AAk?$AAn?$AAo?$AAw?$AAn?$AA?$DO?$AA?$AA@ 00000001800353c8     libucrt:assert.obj
 0002:00001400       __acrt_exception_action_table 0000000180035400     libucrt:exception_filter.obj
 0002:000014c0       __acrt_signal_action_table_count 00000001800354c0     libucrt:exception_filter.obj
 0002:000014c8       __acrt_signal_action_first_fpe_index 00000001800354c8     libucrt:exception_filter.obj
 0002:000014d0       __acrt_signal_action_fpe_count 00000001800354d0     libucrt:exception_filter.obj
 0002:000014d8       ??_C@_1BI@BGOHAHKC@?$AAm?$AAs?$AAc?$AAo?$AAr?$AAe?$AAe?$AA?4?$AAd?$AAl?$AAl?$AA?$AA@ 00000001800354d8     libucrt:exit.obj
 0002:000014f0       ??_C@_0P@MIGLKIOC@CorExitProcess?$AA@ 00000001800354f0     libucrt:exit.obj
 0002:00001600       standard_lookup_table      0000000180035600     libucrt:output.obj
 0002:00001660       ??_C@_1O@CEDCILHN@?$AA?$CI?$AAn?$AAu?$AAl?$AAl?$AA?$CJ?$AA?$AA@ 0000000180035660     libucrt:output.obj
 0002:00001670       ??_C@_06OJHGLDPL@?$CInull?$CJ?$AA@ 0000000180035670     libucrt:output.obj
 0002:000017e0       __lc_time_c                00000001800357e0     libucrt:nlsdata.obj
 0002:00001aa0       ??_C@_03KOEHGMDN@Sun?$AA@  0000000180035aa0     libucrt:nlsdata.obj
 0002:00001aa4       ??_C@_03PDAGKDH@Mon?$AA@   0000000180035aa4     libucrt:nlsdata.obj
 0002:00001aa8       ??_C@_03NAGEINEP@Tue?$AA@  0000000180035aa8     libucrt:nlsdata.obj
 0002:00001aac       ??_C@_03MHOMLAJA@Wed?$AA@  0000000180035aac     libucrt:nlsdata.obj
 0002:00001ab0       ??_C@_03IOFIKPDN@Thu?$AA@  0000000180035ab0     libucrt:nlsdata.obj
 0002:00001ab4       ??_C@_03IDIOELNC@Fri?$AA@  0000000180035ab4     libucrt:nlsdata.obj
 0002:00001ab8       ??_C@_03FEFJNEK@Sat?$AA@   0000000180035ab8     libucrt:nlsdata.obj
 0002:00001abc       ??_C@_06OOPIFAJ@Sunday?$AA@ 0000000180035abc     libucrt:nlsdata.obj
 0002:00001ac4       ??_C@_06JLEDEDGH@Monday?$AA@ 0000000180035ac4     libucrt:nlsdata.obj
 0002:00001ad0       ??_C@_07BAAGCFCM@Tuesday?$AA@ 0000000180035ad0     libucrt:nlsdata.obj
 0002:00001ad8       ??_C@_09DLIGFAKA@Wednesday?$AA@ 0000000180035ad8     libucrt:nlsdata.obj
 0002:00001ae8       ??_C@_08HACCIKIA@Thursday?$AA@ 0000000180035ae8     libucrt:nlsdata.obj
 0002:00001af4       ??_C@_06JECMNKMI@Friday?$AA@ 0000000180035af4     libucrt:nlsdata.obj
 0002:00001b00       ??_C@_08INBOOONO@Saturday?$AA@ 0000000180035b00     libucrt:nlsdata.obj
 0002:00001b0c       ??_C@_03JIHJHPIE@Jan?$AA@  0000000180035b0c     libucrt:nlsdata.obj
 0002:00001b10       ??_C@_03HJBDCHOM@Feb?$AA@  0000000180035b10     libucrt:nlsdata.obj
 0002:00001b14       ??_C@_03ODNJBKGA@Mar?$AA@  0000000180035b14     libucrt:nlsdata.obj
 0002:00001b18       ??_C@_03LEOLGMJP@Apr?$AA@  0000000180035b18     libucrt:nlsdata.obj
 0002:00001b1c       ??_C@_03CNMDKL@May?$AA@    0000000180035b1c     libucrt:nlsdata.obj
 0002:00001b20       ??_C@_03IDFGHECI@Jun?$AA@  0000000180035b20     libucrt:nlsdata.obj
 0002:00001b24       ??_C@_03LBGABGKK@Jul?$AA@  0000000180035b24     libucrt:nlsdata.obj
 0002:00001b28       ??_C@_03IFJFEIGA@Aug?$AA@  0000000180035b28     libucrt:nlsdata.obj
 0002:00001b2c       ??_C@_03GGCAPAJC@Sep?$AA@  0000000180035b2c     libucrt:nlsdata.obj
 0002:00001b30       ??_C@_03BMAOKBAD@Oct?$AA@  0000000180035b30     libucrt:nlsdata.obj
 0002:00001b34       ??_C@_03JPJOFNIA@Nov?$AA@  0000000180035b34     libucrt:nlsdata.obj
 0002:00001b38       ??_C@_03MKABNOCG@Dec?$AA@  0000000180035b38     libucrt:nlsdata.obj
 0002:00001b40       ??_C@_07CGJPFGJA@January?$AA@ 0000000180035b40     libucrt:nlsdata.obj
 0002:00001b48       ??_C@_08GNJGEPFN@February?$AA@ 0000000180035b48     libucrt:nlsdata.obj
 0002:00001b54       ??_C@_05HPCKOFNC@March?$AA@ 0000000180035b54     libucrt:nlsdata.obj
 0002:00001b5c       ??_C@_05DMJDNLEJ@April?$AA@ 0000000180035b5c     libucrt:nlsdata.obj
 0002:00001b64       ??_C@_04CNLMGBGM@June?$AA@ 0000000180035b64     libucrt:nlsdata.obj
 0002:00001b6c       ??_C@_04MIEPOIFP@July?$AA@ 0000000180035b6c     libucrt:nlsdata.obj
 0002:00001b74       ??_C@_06LBBHFDDG@August?$AA@ 0000000180035b74     libucrt:nlsdata.obj
 0002:00001b80       ??_C@_09BHHEALKD@September?$AA@ 0000000180035b80     libucrt:nlsdata.obj
 0002:00001b90       ??_C@_07JJNFCEND@October?$AA@ 0000000180035b90     libucrt:nlsdata.obj
 0002:00001b98       ??_C@_08HCHEGEOA@November?$AA@ 0000000180035b98     libucrt:nlsdata.obj
 0002:00001ba8       ??_C@_08EDHMEBNP@December?$AA@ 0000000180035ba8     libucrt:nlsdata.obj
 0002:00001bb4       ??_C@_02DEDBPAFC@AM?$AA@   0000000180035bb4     libucrt:nlsdata.obj
 0002:00001bb8       ??_C@_02CJNFDJBF@PM?$AA@   0000000180035bb8     libucrt:nlsdata.obj
 0002:00001bc0       ??_C@_08BPBNCDIB@MM?1dd?1yy?$AA@ 0000000180035bc0     libucrt:nlsdata.obj
 0002:00001bd0       ??_C@_0BE@CKGJFCPC@dddd?0?5MMMM?5dd?0?5yyyy?$AA@ 0000000180035bd0     libucrt:nlsdata.obj
 0002:00001be8       ??_C@_08JCCMCCIL@HH?3mm?3ss?$AA@ 0000000180035be8     libucrt:nlsdata.obj
 0002:00001bf8       ??_C@_17MBGCMIPB@?$AAS?$AAu?$AAn?$AA?$AA@ 0000000180035bf8     libucrt:nlsdata.obj
 0002:00001c00       ??_C@_17KBOMKBF@?$AAM?$AAo?$AAn?$AA?$AA@ 0000000180035c00     libucrt:nlsdata.obj
 0002:00001c08       ??_C@_17BMKGEGOJ@?$AAT?$AAu?$AAe?$AA?$AA@ 0000000180035c08     libucrt:nlsdata.obj
 0002:00001c10       ??_C@_17CJEDCEPE@?$AAW?$AAe?$AAd?$AA?$AA@ 0000000180035c10     libucrt:nlsdata.obj
 0002:00001c18       ??_C@_17PDPHAADD@?$AAT?$AAh?$AAu?$AA?$AA@ 0000000180035c18     libucrt:nlsdata.obj
 0002:00001c20       ??_C@_17HFOLPPLP@?$AAF?$AAr?$AAi?$AA?$AA@ 0000000180035c20     libucrt:nlsdata.obj
 0002:00001c28       ??_C@_17GGIBDPIH@?$AAS?$AAa?$AAt?$AA?$AA@ 0000000180035c28     libucrt:nlsdata.obj
 0002:00001c30       ??_C@_1O@IHNHDHPB@?$AAS?$AAu?$AAn?$AAd?$AAa?$AAy?$AA?$AA@ 0000000180035c30     libucrt:nlsdata.obj
 0002:00001c40       ??_C@_1O@MMNBFLIA@?$AAM?$AAo?$AAn?$AAd?$AAa?$AAy?$AA?$AA@ 0000000180035c40     libucrt:nlsdata.obj
 0002:00001c50       ??_C@_1BA@ENFBFFEK@?$AAT?$AAu?$AAe?$AAs?$AAd?$AAa?$AAy?$AA?$AA@ 0000000180035c50     libucrt:nlsdata.obj
 0002:00001c60       ??_C@_1BE@EBOGMDOH@?$AAW?$AAe?$AAd?$AAn?$AAe?$AAs?$AAd?$AAa?$AAy?$AA?$AA@ 0000000180035c60     libucrt:nlsdata.obj
 0002:00001c78       ??_C@_1BC@HHMNLIHE@?$AAT?$AAh?$AAu?$AAr?$AAs?$AAd?$AAa?$AAy?$AA?$AA@ 0000000180035c78     libucrt:nlsdata.obj
 0002:00001c90       ??_C@_1O@PDICJHAG@?$AAF?$AAr?$AAi?$AAd?$AAa?$AAy?$AA?$AA@ 0000000180035c90     libucrt:nlsdata.obj
 0002:00001ca0       ??_C@_1BC@ENMNNPAJ@?$AAS?$AAa?$AAt?$AAu?$AAr?$AAd?$AAa?$AAy?$AA?$AA@ 0000000180035ca0     libucrt:nlsdata.obj
 0002:00001cb8       ??_C@_17DKNBKCHM@?$AAJ?$AAa?$AAn?$AA?$AA@ 0000000180035cb8     libucrt:nlsdata.obj
 0002:00001cc0       ??_C@_17LMDJEKJN@?$AAF?$AAe?$AAb?$AA?$AA@ 0000000180035cc0     libucrt:nlsdata.obj
 0002:00001cc8       ??_C@_17CKNLEDEC@?$AAM?$AAa?$AAr?$AA?$AA@ 0000000180035cc8     libucrt:nlsdata.obj
 0002:00001cd0       ??_C@_17LFPOIHDD@?$AAA?$AAp?$AAr?$AA?$AA@ 0000000180035cd0     libucrt:nlsdata.obj
 0002:00001cd8       ??_C@_17PNNKMEED@?$AAM?$AAa?$AAy?$AA?$AA@ 0000000180035cd8     libucrt:nlsdata.obj
 0002:00001ce0       ??_C@_17KCJGOCPB@?$AAJ?$AAu?$AAn?$AA?$AA@ 0000000180035ce0     libucrt:nlsdata.obj
 0002:00001ce8       ??_C@_17IJPCKHK@?$AAJ?$AAu?$AAl?$AA?$AA@ 0000000180035ce8     libucrt:nlsdata.obj
 0002:00001cf0       ??_C@_17ICPELBCN@?$AAA?$AAu?$AAg?$AA?$AA@ 0000000180035cf0     libucrt:nlsdata.obj
 0002:00001cf8       ??_C@_17HCHCOKMG@?$AAS?$AAe?$AAp?$AA?$AA@ 0000000180035cf8     libucrt:nlsdata.obj
 0002:00001d00       ??_C@_17FNLKOI@?$AAO?$AAc?$AAt?$AA?$AA@ 0000000180035d00     libucrt:nlsdata.obj
 0002:00001d08       ??_C@_17BBDMLCIG@?$AAN?$AAo?$AAv?$AA?$AA@ 0000000180035d08     libucrt:nlsdata.obj
 0002:00001d10       ??_C@_17EGKACKIF@?$AAD?$AAe?$AAc?$AA?$AA@ 0000000180035d10     libucrt:nlsdata.obj
 0002:00001d18       ??_C@_1BA@EFMEIEBA@?$AAJ?$AAa?$AAn?$AAu?$AAa?$AAr?$AAy?$AA?$AA@ 0000000180035d18     libucrt:nlsdata.obj
 0002:00001d28       ??_C@_1BC@JGDDFFAM@?$AAF?$AAe?$AAb?$AAr?$AAu?$AAa?$AAr?$AAy?$AA?$AA@ 0000000180035d28     libucrt:nlsdata.obj
 0002:00001d40       ??_C@_1M@IKEENEDF@?$AAM?$AAa?$AAr?$AAc?$AAh?$AA?$AA@ 0000000180035d40     libucrt:nlsdata.obj
 0002:00001d50       ??_C@_1M@GJNLMHFD@?$AAA?$AAp?$AAr?$AAi?$AAl?$AA?$AA@ 0000000180035d50     libucrt:nlsdata.obj
 0002:00001d60       ??_C@_19EPFLPGAP@?$AAJ?$AAu?$AAn?$AAe?$AA?$AA@ 0000000180035d60     libucrt:nlsdata.obj
 0002:00001d70       ??_C@_19BIFMLPCD@?$AAJ?$AAu?$AAl?$AAy?$AA?$AA@ 0000000180035d70     libucrt:nlsdata.obj
 0002:00001d80       ??_C@_1O@PAHLKOAC@?$AAA?$AAu?$AAg?$AAu?$AAs?$AAt?$AA?$AA@ 0000000180035d80     libucrt:nlsdata.obj
 0002:00001d90       ??_C@_1BE@DKAAMBJL@?$AAS?$AAe?$AAp?$AAt?$AAe?$AAm?$AAb?$AAe?$AAr?$AA?$AA@ 0000000180035d90     libucrt:nlsdata.obj
 0002:00001da8       ??_C@_1BA@EPANDLNG@?$AAO?$AAc?$AAt?$AAo?$AAb?$AAe?$AAr?$AA?$AA@ 0000000180035da8     libucrt:nlsdata.obj
 0002:00001db8       ??_C@_1BC@BGLIFPF@?$AAN?$AAo?$AAv?$AAe?$AAm?$AAb?$AAe?$AAr?$AA?$AA@ 0000000180035db8     libucrt:nlsdata.obj
 0002:00001dd0       ??_C@_1BC@FEMKIFH@?$AAD?$AAe?$AAc?$AAe?$AAm?$AAb?$AAe?$AAr?$AA?$AA@ 0000000180035dd0     libucrt:nlsdata.obj
 0002:00001de4       ??_C@_15ODEHAHHF@?$AAA?$AAM?$AA?$AA@ 0000000180035de4     libucrt:nlsdata.obj
 0002:00001dec       ??_C@_15CLMNNGEL@?$AAP?$AAM?$AA?$AA@ 0000000180035dec     libucrt:nlsdata.obj
 0002:00001df8       ??_C@_1BC@IEBCMHCM@?$AAM?$AAM?$AA?1?$AAd?$AAd?$AA?1?$AAy?$AAy?$AA?$AA@ 0000000180035df8     libucrt:nlsdata.obj
 0002:00001e10       ??_C@_1CI@KNAKOEBC@?$AAd?$AAd?$AAd?$AAd?$AA?0?$AA?5?$AAM?$AAM?$AAM?$AAM?$AA?5?$AAd?$AAd?$AA?0?$AA?5?$AAy?$AAy?$AAy?$AAy?$AA?$AA@ 0000000180035e10     libucrt:nlsdata.obj
 0002:00001e38       ??_C@_1BC@GDGBMEMK@?$AAH?$AAH?$AA?3?$AAm?$AAm?$AA?3?$AAs?$AAs?$AA?$AA@ 0000000180035e38     libucrt:nlsdata.obj
 0002:00001e50       ??_C@_1M@BMHNFIME@?$AAe?$AAn?$AA?9?$AAU?$AAS?$AA?$AA@ 0000000180035e50     libucrt:nlsdata.obj
 0002:00001e80       ??_C@_1M@HPNHIDJI@?$AAj?$AAa?$AA?9?$AAJ?$AAP?$AA?$AA@ 0000000180035e80     libucrt:mbctype.obj
 0002:00001e90       ??_C@_1M@BIBDDEMK@?$AAz?$AAh?$AA?9?$AAC?$AAN?$AA?$AA@ 0000000180035e90     libucrt:mbctype.obj
 0002:00001ea0       ??_C@_1M@JLOOOEGK@?$AAk?$AAo?$AA?9?$AAK?$AAR?$AA?$AA@ 0000000180035ea0     libucrt:mbctype.obj
 0002:00001eb0       ??_C@_1M@CLNBBOPM@?$AAz?$AAh?$AA?9?$AAT?$AAW?$AA?$AA@ 0000000180035eb0     libucrt:mbctype.obj
 0002:00001f60       ??_C@_1EA@JGEFHKEI@?$AAa?$AAp?$AAi?$AA?9?$AAm?$AAs?$AA?9?$AAw?$AAi?$AAn?$AA?9?$AAc?$AAo?$AAr?$AAe?$AA?9?$AAd?$AAa?$AAt?$AAe?$AAt?$AAi?$AAm?$AAe?$AA?9?$AAl?$AA1?$AA?9?$AA1?$AA?9?$AA1?$AA?$AA@ 0000000180035f60     libucrt:winapi_thunks.obj
 0002:00001fa0       ??_C@_1DI@IJCEHOCB@?$AAa?$AAp?$AAi?$AA?9?$AAm?$AAs?$AA?9?$AAw?$AAi?$AAn?$AA?9?$AAc?$AAo?$AAr?$AAe?$AA?9?$AAf?$AAi?$AAl?$AAe?$AA?9?$AAl?$AA1?$AA?9?$AA2?$AA?9?$AA2?$AA?$AA@ 0000000180035fa0     libucrt:winapi_thunks.obj
 0002:00001fe0       ??_C@_1EI@MPIAOHOC@?$AAa?$AAp?$AAi?$AA?9?$AAm?$AAs?$AA?9?$AAw?$AAi?$AAn?$AA?9?$AAc?$AAo?$AAr?$AAe?$AA?9?$AAl?$AAo?$AAc?$AAa?$AAl?$AAi?$AAz?$AAa?$AAt?$AAi?$AAo?$AAn?$AA?9?$AAl?$AA1?$AA?9@ 0000000180035fe0     libucrt:winapi_thunks.obj
 0002:00002030       ??_C@_1FK@FPHCKFIE@?$AAa?$AAp?$AAi?$AA?9?$AAm?$AAs?$AA?9?$AAw?$AAi?$AAn?$AA?9?$AAc?$AAo?$AAr?$AAe?$AA?9?$AAl?$AAo?$AAc?$AAa?$AAl?$AAi?$AAz?$AAa?$AAt?$AAi?$AAo?$AAn?$AA?9?$AAo?$AAb?$AAs@ 0000000180036030     libucrt:winapi_thunks.obj
 0002:00002090       ??_C@_1EM@DILCGIIO@?$AAa?$AAp?$AAi?$AA?9?$AAm?$AAs?$AA?9?$AAw?$AAi?$AAn?$AA?9?$AAc?$AAo?$AAr?$AAe?$AA?9?$AAp?$AAr?$AAo?$AAc?$AAe?$AAs?$AAs?$AAt?$AAh?$AAr?$AAe?$AAa?$AAd?$AAs?$AA?9?$AAl@ 0000000180036090     libucrt:winapi_thunks.obj
 0002:000020e0       ??_C@_1DM@LNCGDDPN@?$AAa?$AAp?$AAi?$AA?9?$AAm?$AAs?$AA?9?$AAw?$AAi?$AAn?$AA?9?$AAc?$AAo?$AAr?$AAe?$AA?9?$AAs?$AAt?$AAr?$AAi?$AAn?$AAg?$AA?9?$AAl?$AA1?$AA?9?$AA1?$AA?9?$AA0?$AA?$AA@ 00000001800360e0     libucrt:winapi_thunks.obj
 0002:00002120       ??_C@_1DO@FPAPJEMD@?$AAa?$AAp?$AAi?$AA?9?$AAm?$AAs?$AA?9?$AAw?$AAi?$AAn?$AA?9?$AAc?$AAo?$AAr?$AAe?$AA?9?$AAs?$AAy?$AAs?$AAi?$AAn?$AAf?$AAo?$AA?9?$AAl?$AA1?$AA?9?$AA2?$AA?9?$AA1?$AA?$AA@ 0000000180036120     libucrt:winapi_thunks.obj
 0002:00002160       ??_C@_1DK@NDHNAHIO@?$AAa?$AAp?$AAi?$AA?9?$AAm?$AAs?$AA?9?$AAw?$AAi?$AAn?$AA?9?$AAc?$AAo?$AAr?$AAe?$AA?9?$AAw?$AAi?$AAn?$AAr?$AAt?$AA?9?$AAl?$AA1?$AA?9?$AA1?$AA?9?$AA0?$AA?$AA@ 0000000180036160     libucrt:winapi_thunks.obj
 0002:000021a0       ??_C@_1DM@KGHDGBCM@?$AAa?$AAp?$AAi?$AA?9?$AAm?$AAs?$AA?9?$AAw?$AAi?$AAn?$AA?9?$AAc?$AAo?$AAr?$AAe?$AA?9?$AAx?$AAs?$AAt?$AAa?$AAt?$AAe?$AA?9?$AAl?$AA2?$AA?9?$AA1?$AA?9?$AA0?$AA?$AA@ 00000001800361a0     libucrt:winapi_thunks.obj
 0002:000021e0       ??_C@_1EO@IJIOEFOH@?$AAa?$AAp?$AAi?$AA?9?$AAm?$AAs?$AA?9?$AAw?$AAi?$AAn?$AA?9?$AAr?$AAt?$AAc?$AAo?$AAr?$AAe?$AA?9?$AAn?$AAt?$AAu?$AAs?$AAe?$AAr?$AA?9?$AAw?$AAi?$AAn?$AAd?$AAo?$AAw?$AA?9@ 00000001800361e0     libucrt:winapi_thunks.obj
 0002:00002230       ??_C@_1FG@HHGEKANL@?$AAa?$AAp?$AAi?$AA?9?$AAm?$AAs?$AA?9?$AAw?$AAi?$AAn?$AA?9?$AAs?$AAe?$AAc?$AAu?$AAr?$AAi?$AAt?$AAy?$AA?9?$AAs?$AAy?$AAs?$AAt?$AAe?$AAm?$AAf?$AAu?$AAn?$AAc?$AAt?$AAi@ 0000000180036230     libucrt:winapi_thunks.obj
 0002:00002290       ??_C@_1EG@DBIOJECG@?$AAe?$AAx?$AAt?$AA?9?$AAm?$AAs?$AA?9?$AAw?$AAi?$AAn?$AA?9?$AAn?$AAt?$AAu?$AAs?$AAe?$AAr?$AA?9?$AAd?$AAi?$AAa?$AAl?$AAo?$AAg?$AAb?$AAo?$AAx?$AA?9?$AAl?$AA1?$AA?9?$AA1@ 0000000180036290     libucrt:winapi_thunks.obj
 0002:000022e0       ??_C@_1EO@FIHMJCLF@?$AAe?$AAx?$AAt?$AA?9?$AAm?$AAs?$AA?9?$AAw?$AAi?$AAn?$AA?9?$AAn?$AAt?$AAu?$AAs?$AAe?$AAr?$AA?9?$AAw?$AAi?$AAn?$AAd?$AAo?$AAw?$AAs?$AAt?$AAa?$AAt?$AAi?$AAo?$AAn?$AA?9@ 00000001800362e0     libucrt:winapi_thunks.obj
 0002:00002330       ??_C@_1BC@DNHGCMLG@?$AAa?$AAd?$AAv?$AAa?$AAp?$AAi?$AA3?$AA2?$AA?$AA@ 0000000180036330     libucrt:winapi_thunks.obj
 0002:00002348       ??_C@_1M@OAIMIKLP@?$AAn?$AAt?$AAd?$AAl?$AAl?$AA?$AA@ 0000000180036348     libucrt:winapi_thunks.obj
 0002:00002360       ??_C@_1EG@DPGNFKGC@?$AAa?$AAp?$AAi?$AA?9?$AAm?$AAs?$AA?9?$AAw?$AAi?$AAn?$AA?9?$AAa?$AAp?$AAp?$AAm?$AAo?$AAd?$AAe?$AAl?$AA?9?$AAr?$AAu?$AAn?$AAt?$AAi?$AAm?$AAe?$AA?9?$AAl?$AA1?$AA?9?$AA1@ 0000000180036360     libucrt:winapi_thunks.obj
 0002:000023a8       ??_C@_1O@BCCLBEOE@?$AAu?$AAs?$AAe?$AAr?$AA3?$AA2?$AA?$AA@ 00000001800363a8     libucrt:winapi_thunks.obj
 0002:000023e0       ??_C@_0BA@HNOPNCHB@GetActiveWindow?$AA@ 00000001800363e0     libucrt:winapi_thunks.obj
 0002:000023f8       ??_C@_0BD@HHGDFDBJ@GetLastActivePopup?$AA@ 00000001800363f8     libucrt:winapi_thunks.obj
 0002:00002418       ??_C@_0BI@DFKBFLJE@GetProcessWindowStation?$AA@ 0000000180036418     libucrt:winapi_thunks.obj
 0002:00002438       ??_C@_0BK@DEKFELLI@GetUserObjectInformationW?$AA@ 0000000180036438     libucrt:winapi_thunks.obj
 0002:00002468       ??_C@_0O@KKBNKAPF@LCMapStringEx?$AA@ 0000000180036468     libucrt:winapi_thunks.obj
 0002:00002480       ??_C@_0BB@HBDEELFH@LocaleNameToLCID?$AA@ 0000000180036480     libucrt:winapi_thunks.obj
 0002:000024a0       ??_C@_0M@CHKKJDAI@MessageBoxA?$AA@ 00000001800364a0     libucrt:winapi_thunks.obj
 0002:000024b8       ??_C@_0M@DLDCCGNP@MessageBoxW?$AA@ 00000001800364b8     libucrt:winapi_thunks.obj
 0002:000024c8       ??_C@_0CF@OJOFEIGO@AppPolicyGetProcessTerminationMe@ 00000001800364c8     libucrt:winapi_thunks.obj
 0002:000024f8       ??_C@_0CE@OICFMIKE@AppPolicyGetShowDeveloperDiagnos@ 00000001800364f8     libucrt:winapi_thunks.obj
 0002:00002520       ??_C@_0BL@ODDJNEDA@AppPolicyGetWindowingModel?$AA@ 0000000180036520     libucrt:winapi_thunks.obj
 0002:0000253c       ??_C@_03OEIAHPBN@INF?$AA@  000000018003653c     libucrt:cvt.obj
 0002:00002540       ??_C@_03OJHLLCGB@inf?$AA@  0000000180036540     libucrt:cvt.obj
 0002:00002544       ??_C@_03LKNCIKJB@NAN?$AA@  0000000180036544     libucrt:cvt.obj
 0002:00002548       ??_C@_03LHCJEHON@nan?$AA@  0000000180036548     libucrt:cvt.obj
 0002:00002550       ??_C@_09OFJJIMPC@NAN?$CISNAN?$CJ?$AA@ 0000000180036550     libucrt:cvt.obj
 0002:00002560       ??_C@_09IPFBKMDL@nan?$CIsnan?$CJ?$AA@ 0000000180036560     libucrt:cvt.obj
 0002:00002570       ??_C@_08IKHNHAJ@NAN?$CIIND?$CJ?$AA@ 0000000180036570     libucrt:cvt.obj
 0002:00002580       ??_C@_08OFCDMILK@nan?$CIind?$CJ?$AA@ 0000000180036580     libucrt:cvt.obj
 0002:0000258c       ??_C@_05KLBDPFGC@e?$CL000?$AA@ 000000018003658c     libucrt:cvt.obj
 0002:000025a0       __newctype                 00000001800365a0     libucrt:ctype.obj
 0002:000028a0       __newclmap                 00000001800368a0     libucrt:ctype.obj
 0002:00002a20       __newcumap                 0000000180036a20     libucrt:ctype.obj
 0002:00002ba0       _wctype                    0000000180036ba0     libucrt:ctype.obj
 0002:00002da4       ??_C@_15PJPFLCCM@?$AAu?$AAk?$AA?$AA@ 0000000180036da4     libucrt:get_qualified_locale.obj
 0002:00002db0       ??_C@_1M@BJNKEDC@?$AAc?$AAa?$AA?9?$AAE?$AAS?$AA?$AA@ 0000000180036db0     libucrt:lcidtoname_downlevel.obj
 0002:00002dc0       ??_C@_1M@IJJHFJHA@?$AAc?$AAs?$AA?9?$AAC?$AAZ?$AA?$AA@ 0000000180036dc0     libucrt:lcidtoname_downlevel.obj
 0002:00002dd0       ??_C@_1M@CLPEOBGI@?$AAd?$AAa?$AA?9?$AAD?$AAK?$AA?$AA@ 0000000180036dd0     libucrt:lcidtoname_downlevel.obj
 0002:00002de0       ??_C@_1M@MCMADGCB@?$AAd?$AAe?$AA?9?$AAD?$AAE?$AA?$AA@ 0000000180036de0     libucrt:lcidtoname_downlevel.obj
 0002:00002df0       ??_C@_1M@OOCKEMAM@?$AAe?$AAl?$AA?9?$AAG?$AAR?$AA?$AA@ 0000000180036df0     libucrt:lcidtoname_downlevel.obj
 0002:00002e00       ??_C@_1M@DDNJFGID@?$AAf?$AAi?$AA?9?$AAF?$AAI?$AA?$AA@ 0000000180036e00     libucrt:lcidtoname_downlevel.obj
 0002:00002e10       ??_C@_1M@GLIPPMAC@?$AAf?$AAr?$AA?9?$AAF?$AAR?$AA?$AA@ 0000000180036e10     libucrt:lcidtoname_downlevel.obj
 0002:00002e20       ??_C@_1M@GFMCHPE@?$AAh?$AAe?$AA?9?$AAI?$AAL?$AA?$AA@ 0000000180036e20     libucrt:lcidtoname_downlevel.obj
 0002:00002e30       ??_C@_1M@MHLPGNKM@?$AAh?$AAu?$AA?9?$AAH?$AAU?$AA?$AA@ 0000000180036e30     libucrt:lcidtoname_downlevel.obj
 0002:00002e40       ??_C@_1M@LPDDNNPN@?$AAi?$AAs?$AA?9?$AAI?$AAS?$AA?$AA@ 0000000180036e40     libucrt:lcidtoname_downlevel.obj
 0002:00002e50       ??_C@_1M@MADIPODN@?$AAi?$AAt?$AA?9?$AAI?$AAT?$AA?$AA@ 0000000180036e50     libucrt:lcidtoname_downlevel.obj
 0002:00002e60       ??_C@_1M@IHBJJGG@?$AAn?$AAl?$AA?9?$AAN?$AAL?$AA?$AA@ 0000000180036e60     libucrt:lcidtoname_downlevel.obj
 0002:00002e70       ??_C@_1M@EANAGDL@?$AAn?$AAb?$AA?9?$AAN?$AAO?$AA?$AA@ 0000000180036e70     libucrt:lcidtoname_downlevel.obj
 0002:00002e80       ??_C@_1M@NEIEMEGP@?$AAp?$AAl?$AA?9?$AAP?$AAL?$AA?$AA@ 0000000180036e80     libucrt:lcidtoname_downlevel.obj
 0002:00002e90       ??_C@_1M@BOCFIGEP@?$AAp?$AAt?$AA?9?$AAB?$AAR?$AA?$AA@ 0000000180036e90     libucrt:lcidtoname_downlevel.obj
 0002:00002ea0       ??_C@_1M@IMPFOPBG@?$AAr?$AAo?$AA?9?$AAR?$AAO?$AA?$AA@ 0000000180036ea0     libucrt:lcidtoname_downlevel.obj
 0002:00002eb0       ??_C@_1M@IDNNEJMM@?$AAr?$AAu?$AA?9?$AAR?$AAU?$AA?$AA@ 0000000180036eb0     libucrt:lcidtoname_downlevel.obj
 0002:00002ec0       ??_C@_1M@LILEEOGM@?$AAh?$AAr?$AA?9?$AAH?$AAR?$AA?$AA@ 0000000180036ec0     libucrt:lcidtoname_downlevel.obj
 0002:00002ed0       ??_C@_1M@FKIFEHPB@?$AAs?$AAk?$AA?9?$AAS?$AAK?$AA?$AA@ 0000000180036ed0     libucrt:lcidtoname_downlevel.obj
 0002:00002ee0       ??_C@_1M@LJMAMNPJ@?$AAs?$AAq?$AA?9?$AAA?$AAL?$AA?$AA@ 0000000180036ee0     libucrt:lcidtoname_downlevel.obj
 0002:00002ef0       ??_C@_1M@GIAKDKJK@?$AAs?$AAv?$AA?9?$AAS?$AAE?$AA?$AA@ 0000000180036ef0     libucrt:lcidtoname_downlevel.obj
 0002:00002f00       ??_C@_1M@MKJKIKCL@?$AAt?$AAh?$AA?9?$AAT?$AAH?$AA?$AA@ 0000000180036f00     libucrt:lcidtoname_downlevel.obj
 0002:00002f10       ??_C@_1M@MFLCCMPB@?$AAt?$AAr?$AA?9?$AAT?$AAR?$AA?$AA@ 0000000180036f10     libucrt:lcidtoname_downlevel.obj
 0002:00002f20       ??_C@_1M@OIJHDKJN@?$AAu?$AAr?$AA?9?$AAP?$AAK?$AA?$AA@ 0000000180036f20     libucrt:lcidtoname_downlevel.obj
 0002:00002f30       ??_C@_1M@LHIPCIEK@?$AAi?$AAd?$AA?9?$AAI?$AAD?$AA?$AA@ 0000000180036f30     libucrt:lcidtoname_downlevel.obj
 0002:00002f40       ??_C@_1M@MFMOBGI@?$AAu?$AAk?$AA?9?$AAU?$AAA?$AA?$AA@ 0000000180036f40     libucrt:lcidtoname_downlevel.obj
 0002:00002f50       ??_C@_1M@OBGLJIPL@?$AAb?$AAe?$AA?9?$AAB?$AAY?$AA?$AA@ 0000000180036f50     libucrt:lcidtoname_downlevel.obj
 0002:00002f60       ??_C@_1M@BCFAJEAD@?$AAs?$AAl?$AA?9?$AAS?$AAI?$AA?$AA@ 0000000180036f60     libucrt:lcidtoname_downlevel.obj
 0002:00002f70       ??_C@_1M@FKFFEDDN@?$AAe?$AAt?$AA?9?$AAE?$AAE?$AA?$AA@ 0000000180036f70     libucrt:lcidtoname_downlevel.obj
 0002:00002f80       ??_C@_1M@KGKKAACI@?$AAl?$AAv?$AA?9?$AAL?$AAV?$AA?$AA@ 0000000180036f80     libucrt:lcidtoname_downlevel.obj
 0002:00002f90       ??_C@_1M@IFGBIJO@?$AAl?$AAt?$AA?9?$AAL?$AAT?$AA?$AA@ 0000000180036f90     libucrt:lcidtoname_downlevel.obj
 0002:00002fa0       ??_C@_1M@FGEAHEDM@?$AAf?$AAa?$AA?9?$AAI?$AAR?$AA?$AA@ 0000000180036fa0     libucrt:lcidtoname_downlevel.obj
 0002:00002fb0       ??_C@_1M@KBMAIBFN@?$AAv?$AAi?$AA?9?$AAV?$AAN?$AA?$AA@ 0000000180036fb0     libucrt:lcidtoname_downlevel.obj
 0002:00002fc0       ??_C@_1M@GPCBKDJK@?$AAh?$AAy?$AA?9?$AAA?$AAM?$AA?$AA@ 0000000180036fc0     libucrt:lcidtoname_downlevel.obj
 0002:00002fd0       ??_C@_1BG@BECMDDJB@?$AAa?$AAz?$AA?9?$AAA?$AAZ?$AA?9?$AAL?$AAa?$AAt?$AAn?$AA?$AA@ 0000000180036fd0     libucrt:lcidtoname_downlevel.obj
 0002:00002fe8       ??_C@_1M@MAOFCAEA@?$AAe?$AAu?$AA?9?$AAE?$AAS?$AA?$AA@ 0000000180036fe8     libucrt:lcidtoname_downlevel.obj
 0002:00002ff8       ??_C@_1M@IGHABKPI@?$AAm?$AAk?$AA?9?$AAM?$AAK?$AA?$AA@ 0000000180036ff8     libucrt:lcidtoname_downlevel.obj
 0002:00003008       ??_C@_1M@IAIGNEJG@?$AAt?$AAn?$AA?9?$AAZ?$AAA?$AA?$AA@ 0000000180037008     libucrt:lcidtoname_downlevel.obj
 0002:00003018       ??_C@_1M@IIJCOJFA@?$AAx?$AAh?$AA?9?$AAZ?$AAA?$AA?$AA@ 0000000180037018     libucrt:lcidtoname_downlevel.obj
 0002:00003028       ??_C@_1M@LGPJHNJH@?$AAz?$AAu?$AA?9?$AAZ?$AAA?$AA?$AA@ 0000000180037028     libucrt:lcidtoname_downlevel.obj
 0002:00003038       ??_C@_1M@HOKAOIO@?$AAa?$AAf?$AA?9?$AAZ?$AAA?$AA?$AA@ 0000000180037038     libucrt:lcidtoname_downlevel.obj
 0002:00003048       ??_C@_1M@DPCLHLIE@?$AAk?$AAa?$AA?9?$AAG?$AAE?$AA?$AA@ 0000000180037048     libucrt:lcidtoname_downlevel.obj
 0002:00003058       ??_C@_1M@BLKMHJBI@?$AAf?$AAo?$AA?9?$AAF?$AAO?$AA?$AA@ 0000000180037058     libucrt:lcidtoname_downlevel.obj
 0002:00003068       ??_C@_1M@LGGJAPPB@?$AAh?$AAi?$AA?9?$AAI?$AAN?$AA?$AA@ 0000000180037068     libucrt:lcidtoname_downlevel.obj
 0002:00003078       ??_C@_1M@FIKPIHFE@?$AAm?$AAt?$AA?9?$AAM?$AAT?$AA?$AA@ 0000000180037078     libucrt:lcidtoname_downlevel.obj
 0002:00003088       ??_C@_1M@HEGGPBFA@?$AAs?$AAe?$AA?9?$AAN?$AAO?$AA?$AA@ 0000000180037088     libucrt:lcidtoname_downlevel.obj
 0002:00003098       ??_C@_1M@EIBJEEPA@?$AAm?$AAs?$AA?9?$AAM?$AAY?$AA?$AA@ 0000000180037098     libucrt:lcidtoname_downlevel.obj
 0002:000030a8       ??_C@_1M@FHLBGMPP@?$AAk?$AAk?$AA?9?$AAK?$AAZ?$AA?$AA@ 00000001800370a8     libucrt:lcidtoname_downlevel.obj
 0002:000030b8       ??_C@_1M@NGJJLCGI@?$AAk?$AAy?$AA?9?$AAK?$AAG?$AA?$AA@ 00000001800370b8     libucrt:lcidtoname_downlevel.obj
 0002:000030c8       ??_C@_1M@GIENNBFC@?$AAs?$AAw?$AA?9?$AAK?$AAE?$AA?$AA@ 00000001800370c8     libucrt:lcidtoname_downlevel.obj
 0002:000030d8       ??_C@_1BG@NDGMJIMJ@?$AAu?$AAz?$AA?9?$AAU?$AAZ?$AA?9?$AAL?$AAa?$AAt?$AAn?$AA?$AA@ 00000001800370d8     libucrt:lcidtoname_downlevel.obj
 0002:000030f0       ??_C@_1M@IDCCIHBC@?$AAt?$AAt?$AA?9?$AAR?$AAU?$AA?$AA@ 00000001800370f0     libucrt:lcidtoname_downlevel.obj
 0002:00003100       ??_C@_1M@LOICPMOJ@?$AAb?$AAn?$AA?9?$AAI?$AAN?$AA?$AA@ 0000000180037100     libucrt:lcidtoname_downlevel.obj
 0002:00003110       ??_C@_1M@KPKKNEAH@?$AAp?$AAa?$AA?9?$AAI?$AAN?$AA?$AA@ 0000000180037110     libucrt:lcidtoname_downlevel.obj
 0002:00003120       ??_C@_1M@PJGPPBOG@?$AAg?$AAu?$AA?9?$AAI?$AAN?$AA?$AA@ 0000000180037120     libucrt:lcidtoname_downlevel.obj
 0002:00003130       ??_C@_1M@KMKMOPHI@?$AAt?$AAa?$AA?9?$AAI?$AAN?$AA?$AA@ 0000000180037130     libucrt:lcidtoname_downlevel.obj
 0002:00003140       ??_C@_1M@KFEHEPAC@?$AAt?$AAe?$AA?9?$AAI?$AAN?$AA?$AA@ 0000000180037140     libucrt:lcidtoname_downlevel.obj
 0002:00003150       ??_C@_1M@CDCLMGHI@?$AAk?$AAn?$AA?9?$AAI?$AAN?$AA?$AA@ 0000000180037150     libucrt:lcidtoname_downlevel.obj
 0002:00003160       ??_C@_1M@MIODLDKF@?$AAm?$AAl?$AA?9?$AAI?$AAN?$AA?$AA@ 0000000180037160     libucrt:lcidtoname_downlevel.obj
 0002:00003170       ??_C@_1M@PBIEACPO@?$AAm?$AAr?$AA?9?$AAI?$AAN?$AA?$AA@ 0000000180037170     libucrt:lcidtoname_downlevel.obj
 0002:00003180       ??_C@_1M@NIDEAGPH@?$AAs?$AAa?$AA?9?$AAI?$AAN?$AA?$AA@ 0000000180037180     libucrt:lcidtoname_downlevel.obj
 0002:00003190       ??_C@_1M@FHIHCBIO@?$AAm?$AAn?$AA?9?$AAM?$AAN?$AA?$AA@ 0000000180037190     libucrt:lcidtoname_downlevel.obj
 0002:000031a0       ??_C@_1M@JAIJPENP@?$AAc?$AAy?$AA?9?$AAG?$AAB?$AA?$AA@ 00000001800371a0     libucrt:lcidtoname_downlevel.obj
 0002:000031b0       ??_C@_1M@PHGFBEPN@?$AAg?$AAl?$AA?9?$AAE?$AAS?$AA?$AA@ 00000001800371b0     libucrt:lcidtoname_downlevel.obj
 0002:000031c0       ??_C@_1O@KPIPDNCP@?$AAk?$AAo?$AAk?$AA?9?$AAI?$AAN?$AA?$AA@ 00000001800371c0     libucrt:lcidtoname_downlevel.obj
 0002:000031d0       ??_C@_1O@KNHJLDJA@?$AAs?$AAy?$AAr?$AA?9?$AAS?$AAY?$AA?$AA@ 00000001800371d0     libucrt:lcidtoname_downlevel.obj
 0002:000031e0       ??_C@_1O@MKEKBLAH@?$AAd?$AAi?$AAv?$AA?9?$AAM?$AAV?$AA?$AA@ 00000001800371e0     libucrt:lcidtoname_downlevel.obj
 0002:000031f0       ??_C@_1O@OHDCKDDF@?$AAq?$AAu?$AAz?$AA?9?$AAB?$AAO?$AA?$AA@ 00000001800371f0     libucrt:lcidtoname_downlevel.obj
 0002:00003200       ??_C@_1M@LEPJNLFD@?$AAn?$AAs?$AA?9?$AAZ?$AAA?$AA?$AA@ 0000000180037200     libucrt:lcidtoname_downlevel.obj
 0002:00003210       ??_C@_1M@OMLEIIJB@?$AAm?$AAi?$AA?9?$AAN?$AAZ?$AA?$AA@ 0000000180037210     libucrt:lcidtoname_downlevel.obj
 0002:00003220       ??_C@_1M@PMPEAILG@?$AAa?$AAr?$AA?9?$AAI?$AAQ?$AA?$AA@ 0000000180037220     libucrt:lcidtoname_downlevel.obj
 0002:00003230       ??_C@_1M@CNKPNOEE@?$AAd?$AAe?$AA?9?$AAC?$AAH?$AA?$AA@ 0000000180037230     libucrt:lcidtoname_downlevel.obj
 0002:00003240       ??_C@_1M@LKMGMLKO@?$AAe?$AAn?$AA?9?$AAG?$AAB?$AA?$AA@ 0000000180037240     libucrt:lcidtoname_downlevel.obj
 0002:00003250       ??_C@_1M@PGKJFFGL@?$AAe?$AAs?$AA?9?$AAM?$AAX?$AA?$AA@ 0000000180037250     libucrt:lcidtoname_downlevel.obj
 0002:00003260       ??_C@_1M@DNNANBDC@?$AAf?$AAr?$AA?9?$AAB?$AAE?$AA?$AA@ 0000000180037260     libucrt:lcidtoname_downlevel.obj
 0002:00003270       ??_C@_1M@HLGMDFHM@?$AAi?$AAt?$AA?9?$AAC?$AAH?$AA?$AA@ 0000000180037270     libucrt:lcidtoname_downlevel.obj
 0002:00003280       ??_C@_1M@CLLBGJH@?$AAn?$AAl?$AA?9?$AAB?$AAE?$AA?$AA@ 0000000180037280     libucrt:lcidtoname_downlevel.obj
 0002:00003290       ??_C@_1M@BODBOGLF@?$AAn?$AAn?$AA?9?$AAN?$AAO?$AA?$AA@ 0000000180037290     libucrt:lcidtoname_downlevel.obj
 0002:000032a0       ??_C@_1M@HFFAHKAD@?$AAp?$AAt?$AA?9?$AAP?$AAT?$AA?$AA@ 00000001800372a0     libucrt:lcidtoname_downlevel.obj
 0002:000032b0       ??_C@_1BG@LNOAKHIE@?$AAs?$AAr?$AA?9?$AAS?$AAP?$AA?9?$AAL?$AAa?$AAt?$AAn?$AA?$AA@ 00000001800372b0     libucrt:lcidtoname_downlevel.obj
 0002:000032c8       ??_C@_1M@HBMHBGAK@?$AAs?$AAv?$AA?9?$AAF?$AAI?$AA?$AA@ 00000001800372c8     libucrt:lcidtoname_downlevel.obj
 0002:000032d8       ??_C@_1BG@DGCJGJBE@?$AAa?$AAz?$AA?9?$AAA?$AAZ?$AA?9?$AAC?$AAy?$AAr?$AAl?$AA?$AA@ 00000001800372d8     libucrt:lcidtoname_downlevel.obj
 0002:000032f0       ??_C@_1M@KEJDAAHB@?$AAs?$AAe?$AA?9?$AAS?$AAE?$AA?$AA@ 00000001800372f0     libucrt:lcidtoname_downlevel.obj
 0002:00003300       ??_C@_1M@HEIBJJAD@?$AAm?$AAs?$AA?9?$AAB?$AAN?$AA?$AA@ 0000000180037300     libucrt:lcidtoname_downlevel.obj
 0002:00003310       ??_C@_1BG@PBGJMCEM@?$AAu?$AAz?$AA?9?$AAU?$AAZ?$AA?9?$AAC?$AAy?$AAr?$AAl?$AA?$AA@ 0000000180037310     libucrt:lcidtoname_downlevel.obj
 0002:00003328       ??_C@_1O@LAOBCMDF@?$AAq?$AAu?$AAz?$AA?9?$AAE?$AAC?$AA?$AA@ 0000000180037328     libucrt:lcidtoname_downlevel.obj
 0002:00003338       ??_C@_1M@POEEMAIO@?$AAa?$AAr?$AA?9?$AAE?$AAG?$AA?$AA@ 0000000180037338     libucrt:lcidtoname_downlevel.obj
 0002:00003348       ??_C@_1M@EFAKDEDL@?$AAz?$AAh?$AA?9?$AAH?$AAK?$AA?$AA@ 0000000180037348     libucrt:lcidtoname_downlevel.obj
 0002:00003358       ??_C@_1M@HKKIJHGI@?$AAd?$AAe?$AA?9?$AAA?$AAT?$AA?$AA@ 0000000180037358     libucrt:lcidtoname_downlevel.obj
 0002:00003368       ??_C@_1M@KBFBEHJF@?$AAe?$AAn?$AA?9?$AAA?$AAU?$AA?$AA@ 0000000180037368     libucrt:lcidtoname_downlevel.obj
 0002:00003378       ??_C@_1M@MNPLFAAH@?$AAe?$AAs?$AA?9?$AAE?$AAS?$AA?$AA@ 0000000180037378     libucrt:lcidtoname_downlevel.obj
 0002:00003388       ??_C@_1M@HJOOJFMA@?$AAf?$AAr?$AA?9?$AAC?$AAA?$AA?$AA@ 0000000180037388     libucrt:lcidtoname_downlevel.obj
 0002:00003398       ??_C@_1BG@JPOFPNAB@?$AAs?$AAr?$AA?9?$AAS?$AAP?$AA?9?$AAC?$AAy?$AAr?$AAl?$AA?$AA@ 0000000180037398     libucrt:lcidtoname_downlevel.obj
 0002:000033b0       ??_C@_1M@LNFOCMOB@?$AAs?$AAe?$AA?9?$AAF?$AAI?$AA?$AA@ 00000001800373b0     libucrt:lcidtoname_downlevel.obj
 0002:000033c0       ??_C@_1O@MGJBOAMB@?$AAq?$AAu?$AAz?$AA?9?$AAP?$AAE?$AA?$AA@ 00000001800373c0     libucrt:lcidtoname_downlevel.obj
 0002:000033d0       ??_C@_1M@GJINLBOK@?$AAa?$AAr?$AA?9?$AAL?$AAY?$AA?$AA@ 00000001800373d0     libucrt:lcidtoname_downlevel.obj
 0002:000033e0       ??_C@_1M@GGMNHJNL@?$AAz?$AAh?$AA?9?$AAS?$AAG?$AA?$AA@ 00000001800373e0     libucrt:lcidtoname_downlevel.obj
 0002:000033f0       ??_C@_1M@HOIKODND@?$AAd?$AAe?$AA?9?$AAL?$AAU?$AA?$AA@ 00000001800373f0     libucrt:lcidtoname_downlevel.obj
 0002:00003400       ??_C@_1M@DDOCCGFG@?$AAe?$AAn?$AA?9?$AAC?$AAA?$AA?$AA@ 0000000180037400     libucrt:lcidtoname_downlevel.obj
 0002:00003410       ??_C@_1M@BNOEMJLF@?$AAe?$AAs?$AA?9?$AAG?$AAT?$AA?$AA@ 0000000180037410     libucrt:lcidtoname_downlevel.obj
 0002:00003420       ??_C@_1M@EOGNKEK@?$AAf?$AAr?$AA?9?$AAC?$AAH?$AA?$AA@ 0000000180037420     libucrt:lcidtoname_downlevel.obj
 0002:00003430       ??_C@_1M@FLIDJFHL@?$AAh?$AAr?$AA?9?$AAB?$AAA?$AA?$AA@ 0000000180037430     libucrt:lcidtoname_downlevel.obj
 0002:00003440       ??_C@_1O@FMCELNAJ@?$AAs?$AAm?$AAj?$AA?9?$AAN?$AAO?$AA?$AA@ 0000000180037440     libucrt:lcidtoname_downlevel.obj
 0002:00003450       ??_C@_1M@JHGLJMGJ@?$AAa?$AAr?$AA?9?$AAD?$AAZ?$AA?$AA@ 0000000180037450     libucrt:lcidtoname_downlevel.obj
 0002:00003460       ??_C@_1M@JKKFDCNP@?$AAz?$AAh?$AA?9?$AAM?$AAO?$AA?$AA@ 0000000180037460     libucrt:lcidtoname_downlevel.obj
 0002:00003470       ??_C@_1M@GEEFALPE@?$AAd?$AAe?$AA?9?$AAL?$AAI?$AA?$AA@ 0000000180037470     libucrt:lcidtoname_downlevel.obj
 0002:00003480       ??_C@_1M@IGEOFBG@?$AAe?$AAn?$AA?9?$AAN?$AAZ?$AA?$AA@ 0000000180037480     libucrt:lcidtoname_downlevel.obj
 0002:00003490       ??_C@_1M@KDBONEHP@?$AAe?$AAs?$AA?9?$AAC?$AAR?$AA?$AA@ 0000000180037490     libucrt:lcidtoname_downlevel.obj
 0002:000034a0       ??_C@_1M@FHMDOHNN@?$AAf?$AAr?$AA?9?$AAL?$AAU?$AA?$AA@ 00000001800374a0     libucrt:lcidtoname_downlevel.obj
 0002:000034b0       ??_C@_1BG@NFKKMAFG@?$AAb?$AAs?$AA?9?$AAB?$AAA?$AA?9?$AAL?$AAa?$AAt?$AAn?$AA?$AA@ 00000001800374b0     libucrt:lcidtoname_downlevel.obj
 0002:000034c8       ??_C@_1O@IMNBEMCI@?$AAs?$AAm?$AAj?$AA?9?$AAS?$AAE?$AA?$AA@ 00000001800374c8     libucrt:lcidtoname_downlevel.obj
 0002:000034d8       ??_C@_1M@DHHMBNDP@?$AAa?$AAr?$AA?9?$AAM?$AAA?$AA?$AA@ 00000001800374d8     libucrt:lcidtoname_downlevel.obj
 0002:000034e8       ??_C@_1M@BNBLJCGH@?$AAe?$AAn?$AA?9?$AAI?$AAE?$AA?$AA@ 00000001800374e8     libucrt:lcidtoname_downlevel.obj
 0002:000034f8       ??_C@_1M@GEPAFMDL@?$AAe?$AAs?$AA?9?$AAP?$AAA?$AA?$AA@ 00000001800374f8     libucrt:lcidtoname_downlevel.obj
 0002:00003508       ??_C@_1M@OJONDMDL@?$AAf?$AAr?$AA?9?$AAM?$AAC?$AA?$AA@ 0000000180037508     libucrt:lcidtoname_downlevel.obj
 0002:00003518       ??_C@_1BG@OBCNFJB@?$AAs?$AAr?$AA?9?$AAB?$AAA?$AA?9?$AAL?$AAa?$AAt?$AAn?$AA?$AA@ 0000000180037518     libucrt:lcidtoname_downlevel.obj
 0002:00003530       ??_C@_1O@KEMEEGPO@?$AAs?$AAm?$AAa?$AA?9?$AAN?$AAO?$AA?$AA@ 0000000180037530     libucrt:lcidtoname_downlevel.obj
 0002:00003540       ??_C@_1M@ELMGFODK@?$AAa?$AAr?$AA?9?$AAT?$AAN?$AA?$AA@ 0000000180037540     libucrt:lcidtoname_downlevel.obj
 0002:00003550       ??_C@_1M@BHDLHFAF@?$AAe?$AAn?$AA?9?$AAZ?$AAA?$AA?$AA@ 0000000180037550     libucrt:lcidtoname_downlevel.obj
 0002:00003560       ??_C@_1M@BMGIGLIF@?$AAe?$AAs?$AA?9?$AAD?$AAO?$AA?$AA@ 0000000180037560     libucrt:lcidtoname_downlevel.obj
 0002:00003570       ??_C@_1BG@CMBHIPBE@?$AAs?$AAr?$AA?9?$AAB?$AAA?$AA?9?$AAC?$AAy?$AAr?$AAl?$AA?$AA@ 0000000180037570     libucrt:lcidtoname_downlevel.obj
 0002:00003588       ??_C@_1O@HEDBLHNP@?$AAs?$AAm?$AAa?$AA?9?$AAS?$AAE?$AA?$AA@ 0000000180037588     libucrt:lcidtoname_downlevel.obj
 0002:00003598       ??_C@_1M@DAGCADIM@?$AAa?$AAr?$AA?9?$AAO?$AAM?$AA?$AA@ 0000000180037598     libucrt:lcidtoname_downlevel.obj
 0002:000035a8       ??_C@_1M@FODLMICG@?$AAe?$AAn?$AA?9?$AAJ?$AAM?$AA?$AA@ 00000001800375a8     libucrt:lcidtoname_downlevel.obj
 0002:000035b8       ??_C@_1M@DNMLCIHB@?$AAe?$AAs?$AA?9?$AAV?$AAE?$AA?$AA@ 00000001800375b8     libucrt:lcidtoname_downlevel.obj
 0002:000035c8       ??_C@_1O@EOKHMKJK@?$AAs?$AAm?$AAs?$AA?9?$AAF?$AAI?$AA?$AA@ 00000001800375c8     libucrt:lcidtoname_downlevel.obj
 0002:000035d8       ??_C@_1M@CAFJMKOF@?$AAa?$AAr?$AA?9?$AAY?$AAE?$AA?$AA@ 00000001800375d8     libucrt:lcidtoname_downlevel.obj
 0002:000035e8       ??_C@_1M@CBFHIJLI@?$AAe?$AAn?$AA?9?$AAC?$AAB?$AA?$AA@ 00000001800375e8     libucrt:lcidtoname_downlevel.obj
 0002:000035f8       ??_C@_1M@BGNFLDN@?$AAe?$AAs?$AA?9?$AAC?$AAO?$AA?$AA@ 00000001800375f8     libucrt:lcidtoname_downlevel.obj
 0002:00003608       ??_C@_1O@JMPHMAMC@?$AAs?$AAm?$AAn?$AA?9?$AAF?$AAI?$AA?$AA@ 0000000180037608     libucrt:lcidtoname_downlevel.obj
 0002:00003618       ??_C@_1M@JLANABKE@?$AAa?$AAr?$AA?9?$AAS?$AAY?$AA?$AA@ 0000000180037618     libucrt:lcidtoname_downlevel.obj
 0002:00003628       ??_C@_1M@HPKGCFGN@?$AAe?$AAn?$AA?9?$AAB?$AAZ?$AA?$AA@ 0000000180037628     libucrt:lcidtoname_downlevel.obj
 0002:00003638       ??_C@_1M@OLJCMLGM@?$AAe?$AAs?$AA?9?$AAP?$AAE?$AA?$AA@ 0000000180037638     libucrt:lcidtoname_downlevel.obj
 0002:00003648       ??_C@_1M@MKKGFKLE@?$AAa?$AAr?$AA?9?$AAJ?$AAO?$AA?$AA@ 0000000180037648     libucrt:lcidtoname_downlevel.obj
 0002:00003658       ??_C@_1M@EKPGLDNI@?$AAe?$AAn?$AA?9?$AAT?$AAT?$AA?$AA@ 0000000180037658     libucrt:lcidtoname_downlevel.obj
 0002:00003668       ??_C@_1M@OONGHFHE@?$AAe?$AAs?$AA?9?$AAA?$AAR?$AA?$AA@ 0000000180037668     libucrt:lcidtoname_downlevel.obj
 0002:00003678       ??_C@_1M@OOJFGBHE@?$AAa?$AAr?$AA?9?$AAL?$AAB?$AA?$AA@ 0000000180037678     libucrt:lcidtoname_downlevel.obj
 0002:00003688       ??_C@_1M@GCEJHNEG@?$AAe?$AAn?$AA?9?$AAZ?$AAW?$AA?$AA@ 0000000180037688     libucrt:lcidtoname_downlevel.obj
 0002:00003698       ??_C@_1M@JNOCAHJI@?$AAe?$AAs?$AA?9?$AAE?$AAC?$AA?$AA@ 0000000180037698     libucrt:lcidtoname_downlevel.obj
 0002:000036a8       ??_C@_1M@JEFHPGGB@?$AAa?$AAr?$AA?9?$AAK?$AAW?$AA?$AA@ 00000001800376a8     libucrt:lcidtoname_downlevel.obj
 0002:000036b8       ??_C@_1M@MLKIBJOJ@?$AAe?$AAn?$AA?9?$AAP?$AAH?$AA?$AA@ 00000001800376b8     libucrt:lcidtoname_downlevel.obj
 0002:000036c8       ??_C@_1M@BDNIPEND@?$AAe?$AAs?$AA?9?$AAC?$AAL?$AA?$AA@ 00000001800376c8     libucrt:lcidtoname_downlevel.obj
 0002:000036d8       ??_C@_1M@MPNMEKBD@?$AAa?$AAr?$AA?9?$AAA?$AAE?$AA?$AA@ 00000001800376d8     libucrt:lcidtoname_downlevel.obj
 0002:000036e8       ??_C@_1M@KBJALCPI@?$AAe?$AAs?$AA?9?$AAU?$AAY?$AA?$AA@ 00000001800376e8     libucrt:lcidtoname_downlevel.obj
 0002:000036f8       ??_C@_1M@LLCCOAGA@?$AAa?$AAr?$AA?9?$AAB?$AAH?$AA?$AA@ 00000001800376f8     libucrt:lcidtoname_downlevel.obj
 0002:00003708       ??_C@_1M@PBFNCDEL@?$AAe?$AAs?$AA?9?$AAP?$AAY?$AA?$AA@ 0000000180037708     libucrt:lcidtoname_downlevel.obj
 0002:00003718       ??_C@_1M@EDGINPNP@?$AAa?$AAr?$AA?9?$AAQ?$AAA?$AA?$AA@ 0000000180037718     libucrt:lcidtoname_downlevel.obj
 0002:00003728       ??_C@_1M@MKDBIIJI@?$AAe?$AAs?$AA?9?$AAB?$AAO?$AA?$AA@ 0000000180037728     libucrt:lcidtoname_downlevel.obj
 0002:00003738       ??_C@_1M@CPKKEBLD@?$AAe?$AAs?$AA?9?$AAS?$AAV?$AA?$AA@ 0000000180037738     libucrt:lcidtoname_downlevel.obj
 0002:00003748       ??_C@_1M@NDBGMMJL@?$AAe?$AAs?$AA?9?$AAH?$AAN?$AA?$AA@ 0000000180037748     libucrt:lcidtoname_downlevel.obj
 0002:00003758       ??_C@_1M@JIJIBHDP@?$AAe?$AAs?$AA?9?$AAN?$AAI?$AA?$AA@ 0000000180037758     libucrt:lcidtoname_downlevel.obj
 0002:00003768       ??_C@_1M@CGFMKEEK@?$AAe?$AAs?$AA?9?$AAP?$AAR?$AA?$AA@ 0000000180037768     libucrt:lcidtoname_downlevel.obj
 0002:00003778       ??_C@_1O@ICJHKIIK@?$AAz?$AAh?$AA?9?$AAC?$AAH?$AAT?$AA?$AA@ 0000000180037778     libucrt:lcidtoname_downlevel.obj
 0002:00003788       ??_C@_15CLNEJCE@?$AAs?$AAr?$AA?$AA@ 0000000180037788     libucrt:lcidtoname_downlevel.obj
 0002:000045d0       ??_C@_1M@KAHEKEIG@?$AAa?$AAf?$AA?9?$AAz?$AAa?$AA?$AA@ 00000001800385d0     libucrt:lcidtoname_downlevel.obj
 0002:000045e0       ??_C@_1M@GIECOABL@?$AAa?$AAr?$AA?9?$AAa?$AAe?$AA?$AA@ 00000001800385e0     libucrt:lcidtoname_downlevel.obj
 0002:000045f0       ??_C@_1M@BMLMEKGI@?$AAa?$AAr?$AA?9?$AAb?$AAh?$AA?$AA@ 00000001800385f0     libucrt:lcidtoname_downlevel.obj
 0002:00004600       ??_C@_1M@DAPFDGGB@?$AAa?$AAr?$AA?9?$AAd?$AAz?$AA?$AA@ 0000000180038600     libucrt:lcidtoname_downlevel.obj
 0002:00004610       ??_C@_1M@FJNKGKIG@?$AAa?$AAr?$AA?9?$AAe?$AAg?$AA?$AA@ 0000000180038610     libucrt:lcidtoname_downlevel.obj
 0002:00004620       ??_C@_1M@FLGKKCLO@?$AAa?$AAr?$AA?9?$AAi?$AAq?$AA?$AA@ 0000000180038620     libucrt:lcidtoname_downlevel.obj
 0002:00004630       ??_C@_1M@GNDIPALM@?$AAa?$AAr?$AA?9?$AAj?$AAo?$AA?$AA@ 0000000180038630     libucrt:lcidtoname_downlevel.obj
 0002:00004640       ??_C@_1M@DDMJFMGJ@?$AAa?$AAr?$AA?9?$AAk?$AAw?$AA?$AA@ 0000000180038640     libucrt:lcidtoname_downlevel.obj
 0002:00004650       ??_C@_1M@EJALMLHM@?$AAa?$AAr?$AA?9?$AAl?$AAb?$AA?$AA@ 0000000180038650     libucrt:lcidtoname_downlevel.obj
 0002:00004660       ??_C@_1M@MOBDBLOC@?$AAa?$AAr?$AA?9?$AAl?$AAy?$AA?$AA@ 0000000180038660     libucrt:lcidtoname_downlevel.obj
 0002:00004670       ??_C@_1M@JAOCLHDH@?$AAa?$AAr?$AA?9?$AAm?$AAa?$AA?$AA@ 0000000180038670     libucrt:lcidtoname_downlevel.obj
 0002:00004680       ??_C@_1M@JHPMKJIE@?$AAa?$AAr?$AA?9?$AAo?$AAm?$AA?$AA@ 0000000180038680     libucrt:lcidtoname_downlevel.obj
 0002:00004690       ??_C@_1M@OEPGHFNH@?$AAa?$AAr?$AA?9?$AAq?$AAa?$AA?$AA@ 0000000180038690     libucrt:lcidtoname_downlevel.obj
 0002:000046a0       ??_C@_1M@KJDONENM@?$AAa?$AAr?$AA?9?$AAs?$AAa?$AA?$AA@ 00000001800386a0     libucrt:lcidtoname_downlevel.obj
 0002:000046b0       ??_C@_1M@DMJDKLKM@?$AAa?$AAr?$AA?9?$AAs?$AAy?$AA?$AA@ 00000001800386b0     libucrt:lcidtoname_downlevel.obj
 0002:000046c0       ??_C@_1M@OMFIPEDC@?$AAa?$AAr?$AA?9?$AAt?$AAn?$AA?$AA@ 00000001800386c0     libucrt:lcidtoname_downlevel.obj
 0002:000046d0       ??_C@_1M@IHMHGAON@?$AAa?$AAr?$AA?9?$AAy?$AAe?$AA?$AA@ 00000001800386d0     libucrt:lcidtoname_downlevel.obj
 0002:000046e0       ??_C@_1BG@KDCPGJGB@?$AAa?$AAz?$AA?9?$AAa?$AAz?$AA?9?$AAc?$AAy?$AAr?$AAl?$AA?$AA@ 00000001800386e0     libucrt:lcidtoname_downlevel.obj
 0002:000046f8       ??_C@_1BG@IBCKDDOE@?$AAa?$AAz?$AA?9?$AAa?$AAz?$AA?9?$AAl?$AAa?$AAt?$AAn?$AA?$AA@ 00000001800386f8     libucrt:lcidtoname_downlevel.obj
 0002:00004710       ??_C@_1M@EGPFDCPD@?$AAb?$AAe?$AA?9?$AAb?$AAy?$AA?$AA@ 0000000180038710     libucrt:lcidtoname_downlevel.obj
 0002:00004720       ??_C@_1M@PCMGMCGC@?$AAb?$AAg?$AA?9?$AAb?$AAg?$AA?$AA@ 0000000180038720     libucrt:lcidtoname_downlevel.obj
 0002:00004730       ??_C@_1M@BJBMFGOB@?$AAb?$AAn?$AA?9?$AAi?$AAn?$AA?$AA@ 0000000180038730     libucrt:lcidtoname_downlevel.obj
 0002:00004740       ??_C@_1BG@EAKMMACD@?$AAb?$AAs?$AA?9?$AAb?$AAa?$AA?9?$AAl?$AAa?$AAt?$AAn?$AA?$AA@ 0000000180038740     libucrt:lcidtoname_downlevel.obj
 0002:00004758       ??_C@_1M@KGADAODK@?$AAc?$AAa?$AA?9?$AAe?$AAs?$AA?$AA@ 0000000180038758     libucrt:lcidtoname_downlevel.obj
 0002:00004768       ??_C@_1M@COAJPDHI@?$AAc?$AAs?$AA?9?$AAc?$AAz?$AA?$AA@ 0000000180038768     libucrt:lcidtoname_downlevel.obj
 0002:00004778       ??_C@_1M@DHBHFONH@?$AAc?$AAy?$AA?9?$AAg?$AAb?$AA?$AA@ 0000000180038778     libucrt:lcidtoname_downlevel.obj
 0002:00004788       ??_C@_1M@IMGKELGA@?$AAd?$AAa?$AA?9?$AAd?$AAk?$AA?$AA@ 0000000180038788     libucrt:lcidtoname_downlevel.obj
 0002:00004798       ??_C@_1M@NNDGDNGA@?$AAd?$AAe?$AA?9?$AAa?$AAt?$AA?$AA@ 0000000180038798     libucrt:lcidtoname_downlevel.obj
 0002:000047a8       ??_C@_1M@IKDBHEEM@?$AAd?$AAe?$AA?9?$AAc?$AAh?$AA?$AA@ 00000001800387a8     libucrt:lcidtoname_downlevel.obj
 0002:000047b8       ??_C@_1M@GFFOJMCJ@?$AAd?$AAe?$AA?9?$AAd?$AAe?$AA?$AA@ 00000001800387b8     libucrt:lcidtoname_downlevel.obj
 0002:000047c8       ??_C@_1M@MDNLKBPM@?$AAd?$AAe?$AA?9?$AAl?$AAi?$AA?$AA@ 00000001800387c8     libucrt:lcidtoname_downlevel.obj
 0002:000047d8       ??_C@_1M@NJBEEJNL@?$AAd?$AAe?$AA?9?$AAl?$AAu?$AA?$AA@ 00000001800387d8     libucrt:lcidtoname_downlevel.obj
 0002:000047e8       ??_C@_1O@GNNELBAP@?$AAd?$AAi?$AAv?$AA?9?$AAm?$AAv?$AA?$AA@ 00000001800387e8     libucrt:lcidtoname_downlevel.obj
 0002:000047f8       ??_C@_1M@EJLEOGAE@?$AAe?$AAl?$AA?9?$AAg?$AAr?$AA?$AA@ 00000001800387f8     libucrt:lcidtoname_downlevel.obj
 0002:00004808       ??_C@_1M@GMPONJN@?$AAe?$AAn?$AA?9?$AAa?$AAu?$AA?$AA@ 0000000180038808     libucrt:lcidtoname_downlevel.obj
 0002:00004818       ??_C@_1M@NIDIIPGF@?$AAe?$AAn?$AA?9?$AAb?$AAz?$AA?$AA@ 0000000180038818     libucrt:lcidtoname_downlevel.obj
 0002:00004828       ??_C@_1M@JEHMIMFO@?$AAe?$AAn?$AA?9?$AAc?$AAa?$AA?$AA@ 0000000180038828     libucrt:lcidtoname_downlevel.obj
 0002:00004838       ??_C@_1M@IGMJCDLA@?$AAe?$AAn?$AA?9?$AAc?$AAb?$AA?$AA@ 0000000180038838     libucrt:lcidtoname_downlevel.obj
 0002:00004848       ??_C@_1M@BNFIGBKG@?$AAe?$AAn?$AA?9?$AAg?$AAb?$AA?$AA@ 0000000180038848     libucrt:lcidtoname_downlevel.obj
 0002:00004858       ??_C@_1M@LKIFDIGP@?$AAe?$AAn?$AA?9?$AAi?$AAe?$AA?$AA@ 0000000180038858     libucrt:lcidtoname_downlevel.obj
 0002:00004868       ??_C@_1M@PJKFGCCO@?$AAe?$AAn?$AA?9?$AAj?$AAm?$AA?$AA@ 0000000180038868     libucrt:lcidtoname_downlevel.obj
 0002:00004878       ??_C@_1M@KPPKEPBO@?$AAe?$AAn?$AA?9?$AAn?$AAz?$AA?$AA@ 0000000180038878     libucrt:lcidtoname_downlevel.obj
 0002:00004888       ??_C@_1M@GMDGLDOB@?$AAe?$AAn?$AA?9?$AAp?$AAh?$AA?$AA@ 0000000180038888     libucrt:lcidtoname_downlevel.obj
 0002:00004898       ??_C@_1M@ONGIBJNA@?$AAe?$AAn?$AA?9?$AAt?$AAt?$AA?$AA@ 0000000180038898     libucrt:lcidtoname_downlevel.obj
 0002:000048a8       ??_C@_1M@LLODPCMM@?$AAe?$AAn?$AA?9?$AAu?$AAs?$AA?$AA@ 00000001800388a8     libucrt:lcidtoname_downlevel.obj
 0002:000048b8       ??_C@_1M@LAKFNPAN@?$AAe?$AAn?$AA?9?$AAz?$AAa?$AA?$AA@ 00000001800388b8     libucrt:lcidtoname_downlevel.obj
 0002:000048c8       ??_C@_1M@MFNHNHEO@?$AAe?$AAn?$AA?9?$AAz?$AAw?$AA?$AA@ 00000001800388c8     libucrt:lcidtoname_downlevel.obj
 0002:000048d8       ??_C@_1M@EJEINPHM@?$AAe?$AAs?$AA?9?$AAa?$AAr?$AA?$AA@ 00000001800388d8     libucrt:lcidtoname_downlevel.obj
 0002:000048e8       ??_C@_1M@GNKPCCJA@?$AAe?$AAs?$AA?9?$AAb?$AAo?$AA?$AA@ 00000001800388e8     libucrt:lcidtoname_downlevel.obj
 0002:000048f8       ??_C@_1M@LEEGFONL@?$AAe?$AAs?$AA?9?$AAc?$AAl?$AA?$AA@ 00000001800388f8     libucrt:lcidtoname_downlevel.obj
 0002:00004908       ??_C@_1M@KGPDPBDF@?$AAe?$AAs?$AA?9?$AAc?$AAo?$AA?$AA@ 0000000180038908     libucrt:lcidtoname_downlevel.obj
 0002:00004918       ??_C@_1M@EIAHOHH@?$AAe?$AAs?$AA?9?$AAc?$AAr?$AA?$AA@ 0000000180038918     libucrt:lcidtoname_downlevel.obj
 0002:00004928       ??_C@_1M@LLPGMBIN@?$AAe?$AAs?$AA?9?$AAd?$AAo?$AA?$AA@ 0000000180038928     libucrt:lcidtoname_downlevel.obj
 0002:00004938       ??_C@_1M@DKHMKNJA@?$AAe?$AAs?$AA?9?$AAe?$AAc?$AA?$AA@ 0000000180038938     libucrt:lcidtoname_downlevel.obj
 0002:00004948       ??_C@_1M@GKGFPKAP@?$AAe?$AAs?$AA?9?$AAe?$AAs?$AA?$AA@ 0000000180038948     libucrt:lcidtoname_downlevel.obj
 0002:00004958       ??_C@_1M@LKHKGDLN@?$AAe?$AAs?$AA?9?$AAg?$AAt?$AA?$AA@ 0000000180038958     libucrt:lcidtoname_downlevel.obj
 0002:00004968       ??_C@_1M@HEIIGGJD@?$AAe?$AAs?$AA?9?$AAh?$AAn?$AA?$AA@ 0000000180038968     libucrt:lcidtoname_downlevel.obj
 0002:00004978       ??_C@_1M@FBDHPPGD@?$AAe?$AAs?$AA?9?$AAm?$AAx?$AA?$AA@ 0000000180038978     libucrt:lcidtoname_downlevel.obj
 0002:00004988       ??_C@_1M@DPAGLNDH@?$AAe?$AAs?$AA?9?$AAn?$AAi?$AA?$AA@ 0000000180038988     libucrt:lcidtoname_downlevel.obj
 0002:00004998       ??_C@_1M@MDGOPGDD@?$AAe?$AAs?$AA?9?$AAp?$AAa?$AA?$AA@ 0000000180038998     libucrt:lcidtoname_downlevel.obj
 0002:000049a8       ??_C@_1M@EMAMGBGE@?$AAe?$AAs?$AA?9?$AAp?$AAe?$AA?$AA@ 00000001800389a8     libucrt:lcidtoname_downlevel.obj
 0002:000049b8       ??_C@_1M@IBMCAOEC@?$AAe?$AAs?$AA?9?$AAp?$AAr?$AA?$AA@ 00000001800389b8     libucrt:lcidtoname_downlevel.obj
 0002:000049c8       ??_C@_1M@FGMDIJED@?$AAe?$AAs?$AA?9?$AAp?$AAy?$AA?$AA@ 00000001800389c8     libucrt:lcidtoname_downlevel.obj
 0002:000049d8       ??_C@_1M@IIDEOLLL@?$AAe?$AAs?$AA?9?$AAs?$AAv?$AA?$AA@ 00000001800389d8     libucrt:lcidtoname_downlevel.obj
 0002:000049e8       ??_C@_1M@GAOBIPA@?$AAe?$AAs?$AA?9?$AAu?$AAy?$AA?$AA@ 00000001800389e8     libucrt:lcidtoname_downlevel.obj
 0002:000049f8       ??_C@_1M@JKFFICHJ@?$AAe?$AAs?$AA?9?$AAv?$AAe?$AA?$AA@ 00000001800389f8     libucrt:lcidtoname_downlevel.obj
 0002:00004a08       ??_C@_1M@PNMLOJDF@?$AAe?$AAt?$AA?9?$AAe?$AAe?$AA?$AA@ 0000000180038a08     libucrt:lcidtoname_downlevel.obj
 0002:00004a18       ??_C@_1M@GHHLIKEI@?$AAe?$AAu?$AA?9?$AAe?$AAs?$AA?$AA@ 0000000180038a18     libucrt:lcidtoname_downlevel.obj
 0002:00004a28       ??_C@_1M@PBNONODE@?$AAf?$AAa?$AA?9?$AAi?$AAr?$AA?$AA@ 0000000180038a28     libucrt:lcidtoname_downlevel.obj
 0002:00004a38       ??_C@_1M@JEEHPMIL@?$AAf?$AAi?$AA?9?$AAf?$AAi?$AA?$AA@ 0000000180038a38     libucrt:lcidtoname_downlevel.obj
 0002:00004a48       ??_C@_1M@LMDCNDBA@?$AAf?$AAo?$AA?9?$AAf?$AAo?$AA?$AA@ 0000000180038a48     libucrt:lcidtoname_downlevel.obj
 0002:00004a58       ??_C@_1M@JKEOHLDK@?$AAf?$AAr?$AA?9?$AAb?$AAe?$AA?$AA@ 0000000180038a58     libucrt:lcidtoname_downlevel.obj
 0002:00004a68       ??_C@_1M@NOHADPMI@?$AAf?$AAr?$AA?9?$AAc?$AAa?$AA?$AA@ 0000000180038a68     libucrt:lcidtoname_downlevel.obj
 0002:00004a78       ??_C@_1M@KDHIHAEC@?$AAf?$AAr?$AA?9?$AAc?$AAh?$AA?$AA@ 0000000180038a78     libucrt:lcidtoname_downlevel.obj
 0002:00004a88       ??_C@_1M@MMBBFGAK@?$AAf?$AAr?$AA?9?$AAf?$AAr?$AA?$AA@ 0000000180038a88     libucrt:lcidtoname_downlevel.obj
 0002:00004a98       ??_C@_1M@PAFNENNF@?$AAf?$AAr?$AA?9?$AAl?$AAu?$AA?$AA@ 0000000180038a98     libucrt:lcidtoname_downlevel.obj
 0002:00004aa8       ??_C@_1M@EOHDJGDD@?$AAf?$AAr?$AA?9?$AAm?$AAc?$AA?$AA@ 0000000180038aa8     libucrt:lcidtoname_downlevel.obj
 0002:00004ab8       ??_C@_1M@FAPLLOPF@?$AAg?$AAl?$AA?9?$AAe?$AAs?$AA?$AA@ 0000000180038ab8     libucrt:lcidtoname_downlevel.obj
 0002:00004ac8       ??_C@_1M@FOPBFLOO@?$AAg?$AAu?$AA?9?$AAi?$AAn?$AA?$AA@ 0000000180038ac8     libucrt:lcidtoname_downlevel.obj
 0002:00004ad8       ??_C@_1M@KBMCINPM@?$AAh?$AAe?$AA?9?$AAi?$AAl?$AA?$AA@ 0000000180038ad8     libucrt:lcidtoname_downlevel.obj
 0002:00004ae8       ??_C@_1M@BBPHKFPJ@?$AAh?$AAi?$AA?9?$AAi?$AAn?$AA?$AA@ 0000000180038ae8     libucrt:lcidtoname_downlevel.obj
 0002:00004af8       ??_C@_1M@PMBNDPHD@?$AAh?$AAr?$AA?9?$AAb?$AAa?$AA?$AA@ 0000000180038af8     libucrt:lcidtoname_downlevel.obj
 0002:00004b08       ??_C@_1M@BPCKOEGE@?$AAh?$AAr?$AA?9?$AAh?$AAr?$AA?$AA@ 0000000180038b08     libucrt:lcidtoname_downlevel.obj
 0002:00004b18       ??_C@_1M@GACBMHKE@?$AAh?$AAu?$AA?9?$AAh?$AAu?$AA?$AA@ 0000000180038b18     libucrt:lcidtoname_downlevel.obj
 0002:00004b28       ??_C@_1M@MILPAJJC@?$AAh?$AAy?$AA?9?$AAa?$AAm?$AA?$AA@ 0000000180038b28     libucrt:lcidtoname_downlevel.obj
 0002:00004b38       ??_C@_1M@BABBICEC@?$AAi?$AAd?$AA?9?$AAi?$AAd?$AA?$AA@ 0000000180038b38     libucrt:lcidtoname_downlevel.obj
 0002:00004b48       ??_C@_1M@BIKNHHPF@?$AAi?$AAs?$AA?9?$AAi?$AAs?$AA?$AA@ 0000000180038b48     libucrt:lcidtoname_downlevel.obj
 0002:00004b58       ??_C@_1M@NMPCJPHE@?$AAi?$AAt?$AA?9?$AAc?$AAh?$AA?$AA@ 0000000180038b58     libucrt:lcidtoname_downlevel.obj
 0002:00004b68       ??_C@_1M@GHKGFEDF@?$AAi?$AAt?$AA?9?$AAi?$AAt?$AA?$AA@ 0000000180038b68     libucrt:lcidtoname_downlevel.obj
 0002:00004b78       ??_C@_1M@NIEJCJJA@?$AAj?$AAa?$AA?9?$AAj?$AAp?$AA?$AA@ 0000000180038b78     libucrt:lcidtoname_downlevel.obj
 0002:00004b88       ??_C@_1M@JILFNBIM@?$AAk?$AAa?$AA?9?$AAg?$AAe?$AA?$AA@ 0000000180038b88     libucrt:lcidtoname_downlevel.obj
 0002:00004b98       ??_C@_1M@PACPMGPH@?$AAk?$AAk?$AA?9?$AAk?$AAz?$AA?$AA@ 0000000180038b98     libucrt:lcidtoname_downlevel.obj
 0002:00004ba8       ??_C@_1M@IELFGMHA@?$AAk?$AAn?$AA?9?$AAi?$AAn?$AA?$AA@ 0000000180038ba8     libucrt:lcidtoname_downlevel.obj
 0002:00004bb8       ??_C@_1O@IBBJHCH@?$AAk?$AAo?$AAk?$AA?9?$AAi?$AAn?$AA?$AA@ 0000000180038bb8     libucrt:lcidtoname_downlevel.obj
 0002:00004bc8       ??_C@_1M@DMHAEOGC@?$AAk?$AAo?$AA?9?$AAk?$AAr?$AA?$AA@ 0000000180038bc8     libucrt:lcidtoname_downlevel.obj
 0002:00004bd8       ??_C@_1M@HBAHBIGA@?$AAk?$AAy?$AA?9?$AAk?$AAg?$AA?$AA@ 0000000180038bd8     libucrt:lcidtoname_downlevel.obj
 0002:00004be8       ??_C@_1M@KPMILCJG@?$AAl?$AAt?$AA?9?$AAl?$AAt?$AA?$AA@ 0000000180038be8     libucrt:lcidtoname_downlevel.obj
 0002:00004bf8       ??_C@_1M@BDEKKCA@?$AAl?$AAv?$AA?9?$AAl?$AAv?$AA?$AA@ 0000000180038bf8     libucrt:lcidtoname_downlevel.obj
 0002:00004c08       ??_C@_1M@ELCKCCJJ@?$AAm?$AAi?$AA?9?$AAn?$AAz?$AA?$AA@ 0000000180038c08     libucrt:lcidtoname_downlevel.obj
 0002:00004c18       ??_C@_1M@CBOOLAPA@?$AAm?$AAk?$AA?9?$AAm?$AAk?$AA?$AA@ 0000000180038c18     libucrt:lcidtoname_downlevel.obj
 0002:00004c28       ??_C@_1M@GPHNBJKN@?$AAm?$AAl?$AA?9?$AAi?$AAn?$AA?$AA@ 0000000180038c28     libucrt:lcidtoname_downlevel.obj
 0002:00004c38       ??_C@_1M@PABJILIG@?$AAm?$AAn?$AA?9?$AAm?$AAn?$AA?$AA@ 0000000180038c38     libucrt:lcidtoname_downlevel.obj
 0002:00004c48       ??_C@_1M@FGBKKIPG@?$AAm?$AAr?$AA?9?$AAi?$AAn?$AA?$AA@ 0000000180038c48     libucrt:lcidtoname_downlevel.obj
 0002:00004c58       ??_C@_1M@NDBPDDAL@?$AAm?$AAs?$AA?9?$AAb?$AAn?$AA?$AA@ 0000000180038c58     libucrt:lcidtoname_downlevel.obj
 0002:00004c68       ??_C@_1M@OPIHOOPI@?$AAm?$AAs?$AA?9?$AAm?$AAy?$AA?$AA@ 0000000180038c68     libucrt:lcidtoname_downlevel.obj
 0002:00004c78       ??_C@_1M@PPDBCNFM@?$AAm?$AAt?$AA?9?$AAm?$AAt?$AA?$AA@ 0000000180038c78     libucrt:lcidtoname_downlevel.obj
 0002:00004c88       ??_C@_1M@KDJDKMDD@?$AAn?$AAb?$AA?9?$AAn?$AAo?$AA?$AA@ 0000000180038c88     libucrt:lcidtoname_downlevel.obj
 0002:00004c98       ??_C@_1M@KFCFLMJP@?$AAn?$AAl?$AA?9?$AAb?$AAe?$AA?$AA@ 0000000180038c98     libucrt:lcidtoname_downlevel.obj
 0002:00004ca8       ??_C@_1M@KPOPDDGO@?$AAn?$AAl?$AA?9?$AAn?$AAl?$AA?$AA@ 0000000180038ca8     libucrt:lcidtoname_downlevel.obj
 0002:00004cb8       ??_C@_1M@LJKPEMLN@?$AAn?$AAn?$AA?9?$AAn?$AAo?$AA?$AA@ 0000000180038cb8     libucrt:lcidtoname_downlevel.obj
 0002:00004cc8       ??_C@_1M@BDGHHBFL@?$AAn?$AAs?$AA?9?$AAz?$AAa?$AA?$AA@ 0000000180038cc8     libucrt:lcidtoname_downlevel.obj
 0002:00004cd8       ??_C@_1M@IDEHOAP@?$AAp?$AAa?$AA?9?$AAi?$AAn?$AA?$AA@ 0000000180038cd8     libucrt:lcidtoname_downlevel.obj
 0002:00004ce8       ??_C@_1M@HDBKGOGH@?$AAp?$AAl?$AA?9?$AAp?$AAl?$AA?$AA@ 0000000180038ce8     libucrt:lcidtoname_downlevel.obj
 0002:00004cf8       ??_C@_1M@LJLLCMEH@?$AAp?$AAt?$AA?9?$AAb?$AAr?$AA?$AA@ 0000000180038cf8     libucrt:lcidtoname_downlevel.obj
 0002:00004d08       ??_C@_1M@NCMONAAL@?$AAp?$AAt?$AA?9?$AAp?$AAt?$AA?$AA@ 0000000180038d08     libucrt:lcidtoname_downlevel.obj
 0002:00004d18       ??_C@_1O@EAKMAJDN@?$AAq?$AAu?$AAz?$AA?9?$AAb?$AAo?$AA?$AA@ 0000000180038d18     libucrt:lcidtoname_downlevel.obj
 0002:00004d28       ??_C@_1O@BHHPIGDN@?$AAq?$AAu?$AAz?$AA?9?$AAe?$AAc?$AA?$AA@ 0000000180038d28     libucrt:lcidtoname_downlevel.obj
 0002:00004d38       ??_C@_1O@GBAPEKMJ@?$AAq?$AAu?$AAz?$AA?9?$AAp?$AAe?$AA?$AA@ 0000000180038d38     libucrt:lcidtoname_downlevel.obj
 0002:00004d48       ??_C@_1M@CLGLEFBO@?$AAr?$AAo?$AA?9?$AAr?$AAo?$AA?$AA@ 0000000180038d48     libucrt:lcidtoname_downlevel.obj
 0002:00004d58       ??_C@_1M@CEEDODME@?$AAr?$AAu?$AA?9?$AAr?$AAu?$AA?$AA@ 0000000180038d58     libucrt:lcidtoname_downlevel.obj
 0002:00004d68       ??_C@_1M@HPKKKMPP@?$AAs?$AAa?$AA?9?$AAi?$AAn?$AA?$AA@ 0000000180038d68     libucrt:lcidtoname_downlevel.obj
 0002:00004d78       ??_C@_1M@BKMAIGOJ@?$AAs?$AAe?$AA?9?$AAf?$AAi?$AA?$AA@ 0000000180038d78     libucrt:lcidtoname_downlevel.obj
 0002:00004d88       ??_C@_1M@NDPIFLFI@?$AAs?$AAe?$AA?9?$AAn?$AAo?$AA?$AA@ 0000000180038d88     libucrt:lcidtoname_downlevel.obj
 0002:00004d98       ??_C@_1M@DANKKHJ@?$AAs?$AAe?$AA?9?$AAs?$AAe?$AA?$AA@ 0000000180038d98     libucrt:lcidtoname_downlevel.obj
 0002:00004da8       ??_C@_1M@PNBLONPJ@?$AAs?$AAk?$AA?9?$AAs?$AAk?$AA?$AA@ 0000000180038da8     libucrt:lcidtoname_downlevel.obj
 0002:00004db8       ??_C@_1M@LFMODOAL@?$AAs?$AAl?$AA?9?$AAs?$AAi?$AA?$AA@ 0000000180038db8     libucrt:lcidtoname_downlevel.obj
 0002:00004dc8       ??_C@_1O@DFKOMPG@?$AAs?$AAm?$AAa?$AA?9?$AAn?$AAo?$AA?$AA@ 0000000180038dc8     libucrt:lcidtoname_downlevel.obj
 0002:00004dd8       ??_C@_1O@NDKPBNNH@?$AAs?$AAm?$AAa?$AA?9?$AAs?$AAe?$AA?$AA@ 0000000180038dd8     libucrt:lcidtoname_downlevel.obj
 0002:00004de8       ??_C@_1O@PLLKBHAB@?$AAs?$AAm?$AAj?$AA?9?$AAn?$AAo?$AA?$AA@ 0000000180038de8     libucrt:lcidtoname_downlevel.obj
 0002:00004df8       ??_C@_1O@CLEPOGCA@?$AAs?$AAm?$AAj?$AA?9?$AAs?$AAe?$AA?$AA@ 0000000180038df8     libucrt:lcidtoname_downlevel.obj
 0002:00004e08       ??_C@_1O@DLGJGKMK@?$AAs?$AAm?$AAn?$AA?9?$AAf?$AAi?$AA?$AA@ 0000000180038e08     libucrt:lcidtoname_downlevel.obj
 0002:00004e18       ??_C@_1O@OJDJGAJC@?$AAs?$AAm?$AAs?$AA?9?$AAf?$AAi?$AA?$AA@ 0000000180038e18     libucrt:lcidtoname_downlevel.obj
 0002:00004e28       ??_C@_1M@BOFOGHPB@?$AAs?$AAq?$AA?9?$AAa?$AAl?$AA?$AA@ 0000000180038e28     libucrt:lcidtoname_downlevel.obj
 0002:00004e38       ??_C@_1BG@LJBBIPGB@?$AAs?$AAr?$AA?9?$AAb?$AAa?$AA?9?$AAc?$AAy?$AAr?$AAl?$AA?$AA@ 0000000180038e38     libucrt:lcidtoname_downlevel.obj
 0002:00004e50       ??_C@_1BG@JLBENFOE@?$AAs?$AAr?$AA?9?$AAb?$AAa?$AA?9?$AAl?$AAa?$AAt?$AAn?$AA?$AA@ 0000000180038e50     libucrt:lcidtoname_downlevel.obj
 0002:00004e68       ??_C@_1BG@KODPNHE@?$AAs?$AAr?$AA?9?$AAs?$AAp?$AA?9?$AAc?$AAy?$AAr?$AAl?$AA?$AA@ 0000000180038e68     libucrt:lcidtoname_downlevel.obj
 0002:00004e80       ??_C@_1BG@CIOGKHPB@?$AAs?$AAr?$AA?9?$AAs?$AAp?$AA?9?$AAl?$AAa?$AAt?$AAn?$AA?$AA@ 0000000180038e80     libucrt:lcidtoname_downlevel.obj
 0002:00004e98       ??_C@_1M@NGFJLMAC@?$AAs?$AAv?$AA?9?$AAf?$AAi?$AA?$AA@ 0000000180038e98     libucrt:lcidtoname_downlevel.obj
 0002:00004ea8       ??_C@_1M@MPJEJAJC@?$AAs?$AAv?$AA?9?$AAs?$AAe?$AA?$AA@ 0000000180038ea8     libucrt:lcidtoname_downlevel.obj
 0002:00004eb8       ??_C@_1M@MPNDHLFK@?$AAs?$AAw?$AA?9?$AAk?$AAe?$AA?$AA@ 0000000180038eb8     libucrt:lcidtoname_downlevel.obj
 0002:00004ec8       ??_C@_1O@KOHBJJI@?$AAs?$AAy?$AAr?$AA?9?$AAs?$AAy?$AA?$AA@ 0000000180038ec8     libucrt:lcidtoname_downlevel.obj
 0002:00004ed8       ??_C@_1M@LDCEFHA@?$AAt?$AAa?$AA?9?$AAi?$AAn?$AA?$AA@ 0000000180038ed8     libucrt:lcidtoname_downlevel.obj
 0002:00004ee8       ??_C@_1M@CNJOFAK@?$AAt?$AAe?$AA?9?$AAi?$AAn?$AA?$AA@ 0000000180038ee8     libucrt:lcidtoname_downlevel.obj
 0002:00004ef8       ??_C@_1M@GNAECACD@?$AAt?$AAh?$AA?9?$AAt?$AAh?$AA?$AA@ 0000000180038ef8     libucrt:lcidtoname_downlevel.obj
 0002:00004f08       ??_C@_1M@CHBIHOJO@?$AAt?$AAn?$AA?9?$AAz?$AAa?$AA?$AA@ 0000000180038f08     libucrt:lcidtoname_downlevel.obj
 0002:00004f18       ??_C@_1M@GCCMIGPJ@?$AAt?$AAr?$AA?9?$AAt?$AAr?$AA?$AA@ 0000000180038f18     libucrt:lcidtoname_downlevel.obj
 0002:00004f28       ??_C@_1M@CELMCNBK@?$AAt?$AAt?$AA?9?$AAr?$AAu?$AA?$AA@ 0000000180038f28     libucrt:lcidtoname_downlevel.obj
 0002:00004f38       ??_C@_1M@KLMCELGA@?$AAu?$AAk?$AA?9?$AAu?$AAa?$AA?$AA@ 0000000180038f38     libucrt:lcidtoname_downlevel.obj
 0002:00004f48       ??_C@_1M@EPAJJAJF@?$AAu?$AAr?$AA?9?$AAp?$AAk?$AA?$AA@ 0000000180038f48     libucrt:lcidtoname_downlevel.obj
 0002:00004f58       ??_C@_1BG@GEGPMCDJ@?$AAu?$AAz?$AA?9?$AAu?$AAz?$AA?9?$AAc?$AAy?$AAr?$AAl?$AA?$AA@ 0000000180038f58     libucrt:lcidtoname_downlevel.obj
 0002:00004f70       ??_C@_1BG@EGGKJILM@?$AAu?$AAz?$AA?9?$AAu?$AAz?$AA?9?$AAl?$AAa?$AAt?$AAn?$AA?$AA@ 0000000180038f70     libucrt:lcidtoname_downlevel.obj
 0002:00004f88       ??_C@_1M@GFOCLFF@?$AAv?$AAi?$AA?9?$AAv?$AAn?$AA?$AA@ 0000000180038f88     libucrt:lcidtoname_downlevel.obj
 0002:00004f98       ??_C@_1M@CPAMEDFI@?$AAx?$AAh?$AA?9?$AAz?$AAa?$AA?$AA@ 0000000180038f98     libucrt:lcidtoname_downlevel.obj
 0002:00004fa8       ??_C@_1O@EBKIFIGN@?$AAz?$AAh?$AA?9?$AAc?$AAh?$AAs?$AA?$AA@ 0000000180038fa8     libucrt:lcidtoname_downlevel.obj
 0002:00004fb8       ??_C@_1O@NMHPGANE@?$AAz?$AAh?$AA?9?$AAc?$AAh?$AAt?$AA?$AA@ 0000000180038fb8     libucrt:lcidtoname_downlevel.obj
 0002:00004fc8       ??_C@_1M@LPINJOMC@?$AAz?$AAh?$AA?9?$AAc?$AAn?$AA?$AA@ 0000000180038fc8     libucrt:lcidtoname_downlevel.obj
 0002:00004fd8       ??_C@_1M@OCJEJODD@?$AAz?$AAh?$AA?9?$AAh?$AAk?$AA?$AA@ 0000000180038fd8     libucrt:lcidtoname_downlevel.obj
 0002:00004fe8       ??_C@_1M@DNDLJINH@?$AAz?$AAh?$AA?9?$AAm?$AAo?$AA?$AA@ 0000000180038fe8     libucrt:lcidtoname_downlevel.obj
 0002:00004ff8       ??_C@_1M@MBFDNDND@?$AAz?$AAh?$AA?9?$AAs?$AAg?$AA?$AA@ 0000000180038ff8     libucrt:lcidtoname_downlevel.obj
 0002:00005008       ??_C@_1M@IMEPLEPE@?$AAz?$AAh?$AA?9?$AAt?$AAw?$AA?$AA@ 0000000180039008     libucrt:lcidtoname_downlevel.obj
 0002:00005018       ??_C@_1M@BBGHNHJP@?$AAz?$AAu?$AA?9?$AAz?$AAa?$AA?$AA@ 0000000180039018     libucrt:lcidtoname_downlevel.obj
 0002:00005e70       ??_C@_15EMKDOKLE@?$AAa?$AAr?$AA?$AA@ 0000000180039e70     libucrt:lcidtoname_downlevel.obj
 0002:00005e78       ??_C@_15KNPADPLH@?$AAb?$AAg?$AA?$AA@ 0000000180039e78     libucrt:lcidtoname_downlevel.obj
 0002:00005e80       ??_C@_15EDMHLDMO@?$AAc?$AAa?$AA?$AA@ 0000000180039e80     libucrt:lcidtoname_downlevel.obj
 0002:00005e88       ??_C@_1O@BPEAJADD@?$AAz?$AAh?$AA?9?$AAC?$AAH?$AAS?$AA?$AA@ 0000000180039e88     libucrt:lcidtoname_downlevel.obj
 0002:00005e98       ??_C@_15LJNHCMNK@?$AAc?$AAs?$AA?$AA@ 0000000180039e98     libucrt:lcidtoname_downlevel.obj
 0002:00005ea0       ??_C@_15FOMCIDHG@?$AAd?$AAa?$AA?$AA@ 0000000180039ea0     libucrt:lcidtoname_downlevel.obj
 0002:00005ea8       ??_C@_15NBKABECB@?$AAd?$AAe?$AA?$AA@ 0000000180039ea8     libucrt:lcidtoname_downlevel.obj
 0002:00005eb0       ??_C@_15GHPEIIAO@?$AAe?$AAl?$AA?$AA@ 0000000180039eb0     libucrt:lcidtoname_downlevel.obj
 0002:00005eb8       ??_C@_15MNPNEAIF@?$AAe?$AAn?$AA?$AA@ 0000000180039eb8     libucrt:lcidtoname_downlevel.obj
 0002:00005ec0       ??_C@_15GPIOMPMH@?$AAe?$AAs?$AA?$AA@ 0000000180039ec0     libucrt:lcidtoname_downlevel.obj
 0002:00005ec8       ??_C@_15NGLOAKJC@?$AAf?$AAi?$AA?$AA@ 0000000180039ec8     libucrt:lcidtoname_downlevel.obj
 0002:00005ed0       ??_C@_15FBKGNKAM@?$AAf?$AAr?$AA?$AA@ 0000000180039ed0     libucrt:lcidtoname_downlevel.obj
 0002:00005ed8       ??_C@_15KGGCNEFK@?$AAh?$AAe?$AA?$AA@ 0000000180039ed8     libucrt:lcidtoname_downlevel.obj
 0002:00005ee0       ??_C@_15PGHLIDMF@?$AAh?$AAu?$AA?$AA@ 0000000180039ee0     libucrt:lcidtoname_downlevel.obj
 0002:00005ee8       ??_C@_15BIEMAPLM@?$AAi?$AAs?$AA?$AA@ 0000000180039ee8     libucrt:lcidtoname_downlevel.obj
 0002:00005ef0       ??_C@_15IFJLDHAF@?$AAi?$AAt?$AA?$AA@ 0000000180039ef0     libucrt:lcidtoname_downlevel.obj
 0002:00005ef8       ??_C@_15GEMIOCAG@?$AAj?$AAa?$AA?$AA@ 0000000180039ef8     libucrt:lcidtoname_downlevel.obj
 0002:00005f00       ??_C@_15EPELEGJA@?$AAk?$AAo?$AA?$AA@ 0000000180039f00     libucrt:lcidtoname_downlevel.obj
 0002:00005f08       ??_C@_15NDDHIMN@?$AAn?$AAl?$AA?$AA@ 0000000180039f08     libucrt:lcidtoname_downlevel.obj
 0002:00005f10       ??_C@_15BPIGNHCD@?$AAn?$AAo?$AA?$AA@ 0000000180039f10     libucrt:lcidtoname_downlevel.obj
 0002:00005f18       ??_C@_15DEOPBLCG@?$AAp?$AAl?$AA?$AA@ 0000000180039f18     libucrt:lcidtoname_downlevel.obj
 0002:00005f20       ??_C@_15KBECGEFG@?$AAp?$AAt?$AA?$AA@ 0000000180039f20     libucrt:lcidtoname_downlevel.obj
 0002:00005f28       ??_C@_15GLJCBFMD@?$AAr?$AAo?$AA?$AA@ 0000000180039f28     libucrt:lcidtoname_downlevel.obj
 0002:00005f30       ??_C@_15FEDGKCDI@?$AAr?$AAu?$AA?$AA@ 0000000180039f30     libucrt:lcidtoname_downlevel.obj
 0002:00005f38       ??_C@_15GLKMLLHM@?$AAh?$AAr?$AA?$AA@ 0000000180039f38     libucrt:lcidtoname_downlevel.obj
 0002:00005f40       ??_C@_15CPKMFBDB@?$AAs?$AAk?$AA?$AA@ 0000000180039f40     libucrt:lcidtoname_downlevel.obj
 0002:00005f48       ??_C@_15BAAIOGMK@?$AAs?$AAq?$AA?$AA@ 0000000180039f48     libucrt:lcidtoname_downlevel.obj
 0002:00005f50       ??_C@_15INNPNOHD@?$AAs?$AAv?$AA?$AA@ 0000000180039f50     libucrt:lcidtoname_downlevel.obj
 0002:00005f58       ??_C@_15CABMMOGH@?$AAt?$AAh?$AA?$AA@ 0000000180039f58     libucrt:lcidtoname_downlevel.obj
 0002:00005f60       ??_C@_15BPLIHJJM@?$AAt?$AAr?$AA?$AA@ 0000000180039f60     libucrt:lcidtoname_downlevel.obj
 0002:00005f68       ??_C@_15NEOEKKDJ@?$AAu?$AAr?$AA?$AA@ 0000000180039f68     libucrt:lcidtoname_downlevel.obj
 0002:00005f70       ??_C@_15NFICGAJK@?$AAi?$AAd?$AA?$AA@ 0000000180039f70     libucrt:lcidtoname_downlevel.obj
 0002:00005f78       ??_C@_15HPJPHDM@?$AAb?$AAe?$AA?$AA@ 0000000180039f78     libucrt:lcidtoname_downlevel.obj
 0002:00005f80       ??_C@_15LCHLGJII@?$AAs?$AAl?$AA?$AA@ 0000000180039f80     libucrt:lcidtoname_downlevel.obj
 0002:00005f88       ??_C@_15PCFJPHHO@?$AAe?$AAt?$AA?$AA@ 0000000180039f88     libucrt:lcidtoname_downlevel.obj
 0002:00005f90       ??_C@_15HPFPGODN@?$AAl?$AAv?$AA?$AA@ 0000000180039f90     libucrt:lcidtoname_downlevel.obj
 0002:00005f98       ??_C@_15NFFGKGLG@?$AAl?$AAt?$AA?$AA@ 0000000180039f98     libucrt:lcidtoname_downlevel.obj
 0002:00005fa0       ??_C@_15BDAKCCHN@?$AAf?$AAa?$AA?$AA@ 0000000180039fa0     libucrt:lcidtoname_downlevel.obj
 0002:00005fa8       ??_C@_15NFGIAIAJ@?$AAv?$AAi?$AA?$AA@ 0000000180039fa8     libucrt:lcidtoname_downlevel.obj
 0002:00005fb0       ??_C@_15LMKNDMHN@?$AAh?$AAy?$AA?$AA@ 0000000180039fb0     libucrt:lcidtoname_downlevel.obj
 0002:00005fb8       ??_C@_15IJBHMCFL@?$AAa?$AAz?$AA?$AA@ 0000000180039fb8     libucrt:lcidtoname_downlevel.obj
 0002:00005fc0       ??_C@_15EKOFJABL@?$AAe?$AAu?$AA?$AA@ 0000000180039fc0     libucrt:lcidtoname_downlevel.obj
 0002:00005fc8       ??_C@_15BGHADCNK@?$AAm?$AAk?$AA?$AA@ 0000000180039fc8     libucrt:lcidtoname_downlevel.obj
 0002:00005fd0       ??_C@_15JDNICKHM@?$AAa?$AAf?$AA?$AA@ 0000000180039fd0     libucrt:lcidtoname_downlevel.obj
 0002:00005fd8       ??_C@_15KPJEDBKD@?$AAk?$AAa?$AA?$AA@ 0000000180039fd8     libucrt:lcidtoname_downlevel.obj
 0002:00005fe0       ??_C@_15PDNFFFEO@?$AAf?$AAo?$AA?$AA@ 0000000180039fe0     libucrt:lcidtoname_downlevel.obj
 0002:00005fe8       ??_C@_15OMLEGLOC@?$AAh?$AAi?$AA?$AA@ 0000000180039fe8     libucrt:lcidtoname_downlevel.obj
 0002:00005ff0       ??_C@_15IDNNENKK@?$AAm?$AAs?$AA?$AA@ 0000000180039ff0     libucrt:lcidtoname_downlevel.obj
 0002:00005ff8       ??_C@_15MACJNBMH@?$AAk?$AAk?$AA?$AA@ 0000000180039ff8     libucrt:lcidtoname_downlevel.obj
 0002:00006000       ??_C@_15DKDJEOND@?$AAk?$AAy?$AA?$AA@ 000000018003a000     libucrt:lcidtoname_downlevel.obj
 0002:00006008       ??_C@_15DFGDLJBG@?$AAs?$AAw?$AA?$AA@ 000000018003a008     libucrt:lcidtoname_downlevel.obj
 0002:00006010       ??_C@_15BBFAICNG@?$AAu?$AAz?$AA?$AA@ 000000018003a010     libucrt:lcidtoname_downlevel.obj
 0002:00006018       ??_C@_15DKNDCGEA@?$AAt?$AAt?$AA?$AA@ 000000018003a018     libucrt:lcidtoname_downlevel.obj
 0002:00006020       ??_C@_15MGIFMDPL@?$AAp?$AAa?$AA?$AA@ 000000018003a020     libucrt:lcidtoname_downlevel.obj
 0002:00006028       ??_C@_15HCNDBBA@?$AAg?$AAu?$AA?$AA@ 000000018003a028     libucrt:lcidtoname_downlevel.obj
 0002:00006030       ??_C@_15FNBEIBON@?$AAt?$AAa?$AA?$AA@ 000000018003a030     libucrt:lcidtoname_downlevel.obj
 0002:00006038       ??_C@_15NCHGBGLK@?$AAt?$AAe?$AA?$AA@ 000000018003a038     libucrt:lcidtoname_downlevel.obj
 0002:00006040       ??_C@_15PHPHCBPF@?$AAk?$AAn?$AA?$AA@ 000000018003a040     libucrt:lcidtoname_downlevel.obj
 0002:00006048       ??_C@_15DLGBCKMP@?$AAm?$AAr?$AA?$AA@ 000000018003a048     libucrt:lcidtoname_downlevel.obj
 0002:00006050       ??_C@_15EABBLBFF@?$AAs?$AAa?$AA?$AA@ 000000018003a050     libucrt:lcidtoname_downlevel.obj
 0002:00006058       ??_C@_15CBKOMCOI@?$AAm?$AAn?$AA?$AA@ 000000018003a058     libucrt:lcidtoname_downlevel.obj
 0002:00006060       ??_C@_15CKDMCJAF@?$AAg?$AAl?$AA?$AA@ 000000018003a060     libucrt:lcidtoname_downlevel.obj
 0002:00006068       ??_C@_17CNJFBPG@?$AAk?$AAo?$AAk?$AA?$AA@ 000000018003a068     libucrt:lcidtoname_downlevel.obj
 0002:00006070       ??_C@_17FFBJICPL@?$AAs?$AAy?$AAr?$AA?$AA@ 000000018003a070     libucrt:lcidtoname_downlevel.obj
 0002:00006078       ??_C@_17KPNDCPAF@?$AAd?$AAi?$AAv?$AA?$AA@ 000000018003a078     libucrt:lcidtoname_downlevel.obj
 0002:00006080       ??_C@_11LOCGONAA@?$AA?$AA@ 000000018003a080     libucrt:lcidtoname_downlevel.obj
 0002:00006088       ??_C@_1M@OKAHONE@?$AAa?$AAr?$AA?9?$AAS?$AAA?$AA?$AA@ 000000018003a088     libucrt:lcidtoname_downlevel.obj
 0002:00006098       ??_C@_1M@FFFIGIGK@?$AAb?$AAg?$AA?9?$AAB?$AAG?$AA?$AA@ 000000018003a098     libucrt:lcidtoname_downlevel.obj
 0002:000060b0       ?large_power_data@?1??multiply_by_power_of_ten@__crt_strtox@@YA_NAEAUbig_integer@2@I@Z@4QBIB 000000018003a0b0     libucrt:cfout.obj
 0002:000069c0       ?large_power_indices@?1??multiply_by_power_of_ten@__crt_strtox@@YA_NAEAUbig_integer@2@I@Z@4QBUunpack_index@?1??12@YA_N0I@Z@B 000000018003a9c0     libucrt:cfout.obj
 0002:00006a58       ?small_powers_of_ten@?1??multiply_by_power_of_ten@__crt_strtox@@YA_NAEAUbig_integer@2@I@Z@4QBIB 000000018003aa58     libucrt:cfout.obj
 0002:00006a7c       ??_C@_01GBGANLPD@0?$AA@    000000018003aa7c     libucrt:cfout.obj
 0002:00006a80       ??_C@_05DNEBIAHO@1?$CDINF?$AA@ 000000018003aa80     libucrt:cfout.obj
 0002:00006a88       ??_C@_06IMKFLFPG@1?$CDQNAN?$AA@ 000000018003aa88     libucrt:cfout.obj
 0002:00006a90       ??_C@_06PGGFOGJG@1?$CDSNAN?$AA@ 000000018003aa90     libucrt:cfout.obj
 0002:00006a98       ??_C@_05PHHOCPM@1?$CDIND?$AA@ 000000018003aa98     libucrt:cfout.obj
 0002:00006cf0       ??_C@_1BA@BALFACEM@?$AAC?$AAO?$AAN?$AAO?$AAU?$AAT?$AA$?$AA?$AA@ 000000018003acf0     libucrt:initcon.obj
 0002:00006d00       __log10_256_lead           000000018003ad00     libucrt:log10_256_lead_tail_table.obj
 0002:00007510       __log10_256_tail           000000018003b510     libucrt:log10_256_lead_tail_table.obj
 0002:00007d20       __log_F_inv_qword          000000018003bd20     libucrt:log_f_inv_qword_table.obj
 0002:00008530       ??_C@_05HGHHAHAP@log10?$AA@ 000000018003c530     libucrt:log_special.obj
 0002:00008550       ??_C@_1BK@DBDEIDLH@?$AAK?$AAE?$AAR?$AAN?$AAE?$AAL?$AA3?$AA2?$AA?4?$AAD?$AAL?$AAL?$AA?$AA@ 000000018003c550     DelayImp:delayhlp.obj
 0002:00008570       ??_C@_0BI@OMNLIJDB@AcquireSRWLockExclusive?$AA@ 000000018003c570     DelayImp:delayhlp.obj
 0002:00008588       ??_C@_0BI@HMIEPCNJ@ReleaseSRWLockExclusive?$AA@ 000000018003c588     DelayImp:delayhlp.obj
 0002:000085a0       __pfnDliFailureHook2       000000018003c5a0     DelayImp:delayhk1.obj
 0002:000085b0       _load_config_used          000000018003c5b0     LIBCMT:loadcfg.obj
 0002:000086a8       ??_C@_09DNJONEBC@secp112r1?$AA@ 000000018003c6a8     main.obj
 0002:000086b8       ??_C@_09BGLDIHNB@secp112r2?$AA@ 000000018003c6b8     main.obj
 0002:000086c8       ??_C@_09BFIDEOKG@secp128r1?$AA@ 000000018003c6c8     main.obj
 0002:000086d8       ??_C@_09DOKOBNGF@secp128r2?$AA@ 000000018003c6d8     main.obj
 0002:000086e8       ??_C@_09DGEAFIHG@secp160k1?$AA@ 000000018003c6e8     main.obj
 0002:000086f8       ??_C@_09CFLHMAIJ@secp160r1?$AA@ 000000018003c6f8     main.obj
 0002:00008708       ??_C@_09OJKJDEK@secp160r2?$AA@ 000000018003c708     main.obj
 0002:00008718       ??_C@_09NOOJPND@secp192r1?$AA@ 000000018003c718     main.obj
 0002:00008728       ??_C@_09BOBJAHCM@secp192k1?$AA@ 000000018003c728     main.obj
 0002:00008738       ??_C@_09MKDGBLEP@secp224k1?$AA@ 000000018003c738     main.obj
 0002:00008748       ??_C@_09NJMBIDLA@secp224r1?$AA@ 000000018003c748     main.obj
 0002:00008758       ??_C@_09NCBPAPNE@secp256k1?$AA@ 000000018003c758     main.obj
 0002:00008768       ??_C@_09MBOIJHCL@secp256r1?$AA@ 000000018003c768     main.obj
 0002:00008778       ??_C@_09FICNEILE@secp384r1?$AA@ 000000018003c778     main.obj
 0002:00008788       ??_C@_09PDBKEDDK@secp521r1?$AA@ 000000018003c788     main.obj
 0002:00008798       ??_C@_09HBGNJHGE@sect113r1?$AA@ 000000018003c798     main.obj
 0002:000087a8       ??_C@_09FKEAMEKH@sect113r2?$AA@ 000000018003c7a8     main.obj
 0002:000087b8       ??_C@_09KBKEAMIP@sect131r1?$AA@ 000000018003c7b8     main.obj
 0002:000087c8       ??_C@_09IKIJFPEM@sect131r2?$AA@ 000000018003c7c8     main.obj
 0002:000087d8       ??_C@_09NALKNDIL@sect163k1?$AA@ 000000018003c7d8     main.obj
 0002:000087e8       ??_C@_09MDENELHE@sect163r1?$AA@ 000000018003c7e8     main.obj
 0002:000087f8       ??_C@_09OIGABILH@sect163r2?$AA@ 000000018003c7f8     main.obj
 0002:00008808       ??_C@_09EBBNNMKF@sect193r1?$AA@ 000000018003c808     main.obj
 0002:00008818       ??_C@_09GKDAIPGG@sect193r2?$AA@ 000000018003c818     main.obj
 0002:00008828       ??_C@_09JOMOCOFF@sect233k1?$AA@ 000000018003c828     main.obj
 0002:00008838       ??_C@_09INDJLGKK@sect233r1?$AA@ 000000018003c838     main.obj
 0002:00008848       ??_C@_09PBHDMODB@sect239k1?$AA@ 000000018003c848     main.obj
 0002:00008858       ??_C@_09OJBOBPEE@sect283k1?$AA@ 000000018003c858     main.obj
 0002:00008868       ??_C@_09PKOJIHLL@sect283r1?$AA@ 000000018003c868     main.obj
 0002:00008878       ??_C@_09GAIKFHPM@sect409k1?$AA@ 000000018003c878     main.obj
 0002:00008888       ??_C@_09HDHNMPAD@sect409r1?$AA@ 000000018003c888     main.obj
 0002:00008898       ??_C@_09NMECHAKG@sect571k1?$AA@ 000000018003c898     main.obj
 0002:000088a8       ??_C@_09MPLFOIFJ@sect571r1?$AA@ 000000018003c8a8     main.obj
 0002:000088b8       ??_C@_0O@NPGHPNMP@EcNamedCurves?$AA@ 000000018003c8b8     main.obj
 0002:000088c8       ??_C@_05MAOLHBFO@RSA_3?$AA@ 000000018003c8c8     main.obj
 0002:000088d0       ??_C@_06GFADMOMO@RSA_F4?$AA@ 000000018003c8d0     main.obj
 0002:000088d8       ??_C@_0BC@MGGIKLOM@RsaPublicExponent?$AA@ 000000018003c8d8     main.obj
 0002:000088ec       ??_C@_06EKOLBGFH@PUBLIC?$AA@ 000000018003c8ec     main.obj
 0002:000088f8       ??_C@_07CBKGEIHF@PRIVATE?$AA@ 000000018003c8f8     main.obj
 0002:00008900       ??_C@_07IMFGLAMJ@KeyType?$AA@ 000000018003c900     main.obj
 0002:00008908       ??_C@_0BA@FIPBKFBN@?4?4?2src?2main?4cpp?$AA@ 000000018003c908     main.obj
 0002:00008918       ??_C@_07GIAOGLC@nodessl?$AA@ 000000018003c918     main.obj
 0002:00008920       ??_C@_0BC@BDKFLDHL@unknown?5exception?$AA@ 000000018003c920     key_exp.obj
 0002:00008938       ??_C@_0BA@JFNIOLAK@string?5too?5long?$AA@ 000000018003c938     key_exp.obj
 0002:00008948       ??_7?$_Ref_count@V?$basic_string@DU?$char_traits@D@std@@V?$allocator@D@2@@std@@@std@@6B@ 000000018003c948     key_exp.obj
 0002:00008968       ??_7?$_Ref_count@V?$ScopedSSL@Uevp_pkey_st@@$1?ScopedEVP_PKEY_free@@YAXPEAX@Z@@@std@@6B@ 000000018003c968     key_exp.obj
 0002:00008988       ??_7_Ref_count_base@std@@6B@ 000000018003c988     key_exp.obj
 0002:000089a8       ??_7exception@stdext@@6B@  000000018003c9a8     key_exp.obj
 0002:000089c0       ??_C@_0P@GKFECDFN@EVP_MD?5is?5NULL?$AA@ 000000018003c9c0     digest.obj
 0002:000089d0       ??_C@_0CB@FBKINMMN@Unsupported?5publicExponent?5value@ 000000018003c9d0     rsa_gen.obj
 0002:000089f4       ??_C@_03DICHAJGH@RSA?$AA@  000000018003c9f4     rsa_jwk.obj
 0002:000089f8       ??_C@_0BI@DCNGCDG@Wrong?5value?5of?5key_type?$AA@ 000000018003c9f8     rsa_jwk.obj
 0002:00008a10       ??_C@_0BF@BEONMJLH@Key?5value?5is?5nullptr?$AA@ 000000018003ca10     rsa_jwk.obj
 0002:00008a28       ??_C@_0BE@BIKHACCC@Key?5is?5not?5RSA?5type?$AA@ 000000018003ca28     rsa_jwk.obj
 0002:00008a40       ??_C@_0BD@JFJKJBNJ@JWK?5key?5is?5not?5RSA?$AA@ 000000018003ca40     rsa_jwk.obj
 0002:00008a58       ??_7?$_Ref_count@VJwkRsa@@@std@@6B@ 000000018003ca58     rsa_jwk.obj
 0002:00008a78       ??_C@_0BI@DOHIBDJD@?4?4?2src?2rsa?2rsa_oaep?4cpp?$AA@ 000000018003ca78     rsa_oaep.obj
 0002:00008a90       ??_C@_0CE@KAFMPMDJ@GetEcGroupOrderSize?3?5Key?5is?5null@ 000000018003ca90     ec_dsa.obj
 0002:00008ab8       ??_C@_0CD@HJKNMMIE@GetEcGroupOrderSize?3?5Key?5is?5not?5@ 000000018003cab8     ec_dsa.obj
 0002:00008ae0       ??_C@_0BI@KMPPCAKA@Wrong?5leng?5for?5truncate?$AA@ 000000018003cae0     ec_dh.obj
 0002:00008af8       ??_C@_0DB@DOFHAAFP@EVP_PKEY_get1_EC_KEY?4?5Can?5not?5ge@ 000000018003caf8     ec_dh.obj
 0002:00008b30       ??_C@_0CH@DHJFKNEE@Named?5corves?5of?5EC?5keys?5are?5not?5@ 000000018003cb30     ec_dh.obj
 0002:00008b58       ??_C@_0BE@CFAIDCFN@ECDH?5length?5too?5big?$AA@ 000000018003cb58     ec_dh.obj
 0002:00008b6c       ??_C@_02KNLLHFAA@EC?$AA@   000000018003cb6c     ec_jwk.obj
 0002:00008b70       ??_C@_0BD@PIAINEEO@Key?5is?5not?5EC?5type?$AA@ 000000018003cb70     ec_jwk.obj
 0002:00008b88       ??_7?$_Ref_count@VJwkEc@@@std@@6B@ 000000018003cb88     ec_jwk.obj
 0002:00008ba8       ??_7?$_Ref_count@VScopedPbkdf2@@@std@@6B@ 000000018003cba8     async_pbkdf2.obj
 0002:00008ba8       ??_7?$_Ref_count@VScopedHMAC@@@std@@6B@ 000000018003cba8     hmac_gen.obj
 0002:00008ba8       ??_7?$_Ref_count@VScopedAES@@@std@@6B@ 000000018003cba8     aes_gen.obj
 0002:00008bc8       ??_C@_0BJ@GFIJIPC@Error?5on?5AES?5key?5getting?$AA@ 000000018003cbc8     aes_ecb.obj
 0002:00008be8       ??_C@_0BF@PAOJCMKC@Input?5data?5too?5large?$AA@ 000000018003cbe8     aes_ecb.obj
 0002:00008c00       ??_C@_0BJ@MLGFNLFE@Unknown?5AES?5CBC?5key?5size?$AA@ 000000018003cc00     aes_ecb.obj
 0002:00008c20       ??_C@_0BE@GGKPKCBB@Incorrect?5IV?5length?$AA@ 000000018003cc20     aes_cbc.obj
 0002:00008c40       ??_C@_0FD@MLHPLIIE@The?5AES?9KW?5input?5data?5length?5is?5@ 000000018003cc40     aes_cbc.obj
 0002:00008ca0       ??_C@_0ED@MHIIPGME@The?5AES?9KW?5input?5data?5length?5is?5@ 000000018003cca0     aes_cbc.obj
 0002:00008cf0       ??_C@_0FD@GDDEEJBC@The?5AES?9KW?5input?5data?5length?5is?5@ 000000018003ccf0     aes_cbc.obj
 0002:00008d48       ??_C@_0BJ@MCAPNGKL@Unknown?5AES?5GCM?5key?5size?$AA@ 000000018003cd48     aes_gcm.obj
 0002:00008d68       ??_C@_0BI@CFPLBAOH@invalid?5string?5position?$AA@ 000000018003cd68     aes_gcm.obj
 0002:00008d80       ??_C@_00CNPNBAHC@?$AA@     000000018003cd80     aes_ctr.obj
 0002:00008d88       ??_C@_0BI@BHOGLKFO@Wrong?5size?5of?5?8counter?8?$AA@ 000000018003cd88     aes_ctr.obj
 0002:00008da0       ??_C@_0DF@LECHJMOO@Incorrect?5value?5?8length?8?4?5Must?5b@ 000000018003cda0     aes_ctr.obj
 0002:00008dd8       ??_C@_0BG@KBLAMBLD@Size?5of?5key?5too?5small?$AA@ 000000018003cdd8     hmac_gen.obj
 0002:00008df0       ??_C@_0BG@NLOKODAK@Parameter?5md?5is?5empty?$AA@ 000000018003cdf0     hmac_sign.obj
 0002:00008e08       ??_C@_0DE@NFGNMJNO@Signature?5length?5is?5not?5equal?5to@ 000000018003ce08     hmac_sign.obj
 0002:00008e40       ??_C@_0CJ@LGHALHJC@PBKDF2?3?5Derive?5bits?5length?5not?5s@ 000000018003ce40     pbkdf2_derive.obj
 0002:00008e70       ??_C@_0DF@GDFOEJIF@PBKDF2?3?5Derive?5bits?5length?5not?5a@ 000000018003ce70     pbkdf2_derive.obj
 0002:00008ea8       ??_C@_0BO@OJDPHANA@PBKDF2?3?5Iterations?5can?8t?5be?50?$AA@ 000000018003cea8     pbkdf2_derive.obj
 0002:00008ec8       ??_C@_0CK@OELGDBJH@PBKDF2?3?5Message?5digest?5algorithm@ 000000018003cec8     pbkdf2_derive.obj
 0002:00008f00       ??_C@_1IG@MDIGGEGP@?$AAC?$AA?3?$AA?2?$AAU?$AAs?$AAe?$AAr?$AAs?$AA?2?$AAs?$AAt?$AAo?$AAn?$AAe?$AA?2?$AAO?$AAn?$AAe?$AAD?$AAr?$AAi?$AAv?$AAe?$AA?2?$AAD?$AAo?$AAk?$AAu?$AAm?$AAe?$AAn?$AAt@ 000000018003cf00     common.obj
 0002:00008f90       ??_C@_1FM@LOELJOFK@?$AAs?$AAi?$AAz?$AAe?$AA?5?$AA?$DM?$AA?$DN?$AA?5?$AAi?$AAm?$AAp?$AA?3?$AA?3?$AAk?$AAM?$AAa?$AAx?$AAL?$AAe?$AAn?$AAg?$AAt?$AAh?$AA?5?$AA?$CG?$AA?$CG?$AA?5?$AA?$CC?$AAt?$AAo?$AAo?$AA?5@ 000000018003cf90     common.obj
 0002:00008ff0       ??_C@_1DG@OKCGPKIB@?$AAp?$AAe?$AAr?$AAs?$AAi?$AAs?$AAt?$AAe?$AAn?$AAt?$AA?$CI?$AA?$CJ?$AA?4?$AAI?$AAs?$AAN?$AAe?$AAa?$AAr?$AAD?$AAe?$AAa?$AAt?$AAh?$AA?$CI?$AA?$CJ?$AA?$AA@ 000000018003cff0     w_key.obj
 0002:00009030       ??_C@_1HO@LLFCJAI@?$AAC?$AA?3?$AA?2?$AAU?$AAs?$AAe?$AAr?$AAs?$AA?2?$AAs?$AAt?$AAo?$AAn?$AAe?$AA?2?$AA?4?$AAn?$AAo?$AAd?$AAe?$AA?9?$AAg?$AAy?$AAp?$AA?2?$AA8?$AA?4?$AA9?$AA?4?$AA1?$AA?2?$AAi@ 000000018003d030     w_key.obj
 0002:000090b0       ??_C@_1EC@NOLNIHNJ@?$AAh?$AAa?$AAn?$AAd?$AAl?$AAe?$AA?9?$AA?$DO?$AAI?$AAn?$AAt?$AAe?$AAr?$AAn?$AAa?$AAl?$AAF?$AAi?$AAe?$AAl?$AAd?$AAC?$AAo?$AAu?$AAn?$AAt?$AA?$CI?$AA?$CJ?$AA?5?$AA?$DO?$AA?5?$AA0@ 000000018003d0b0     w_key.obj
 0002:000090f8       ??_C@_1CO@EGNPJLKI@?$AAp?$AAe?$AAr?$AAs?$AAi?$AAs?$AAt?$AAe?$AAn?$AAt?$AA?$CI?$AA?$CJ?$AA?4?$AAI?$AAs?$AAE?$AAm?$AAp?$AAt?$AAy?$AA?$CI?$AA?$CJ?$AA?$AA@ 000000018003d0f8     w_key.obj
 0002:00009128       ??_C@_1CO@JCKLEFMA@?$AA?$CB?$AAp?$AAe?$AAr?$AAs?$AAi?$AAs?$AAt?$AAe?$AAn?$AAt?$AA?$CI?$AA?$CJ?$AA?4?$AAI?$AAs?$AAW?$AAe?$AAa?$AAk?$AA?$CI?$AA?$CJ?$AA?$AA@ 000000018003d128     w_key.obj
 0002:00009158       ??_C@_1DA@FBGAEOIO@?$AA?$CB?$AAp?$AAe?$AAr?$AAs?$AAi?$AAs?$AAt?$AAe?$AAn?$AAt?$AA?$CI?$AA?$CJ?$AA?4?$AAI?$AAs?$AAE?$AAm?$AAp?$AAt?$AAy?$AA?$CI?$AA?$CJ?$AA?$AA@ 000000018003d158     w_key.obj
 0002:00009188       ??_C@_1CC@GBFLAAPF@?$AAw?$AAr?$AAa?$AAp?$AA?9?$AA?$DO?$AAr?$AAe?$AAf?$AAs?$AA_?$AA?5?$AA?$DN?$AA?$DN?$AA?5?$AA0?$AA?$AA@ 000000018003d188     w_key.obj
 0002:000091b0       ??_C@_1BE@GMLLOIPJ@?$AAr?$AAe?$AAf?$AAs?$AA_?$AA?5?$AA?$DO?$AA?5?$AA0?$AA?$AA@ 000000018003d1b0     w_key.obj
 0002:000091c4       ??_C@_03CCEPDEKL@Key?$AA@  000000018003d1c4     w_key.obj
 0002:000091c8       ??_C@_0L@KGHIKPLK@exportSpki?$AA@ 000000018003d1c8     w_key.obj
 0002:000091d8       ??_C@_09NIMIAKMJ@exportJwk?$AA@ 000000018003d1d8     w_key.obj
 0002:000091e4       ??_C@_04HHGHLBPI@sign?$AA@ 000000018003d1e4     w_key.obj
 0002:000091f0       ??_C@_0M@HJCMEELC@exportPkcs8?$AA@ 000000018003d1f0     w_key.obj
 0002:00009200       ??_C@_0O@HDDMKJJF@RsaOaepEncDec?$AA@ 000000018003d200     w_key.obj
 0002:00009210       ??_C@_06MCIJCFHC@verify?$AA@ 000000018003d210     w_key.obj
 0002:00009218       ??_C@_0N@GGJBPCPP@RsaPssVerify?$AA@ 000000018003d218     w_key.obj
 0002:00009228       ??_C@_0L@GIKHFBIL@RsaPssSign?$AA@ 000000018003d228     w_key.obj
 0002:00009238       ??_C@_0P@GFCAOOFJ@EcdhDeriveBits?$AA@ 000000018003d238     w_key.obj
 0002:00009248       ??_C@_0O@JIIHHHHN@EcdhDeriveKey?$AA@ 000000018003d248     w_key.obj
 0002:00009258       ??_C@_0P@MPJIJHMC@publicExponent?$AA@ 000000018003d258     w_key.obj
 0002:00009268       ??_C@_0O@GOEMINKB@modulusLength?$AA@ 000000018003d268     w_key.obj
 0002:00009278       ??_C@_0M@GJDJFLNF@generateRsa?$AA@ 000000018003d278     w_key.obj
 0002:00009284       ??_C@_04GPMDFGEJ@type?$AA@ 000000018003d284     w_key.obj
 0002:00009290       ??_C@_0M@KDIHGBLK@importPkcs8?$AA@ 000000018003d290     w_key.obj
 0002:000092a0       ??_C@_0L@FGIHNNPJ@generateEc?$AA@ 000000018003d2a0     w_key.obj
 0002:000092b0       ??_C@_0L@GNOFHHNB@importSpki?$AA@ 000000018003d2b0     w_key.obj
 0002:000092c0       ??_C@_09CEKDONHJ@importJwk?$AA@ 000000018003d2c0     w_key.obj
 0002:000092d0       ??_C@_0BH@LKAOFEHL@Unsupported?5Key?5in?5use?$AA@ 000000018003d2d0     w_key.obj
 0002:000092e8       ??_C@_0P@KKGKLOBM@Key?5is?5not?5RSA?$AA@ 000000018003d2e8     w_key.obj
 0002:000092f8       ??_C@_01EFFIKLCJ@n?$AA@    000000018003d2f8     w_key.obj
 0002:000092fc       ??_C@_03JPJJFCNC@kty?$AA@  000000018003d2fc     w_key.obj
 0002:00009300       ??_C@_01LPLHEDKD@d?$AA@    000000018003d300     w_key.obj
 0002:00009304       ??_C@_01KGKMHCOC@e?$AA@    000000018003d304     w_key.obj
 0002:00009308       ??_C@_01IIACKFLH@q?$AA@    000000018003d308     w_key.obj
 0002:0000930c       ??_C@_01JBBJJEPG@p?$AA@    000000018003d30c     w_key.obj
 0002:00009310       ??_C@_02HJEEANKG@dq?$AA@   000000018003d310     w_key.obj
 0002:00009314       ??_C@_02GAFPDMOH@dp?$AA@   000000018003d314     w_key.obj
 0002:00009318       ??_C@_03NJDIBKEA@crv?$AA@  000000018003d318     w_key.obj
 0002:0000931c       ??_C@_02OBLCPEGE@qi?$AA@   000000018003d31c     w_key.obj
 0002:00009320       ??_C@_01EANLCPLP@y?$AA@    000000018003d320     w_key.obj
 0002:00009324       ??_C@_01FJMABOPO@x?$AA@    000000018003d324     w_key.obj
 0002:00009328       ??_C@_1CE@IAEMMFJ@?$AA?$CB?$AAh?$AAa?$AAn?$AAd?$AAl?$AAe?$AA?4?$AAI?$AAs?$AAE?$AAm?$AAp?$AAt?$AAy?$AA?$CI?$AA?$CJ?$AA?$AA@ 000000018003d328     w_key.obj
 0002:00009350       ??_C@_0BE@OCDHFEIL@Unknown?5digest?5name?$AA@ 000000018003d350     w_key.obj
 0002:00009368       ??_7WCore@@6B@             000000018003d368     w_core.obj
 0002:00009368       ??_7ObjectWrap@node@@6B@   000000018003d368     w_key.obj
 0002:00009380       ??_7AsyncEcdhDeriveKey@@6B@ 000000018003d380     w_key.obj
 0002:000093b0       ??_7AsyncWorker@Nan@@6B@   000000018003d3b0     w_key.obj
 0002:000093e0       ??_7AsyncSignRsa@@6B@      000000018003d3e0     w_key.obj
 0002:00009410       ??_7AsyncEcGenerateKey@@6B@ 000000018003d410     w_key.obj
 0002:00009440       ??_7AsyncEcdhDeriveBits@@6B@ 000000018003d440     w_key.obj
 0002:00009470       ??_7AsyncEcdsaVerify@@6B@  000000018003d470     w_key.obj
 0002:000094a0       ??_7AsyncImportJwkRsa@@6B@ 000000018003d4a0     w_key.obj
 0002:000094d0       ??_7AsyncEcExportJwk@@6B@  000000018003d4d0     w_key.obj
 0002:00009500       ??_7AsyncExportSpki@@6B@   000000018003d500     w_key.obj
 0002:00009530       ??_7AsyncVerifyRsaPSS@@6B@ 000000018003d530     w_key.obj
 0002:00009560       ?ClassName@WKey@@2PEBDEB   000000018003d560     w_key.obj
 0002:00009568       ?ClassName@WAes@@2PEBDEB   000000018003d568     w_aes.obj
 0002:00009570       ?ClassName@WHmac@@2PEBDEB  000000018003d570     w_hmac.obj
 0002:00009578       ?ClassName@WPbkdf2@@2PEBDEB 000000018003d578     w_pbkdf2.obj
 0002:00009580       ?ClassName@WCore@@2PEBDEB  000000018003d580     w_core.obj
 0002:00009588       __pfnDliNotifyHook2        000000018003d588     win_delay_load_hook.obj
 0002:00009590       ??_7AsyncEcdsaSign@@6B@    000000018003d590     w_key.obj
 0002:000095c0       ??_7AsyncSignRsaPSS@@6B@   000000018003d5c0     w_key.obj
 0002:000095f0       ??_7AsyncImportSpki@@6B@   000000018003d5f0     w_key.obj
 0002:00009620       ??_7AsyncExportPkcs8@@6B@  000000018003d620     w_key.obj
 0002:00009650       ??_7AsyncEncrypDecryptRsaOAEP@@6B@ 000000018003d650     w_key.obj
 0002:00009680       ??_7AsyncExportJwkRsa@@6B@ 000000018003d680     w_key.obj
 0002:000096b0       ??_7AsyncVerifyRsa@@6B@    000000018003d6b0     w_key.obj
 0002:000096e0       ??_7AsyncEcImportJwk@@6B@  000000018003d6e0     w_key.obj
 0002:00009710       ??_7AsyncImportPkcs8@@6B@  000000018003d710     w_key.obj
 0002:00009740       ??_7WAes@@6B@              000000018003d740     w_aes.obj
 0002:00009740       ??_7WPbkdf2@@6B@           000000018003d740     w_pbkdf2.obj
 0002:00009740       ??_7WKey@@6B@              000000018003d740     w_key.obj
 0002:00009740       ??_7WHmac@@6B@             000000018003d740     w_hmac.obj
 0002:00009758       ??_7AsyncRsaGenerateKey@@6B@ 000000018003d758     w_key.obj
 0002:00009788       ??_C@_07NNLIEMBO@encrypt?$AA@ 000000018003d788     w_aes.obj
 0002:00009790       ??_C@_06JKFAEOPC@AesKey?$AA@ 000000018003d790     w_aes.obj
 0002:00009798       ??_C@_07IBDBFBGF@wrapKey?$AA@ 000000018003d798     w_aes.obj
 0002:000097a0       ??_C@_07BDBFBIHK@decrypt?$AA@ 000000018003d7a0     w_aes.obj
 0002:000097a8       ??_C@_0L@DOFOGBED@encryptEcb?$AA@ 000000018003d7a8     w_aes.obj
 0002:000097b8       ??_C@_09IDFIPCJA@unwrapKey?$AA@ 000000018003d7b8     w_aes.obj
 0002:000097c8       ??_C@_0L@BDMPLFAH@encryptGcm?$AA@ 000000018003d7c8     w_aes.obj
 0002:000097d8       ??_C@_0L@HDAEFHE@decryptEcb?$AA@ 000000018003d7d8     w_aes.obj
 0002:000097e8       ??_C@_0L@EIJOJJDL@encryptCtr?$AA@ 000000018003d7e8     w_aes.obj
 0002:000097f8       ??_C@_0L@CKKBJBDA@decryptGcm?$AA@ 000000018003d7f8     w_aes.obj
 0002:00009804       ??_C@_06NKNNMLDJ@export?$AA@ 000000018003d804     w_aes.obj
 0002:00009810       ??_C@_0L@HBPALNAM@decryptCtr?$AA@ 000000018003d810     w_aes.obj
 0002:0000981c       ??_C@_06EOGGDCGF@import?$AA@ 000000018003d81c     w_aes.obj
 0002:00009828       ??_C@_08HBLFHMBF@generate?$AA@ 000000018003d828     w_aes.obj
 0002:00009838       ??_C@_0BE@HLJGMNFE@Unknown?5cipher?5name?$AA@ 000000018003d838     w_aes.obj
 0002:0000984c       ??_C@_03PPFAJCFI@CBC?$AA@  000000018003d84c     w_aes.obj
 0002:00009850       ??_C@_0CL@CNFJINGL@Wrong?5size?5of?5?8counter?8?4?5Must?5be@ 000000018003d850     w_aes.obj
 0002:00009880       ??_7AsyncAesEncryptECB@@6B@ 000000018003d880     w_aes.obj
 0002:000098b0       ??_7AsyncAesGenerateKey@@6B@ 000000018003d8b0     w_aes.obj
 0002:000098e0       ??_7AsyncAesImport@@6B@    000000018003d8e0     w_aes.obj
 0002:00009910       ??_7AsyncAesWrapKey@@6B@   000000018003d910     w_aes.obj
 0002:00009940       ??_7AsyncAesEncryptCTR@@6B@ 000000018003d940     w_aes.obj
 0002:00009970       ??_7AsyncHmacExport@@6B@   000000018003d970     w_hmac.obj
 0002:00009970       ??_7AsyncAesExport@@6B@    000000018003d970     w_aes.obj
 0002:000099a0       ??_7AsyncAesEncryptGCM@@6B@ 000000018003d9a0     w_aes.obj
 0002:000099d0       ??_7AsyncAesEncryptCBC@@6B@ 000000018003d9d0     w_aes.obj
 0002:00009a00       ??_C@_07GLAKBBMB@HmacKey?$AA@ 000000018003da00     w_hmac.obj
 0002:00009a08       ??_7AsyncHmacGenerateKey@@6B@ 000000018003da08     w_hmac.obj
 0002:00009a38       ??_7AsyncHmacImport@@6B@   000000018003da38     w_hmac.obj
 0002:00009a68       ??_7AsyncHmacVerify@@6B@   000000018003da68     w_hmac.obj
 0002:00009a98       ??_7AsyncHmacSign@@6B@     000000018003da98     w_hmac.obj
 0002:00009ac8       ??_C@_0L@LGDMBGLP@deriveBits?$AA@ 000000018003dac8     w_pbkdf2.obj
 0002:00009ad8       ??_C@_09NMDEHPBB@Pbkdf2Key?$AA@ 000000018003dad8     w_pbkdf2.obj
 0002:00009ae8       ??_C@_09PLEJINNB@importKey?$AA@ 000000018003dae8     w_pbkdf2.obj
 0002:00009af8       ??_7AsyncPbkdf2DeriveBits@@6B@ 000000018003daf8     w_pbkdf2.obj
 0002:00009b28       ??_7AsyncPbkdf2Import@@6B@ 000000018003db28     w_pbkdf2.obj
 0002:00009b58       ??_C@_06IJPNAHC@digest?$AA@ 000000018003db58     w_core.obj
 0002:00009b60       ??_C@_04KDEOOPC@Core?$AA@  000000018003db60     w_core.obj
 0002:00009b68       ??_7AsyncDigest@@6B@       000000018003db68     w_core.obj
 0002:00009b98       ??_C@_08HCOMDCCD@iojs?4exe?$AA@ 000000018003db98     win_delay_load_hook.obj
 0002:00009ba8       ??_C@_08JDDNMFDB@node?4exe?$AA@ 000000018003dba8     win_delay_load_hook.obj
 0002:00009be0       __real@3ff0000000000000    000000018003dbe0     main.obj
 0002:00009be8       __real@4079900000000000    000000018003dbe8     main.obj
 0002:00009bf0       __real@4079f00000000000    000000018003dbf0     main.obj
 0002:00009bf8       __real@4086000000000000    000000018003dbf8     main.obj
 0002:00009c00       __real@4086080000000000    000000018003dc00     main.obj
 0002:00009c08       __real@4086100000000000    000000018003dc08     main.obj
 0002:00009c10       __real@4086180000000000    000000018003dc10     main.obj
 0002:00009c18       __real@4086200000000000    000000018003dc18     main.obj
 0002:00009c20       __real@4086280000000000    000000018003dc20     main.obj
 0002:00009c28       __real@4086300000000000    000000018003dc28     main.obj
 0002:00009c30       __real@4086380000000000    000000018003dc30     main.obj
 0002:00009c38       __real@4086400000000000    000000018003dc38     main.obj
 0002:00009c40       __real@4086480000000000    000000018003dc40     main.obj
 0002:00009c48       __real@4086500000000000    000000018003dc48     main.obj
 0002:00009c50       __real@4086580000000000    000000018003dc50     main.obj
 0002:00009c58       __real@4086600000000000    000000018003dc58     main.obj
 0002:00009c60       __real@4086680000000000    000000018003dc60     main.obj
 0002:00009c68       __real@4086700000000000    000000018003dc68     main.obj
 0002:00009c70       __real@4086780000000000    000000018003dc70     main.obj
 0002:00009c78       __real@4086800000000000    000000018003dc78     main.obj
 0002:00009c80       __real@4086880000000000    000000018003dc80     main.obj
 0002:00009c88       __real@4086900000000000    000000018003dc88     main.obj
 0002:00009c90       __real@4086980000000000    000000018003dc90     main.obj
 0002:00009c98       __real@4086a00000000000    000000018003dc98     main.obj
 0002:00009ca0       __real@4086a80000000000    000000018003dca0     main.obj
 0002:00009ca8       __real@4086b00000000000    000000018003dca8     main.obj
 0002:00009cb0       __real@4086b80000000000    000000018003dcb0     main.obj
 0002:00009cb8       __real@4086c00000000000    000000018003dcb8     main.obj
 0002:00009cc0       __real@4086c80000000000    000000018003dcc0     main.obj
 0002:00009cc8       __real@4086d00000000000    000000018003dcc8     main.obj
 0002:00009cd0       __real@4086d80000000000    000000018003dcd0     main.obj
 0002:00009cd8       __real@4086e00000000000    000000018003dcd8     main.obj
 0002:00009ce0       __real@4086e80000000000    000000018003dce0     main.obj
 0002:00009ce8       __real@4086f00000000000    000000018003dce8     main.obj
 0002:0000bf88       _tls_used                  000000018003ff88     LIBCMT:tlssup.obj
 0002:0000bfb0       ??_R4exception@std@@6B@    000000018003ffb0     libcpmt:xthrow.obj
 0002:0000bfd8       ??_R3exception@std@@8      000000018003ffd8     libcpmt:xthrow.obj
 0002:0000bff0       ??_R2exception@std@@8      000000018003fff0     libcpmt:xthrow.obj
 0002:0000c000       ??_R1A@?0A@EA@exception@std@@8 0000000180040000     libcpmt:xthrow.obj
 0002:0000c028       ??_R4bad_alloc@std@@6B@    0000000180040028     libcpmt:xthrow.obj
 0002:0000c050       ??_R3bad_alloc@std@@8      0000000180040050     libcpmt:xthrow.obj
 0002:0000c068       ??_R2bad_alloc@std@@8      0000000180040068     libcpmt:xthrow.obj
 0002:0000c080       ??_R1A@?0A@EA@bad_alloc@std@@8 0000000180040080     libcpmt:xthrow.obj
 0002:0000c0a8       ??_R4logic_error@std@@6B@  00000001800400a8     libcpmt:xthrow.obj
 0002:0000c0d0       ??_R3logic_error@std@@8    00000001800400d0     libcpmt:xthrow.obj
 0002:0000c0e8       ??_R2logic_error@std@@8    00000001800400e8     libcpmt:xthrow.obj
 0002:0000c100       ??_R1A@?0A@EA@logic_error@std@@8 0000000180040100     libcpmt:xthrow.obj
 0002:0000c128       ??_R4length_error@std@@6B@ 0000000180040128     libcpmt:xthrow.obj
 0002:0000c150       ??_R3length_error@std@@8   0000000180040150     libcpmt:xthrow.obj
 0002:0000c168       ??_R2length_error@std@@8   0000000180040168     libcpmt:xthrow.obj
 0002:0000c188       ??_R1A@?0A@EA@length_error@std@@8 0000000180040188     libcpmt:xthrow.obj
 0002:0000c1b0       ??_R4out_of_range@std@@6B@ 00000001800401b0     libcpmt:xthrow.obj
 0002:0000c1d8       ??_R3out_of_range@std@@8   00000001800401d8     libcpmt:xthrow.obj
 0002:0000c1f0       ??_R2out_of_range@std@@8   00000001800401f0     libcpmt:xthrow.obj
 0002:0000c210       ??_R1A@?0A@EA@out_of_range@std@@8 0000000180040210     libcpmt:xthrow.obj
 0002:0000c238       ??_R4runtime_error@std@@6B@ 0000000180040238     libcpmt:xthrow.obj
 0002:0000c260       ??_R3runtime_error@std@@8  0000000180040260     libcpmt:xthrow.obj
 0002:0000c278       ??_R2runtime_error@std@@8  0000000180040278     libcpmt:xthrow.obj
 0002:0000c290       ??_R1A@?0A@EA@runtime_error@std@@8 0000000180040290     libcpmt:xthrow.obj
 0002:0000c2b8       ??_R4type_info@@6B@        00000001800402b8     LIBCMT:std_type_info_static.obj
 0002:0000c2e0       ??_R3type_info@@8          00000001800402e0     LIBCMT:std_type_info_static.obj
 0002:0000c2f8       ??_R2type_info@@8          00000001800402f8     LIBCMT:std_type_info_static.obj
 0002:0000c308       ??_R1A@?0A@EA@type_info@@8 0000000180040308     LIBCMT:std_type_info_static.obj
 0002:0000c330       ??_R4bad_array_new_length@std@@6B@ 0000000180040330     LIBCMT:throw_bad_alloc.obj
 0002:0000c358       ??_R3bad_array_new_length@std@@8 0000000180040358     LIBCMT:throw_bad_alloc.obj
 0002:0000c370       ??_R2bad_array_new_length@std@@8 0000000180040370     LIBCMT:throw_bad_alloc.obj
 0002:0000c390       ??_R1A@?0A@EA@bad_array_new_length@std@@8 0000000180040390     LIBCMT:throw_bad_alloc.obj
 0002:0000c3b8       ??_R4bad_exception@std@@6B@ 00000001800403b8     libvcruntime:frame.obj
 0002:0000c3e0       ??_R3bad_exception@std@@8  00000001800403e0     libvcruntime:frame.obj
 0002:0000c3f8       ??_R2bad_exception@std@@8  00000001800403f8     libvcruntime:frame.obj
 0002:0000c410       ??_R1A@?0A@EA@bad_exception@std@@8 0000000180040410     libvcruntime:frame.obj
 0002:0000c890       __rtc_iaa                  0000000180040890     LIBCMT:_initsect_.obj
 0002:0000c898       __rtc_izz                  0000000180040898     LIBCMT:_initsect_.obj
 0002:0000c8a0       __rtc_taa                  00000001800408a0     LIBCMT:_initsect_.obj
 0002:0000c8a8       __rtc_tzz                  00000001800408a8     LIBCMT:_initsect_.obj
 0002:0000c8b0       _tls_start                 00000001800408b0     LIBCMT:tlssup.obj
 0002:0000c8b4       _Init_thread_epoch         00000001800408b4     LIBCMT:thread_safe_statics.obj
 0002:0000c8b8       _tls_end                   00000001800408b8     LIBCMT:tlssup.obj
 0002:00013798       _TI2?AVbad_alloc@std@@     0000000180047798     libcpmt:xthrow.obj
 0002:000137b8       _CTA2?AVbad_alloc@std@@    00000001800477b8     libcpmt:xthrow.obj
 0002:000137d0       _CT??_R0?AVbad_alloc@std@@@8??0bad_alloc@std@@QEAA@AEBV01@@Z24 00000001800477d0     libcpmt:xthrow.obj
 0002:000137f8       _CT??_R0?AVexception@std@@@8??0exception@std@@QEAA@AEBV01@@Z24 00000001800477f8     libcpmt:xthrow.obj
 0002:00013820       _CT??_R0?AVlogic_error@std@@@8??0logic_error@std@@QEAA@AEBV01@@Z24 0000000180047820     libcpmt:xthrow.obj
 0002:00013848       _TI3?AVlength_error@std@@  0000000180047848     libcpmt:xthrow.obj
 0002:00013868       _CTA3?AVlength_error@std@@ 0000000180047868     libcpmt:xthrow.obj
 0002:00013888       _CT??_R0?AVlength_error@std@@@8??0length_error@std@@QEAA@AEBV01@@Z24 0000000180047888     libcpmt:xthrow.obj
 0002:000138b0       _TI3?AVout_of_range@std@@  00000001800478b0     libcpmt:xthrow.obj
 0002:000138d0       _CTA3?AVout_of_range@std@@ 00000001800478d0     libcpmt:xthrow.obj
 0002:000138f0       _CT??_R0?AVout_of_range@std@@@8??0out_of_range@std@@QEAA@AEBV01@@Z24 00000001800478f0     libcpmt:xthrow.obj
 0002:00013918       _TI3?AVbad_array_new_length@std@@ 0000000180047918     LIBCMT:throw_bad_alloc.obj
 0002:00013938       _CTA3?AVbad_array_new_length@std@@ 0000000180047938     LIBCMT:throw_bad_alloc.obj
 0002:00013958       _CT??_R0?AVbad_array_new_length@std@@@8??0bad_array_new_length@std@@QEAA@AEBV01@@Z24 0000000180047958     LIBCMT:throw_bad_alloc.obj
 0002:00013980       _TI2?AVbad_exception@std@@ 0000000180047980     libvcruntime:frame.obj
 0002:000139a0       _CTA2?AVbad_exception@std@@ 00000001800479a0     libvcruntime:frame.obj
 0002:000139b8       _CT??_R0?AVbad_exception@std@@@8??0bad_exception@std@@QEAA@AEBV01@@Z24 00000001800479b8     libvcruntime:frame.obj
 0002:000139e0       _TI2?AVruntime_error@std@@ 00000001800479e0     key_exp.obj
 0002:00013a00       _CTA2?AVruntime_error@std@@ 0000000180047a00     key_exp.obj
 0002:00013a18       _CT??_R0?AVexception@stdext@@@816 0000000180047a18     key_exp.obj
 0002:00013a40       _CT??_R0?AVruntime_error@std@@@816 0000000180047a40     key_exp.obj
 0002:00013a64       __DELAY_IMPORT_DESCRIPTOR_node_exe 0000000180047a64     node:node.exe
 0002:00013a84       __NULL_DELAY_IMPORT_DESCRIPTOR 0000000180047a84     node:node.exe
 0002:00013fe8       \177node_NULL_THUNK_DATA_DLN 0000000180047fe8     node:node.exe
 0002:00015990       \177node_NULL_THUNK_DATA_DLB 0000000180049990     node:node.exe
 0002:00015f24       __IMPORT_DESCRIPTOR_KERNEL32 0000000180049f24     kernel32:KERNEL32.dll
 0002:00015f38       __NULL_IMPORT_DESCRIPTOR   0000000180049f38     kernel32:KERNEL32.dll
 0003:00000000       _Init_global_epoch         000000018004b000     LIBCMT:thread_safe_statics.obj
 0003:00000004       __scrt_native_dllmain_reason 000000018004b004     LIBCMT:utility.obj
 0003:00000008       __security_cookie_complement 000000018004b008     LIBCMT:gs_cookie.obj
 0003:00000010       __security_cookie          000000018004b010     LIBCMT:gs_cookie.obj
 0003:00000018       __isa_available            000000018004b018     LIBCMT:_cpu_disp_.obj
 0003:0000001c       __isa_enabled              000000018004b01c     LIBCMT:_cpu_disp_.obj
 0003:00000020       __memcpy_nt_iters          000000018004b020     LIBCMT:_cpu_disp_.obj
 0003:00000040       __abort_behavior           000000018004b040     libucrt:abort.obj
 0003:00000050       _iob                       000000018004b050     libucrt:_file.obj
 0003:00000160       __acrt_initial_locale_data 000000018004b160     libucrt:nlsdata.obj
 0003:000002b8       __acrt_initial_locale_pointers 000000018004b2b8     libucrt:nlsdata.obj
 0003:000002c8       __acrt_wide_c_locale_string 000000018004b2c8     libucrt:nlsdata.obj
 0003:000002d0       __acrt_initial_multibyte_data 000000018004b2d0     libucrt:mbctype.obj
 0003:00000810       __badioinfo                000000018004b810     libucrt:ioinit.obj
 0003:00000850       _pwctype                   000000018004b850     libucrt:ctype.obj
 0003:00000858       __globallocalestatus       000000018004b858     libucrt:glstatus.obj
 0003:00000860       __acrt_lconv_c             000000018004b860     libucrt:localeconv.obj
 0003:000008f8       __acrt_lconv_static_decimal 000000018004b8f8     libucrt:localeconv.obj
 0003:000008fc       __acrt_lconv_static_W_decimal 000000018004b8fc     libucrt:localeconv.obj
 0003:00000920       _fltused                   000000018004b920     LIBCMT:fltused.obj
 0003:00000970       ??_R0?AVbad_alloc@std@@@8  000000018004b970     libcpmt:xthrow.obj
 0003:00000998       ??_R0?AVexception@std@@@8  000000018004b998     libcpmt:xthrow.obj
 0003:000009c0       ??_R0?AVlogic_error@std@@@8 000000018004b9c0     libcpmt:xthrow.obj
 0003:000009e8       ??_R0?AVlength_error@std@@@8 000000018004b9e8     libcpmt:xthrow.obj
 0003:00000a10       ??_R0?AVout_of_range@std@@@8 000000018004ba10     libcpmt:xthrow.obj
 0003:00000a38       ??_R0?AVtype_info@@@8      000000018004ba38     LIBCMT:std_type_info_static.obj
 0003:00000a58       ??_R0?AVbad_array_new_length@std@@@8 000000018004ba58     LIBCMT:throw_bad_alloc.obj
 0003:00000a88       ??_R0?AVbad_exception@std@@@8 000000018004ba88     libvcruntime:frame.obj
 0003:00000ab0       ??_R0?AVruntime_error@std@@@8 000000018004bab0     key_exp.obj
 0003:00000ad8       ??_R0?AVexception@stdext@@@8 000000018004bad8     key_exp.obj
 0003:00000b00       __imp_?GetCurrent@Isolate@v8@@SAPEAV12@XZ 000000018004bb00     node:node.exe
 0003:00000b08       __imp_?ToNumber@Value@v8@@QEBA?AV?$MaybeLocal@VNumber@v8@@@2@V?$Local@VContext@v8@@@2@@Z 000000018004bb08     node:node.exe
 0003:00000b10       __imp_??1HandleScope@v8@@QEAA@XZ 000000018004bb10     node:node.exe
 0003:00000b18       __imp_??0HandleScope@v8@@QEAA@PEAVIsolate@1@@Z 000000018004bb18     node:node.exe
 0003:00000b20       __imp_?ToLocalEmpty@V8@v8@@CAXXZ 000000018004bb20     node:node.exe
 0003:00000b28       __imp_?NewFromUtf8@String@v8@@SA?AV?$MaybeLocal@VString@v8@@@2@PEAVIsolate@2@PEBDW4NewStringType@2@H@Z 000000018004bb28     node:node.exe
 0003:00000b30       __imp_?New@Number@v8@@SA?AV?$Local@VNumber@v8@@@2@PEAVIsolate@2@N@Z 000000018004bb30     node:node.exe
 0003:00000b38       __imp_?New@Object@v8@@SA?AV?$Local@VObject@v8@@@2@PEAVIsolate@2@@Z 000000018004bb38     node:node.exe
 0003:00000b40       __imp_?Set@Object@v8@@QEAA_NV?$Local@VValue@v8@@@2@0@Z 000000018004bb40     node:node.exe
 0003:00000b48       __imp_?Set@Object@v8@@QEAA_NIV?$Local@VValue@v8@@@2@@Z 000000018004bb48     node:node.exe
 0003:00000b50       __imp_node_module_register 000000018004bb50     node:node.exe
 0003:00000b58       __imp_OPENSSL_add_all_algorithms_noconf 000000018004bb58     node:node.exe
 0003:00000b60       __imp_ERR_load_crypto_strings 000000018004bb60     node:node.exe
 0003:00000b68       __imp_OPENSSL_init         000000018004bb68     node:node.exe
 0003:00000b70       __imp_BIO_new_mem_buf      000000018004bb70     node:node.exe
 0003:00000b78       __imp_i2d_PUBKEY_bio       000000018004bb78     node:node.exe
 0003:00000b80       __imp_d2i_PUBKEY_bio       000000018004bb80     node:node.exe
 0003:00000b88       __imp_i2d_PKCS8PrivateKeyInfo_bio 000000018004bb88     node:node.exe
 0003:00000b90       __imp_BIO_s_mem            000000018004bb90     node:node.exe
 0003:00000b98       __imp_d2i_PrivateKey_bio   000000018004bb98     node:node.exe
 0003:00000ba0       __imp_BIO_ctrl             000000018004bba0     node:node.exe
 0003:00000ba8       __imp_BIO_new              000000018004bba8     node:node.exe
 0003:00000bb0       __imp_EVP_CIPHER_CTX_free  000000018004bbb0     node:node.exe
 0003:00000bb8       __imp_BN_CTX_free          000000018004bbb8     node:node.exe
 0003:00000bc0       __imp_EVP_MD_CTX_destroy   000000018004bbc0     node:node.exe
 0003:00000bc8       __imp_BIO_free             000000018004bbc8     node:node.exe
 0003:00000bd0       __imp_EC_GROUP_free        000000018004bbd0     node:node.exe
 0003:00000bd8       __imp_EVP_PKEY_free        000000018004bbd8     node:node.exe
 0003:00000be0       __imp_ECDSA_SIG_free       000000018004bbe0     node:node.exe
 0003:00000be8       __imp_EC_KEY_free          000000018004bbe8     node:node.exe
 0003:00000bf0       __imp_BN_free              000000018004bbf0     node:node.exe
 0003:00000bf8       __imp_RSA_free             000000018004bbf8     node:node.exe
 0003:00000c00       __imp_EVP_PKEY_CTX_free    000000018004bc00     node:node.exe
 0003:00000c08       __imp_ERR_print_errors     000000018004bc08     node:node.exe
 0003:00000c10       __imp_EVP_Digest           000000018004bc10     node:node.exe
 0003:00000c18       __imp_BN_new               000000018004bc18     node:node.exe
 0003:00000c20       __imp_EVP_PKEY_assign      000000018004bc20     node:node.exe
 0003:00000c28       __imp_BN_set_word          000000018004bc28     node:node.exe
 0003:00000c30       __imp_RSA_new              000000018004bc30     node:node.exe
 0003:00000c38       __imp_EVP_PKEY_new         000000018004bc38     node:node.exe
 0003:00000c40       __imp_RSA_generate_key_ex  000000018004bc40     node:node.exe
 0003:00000c48       __imp_BN_dup               000000018004bc48     node:node.exe
 0003:00000c50       __imp_EVP_DigestVerifyInit 000000018004bc50     node:node.exe
 0003:00000c58       __imp_EVP_DigestSignInit   000000018004bc58     node:node.exe
 0003:00000c60       __imp_EVP_DigestVerifyFinal 000000018004bc60     node:node.exe
 0003:00000c68       __imp_EVP_DigestSignFinal  000000018004bc68     node:node.exe
 0003:00000c70       __imp_EVP_MD_CTX_create    000000018004bc70     node:node.exe
 0003:00000c78       __imp_EVP_DigestUpdate     000000018004bc78     node:node.exe
 0003:00000c80       __imp_EVP_PKEY_CTX_new     000000018004bc80     node:node.exe
 0003:00000c88       __imp_EVP_PKEY_CTX_ctrl    000000018004bc88     node:node.exe
 0003:00000c90       __imp_EVP_PKEY_encrypt     000000018004bc90     node:node.exe
 0003:00000c98       __imp_CRYPTO_malloc        000000018004bc98     node:node.exe
 0003:00000ca0       __imp_EVP_PKEY_decrypt     000000018004bca0     node:node.exe
 0003:00000ca8       __imp_EVP_PKEY_encrypt_init 000000018004bca8     node:node.exe
 0003:00000cb0       __imp_EVP_PKEY_decrypt_init 000000018004bcb0     node:node.exe
 0003:00000cb8       __imp_EC_KEY_new_by_curve_name 000000018004bcb8     node:node.exe
 0003:00000cc0       __imp_EC_KEY_get0_group    000000018004bcc0     node:node.exe
 0003:00000cc8       __imp_EC_GROUP_set_asn1_flag 000000018004bcc8     node:node.exe
 0003:00000cd0       __imp_EC_KEY_generate_key  000000018004bcd0     node:node.exe
 0003:00000cd8       __imp_i2d_ECDSA_SIG        000000018004bcd8     node:node.exe
 0003:00000ce0       __imp_BN_bin2bn            000000018004bce0     node:node.exe
 0003:00000ce8       __imp_ECDSA_SIG_new        000000018004bce8     node:node.exe
 0003:00000cf0       __imp_BN_num_bits          000000018004bcf0     node:node.exe
 0003:00000cf8       __imp_CRYPTO_free          000000018004bcf8     node:node.exe
 0003:00000d00       __imp_d2i_ECDSA_SIG        000000018004bd00     node:node.exe
 0003:00000d08       __imp_EC_GROUP_get_order   000000018004bd08     node:node.exe
 0003:00000d10       __imp_EC_GROUP_get_degree  000000018004bd10     node:node.exe
 0003:00000d18       __imp_EC_KEY_get0_private_key 000000018004bd18     node:node.exe
 0003:00000d20       __imp_EC_GROUP_get_curve_name 000000018004bd20     node:node.exe
 0003:00000d28       __imp_EVP_PKEY_derive      000000018004bd28     node:node.exe
 0003:00000d30       __imp_EVP_PKEY_derive_init 000000018004bd30     node:node.exe
 0003:00000d38       __imp_EC_KEY_get0_public_key 000000018004bd38     node:node.exe
 0003:00000d40       __imp_EVP_PKEY_derive_set_peer 000000018004bd40     node:node.exe
 0003:00000d48       __imp_EVP_PKEY_get1_EC_KEY 000000018004bd48     node:node.exe
 0003:00000d50       __imp_ECDH_compute_key     000000018004bd50     node:node.exe
 0003:00000d58       __imp_EC_GROUP_new_by_curve_name 000000018004bd58     node:node.exe
 0003:00000d60       __imp_BN_CTX_new           000000018004bd60     node:node.exe
 0003:00000d68       __imp_EC_KEY_new           000000018004bd68     node:node.exe
 0003:00000d70       __imp_EC_KEY_set_group     000000018004bd70     node:node.exe
 0003:00000d78       __imp_BN_CTX_get           000000018004bd78     node:node.exe
 0003:00000d80       __imp_EC_POINT_get_affine_coordinates_GFp 000000018004bd80     node:node.exe
 0003:00000d88       __imp_EC_KEY_set_private_key 000000018004bd88     node:node.exe
 0003:00000d90       __imp_EC_KEY_set_public_key_affine_coordinates 000000018004bd90     node:node.exe
 0003:00000d98       __imp_RAND_bytes           000000018004bd98     node:node.exe
 0003:00000da0       __imp_EVP_aes_256_ecb      000000018004bda0     node:node.exe
 0003:00000da8       __imp_EVP_CipherFinal_ex   000000018004bda8     node:node.exe
 0003:00000db0       __imp_EVP_aes_192_ecb      000000018004bdb0     node:node.exe
 0003:00000db8       __imp_EVP_CipherInit_ex    000000018004bdb8     node:node.exe
 0003:00000dc0       __imp_EVP_aes_128_ecb      000000018004bdc0     node:node.exe
 0003:00000dc8       __imp_EVP_CipherUpdate     000000018004bdc8     node:node.exe
 0003:00000dd0       __imp_EVP_CIPHER_CTX_new   000000018004bdd0     node:node.exe
 0003:00000dd8       __imp_AES_set_decrypt_key  000000018004bdd8     node:node.exe
 0003:00000de0       __imp_AES_wrap_key         000000018004bde0     node:node.exe
 0003:00000de8       __imp_EVP_aes_192_cbc      000000018004bde8     node:node.exe
 0003:00000df0       __imp_EVP_aes_128_cbc      000000018004bdf0     node:node.exe
 0003:00000df8       __imp_AES_set_encrypt_key  000000018004bdf8     node:node.exe
 0003:00000e00       __imp_AES_unwrap_key       000000018004be00     node:node.exe
 0003:00000e08       __imp_EVP_aes_256_cbc      000000018004be08     node:node.exe
 0003:00000e10       __imp_EVP_aes_128_gcm      000000018004be10     node:node.exe
 0003:00000e18       __imp_EVP_EncryptUpdate    000000018004be18     node:node.exe
 0003:00000e20       __imp_EVP_aes_256_gcm      000000018004be20     node:node.exe
 0003:00000e28       __imp_EVP_CIPHER_CTX_ctrl  000000018004be28     node:node.exe
 0003:00000e30       __imp_EVP_EncryptFinal_ex  000000018004be30     node:node.exe
 0003:00000e38       __imp_EVP_DecryptInit_ex   000000018004be38     node:node.exe
 0003:00000e40       __imp_EVP_EncryptInit_ex   000000018004be40     node:node.exe
 0003:00000e48       __imp_EVP_DecryptFinal_ex  000000018004be48     node:node.exe
 0003:00000e50       __imp_EVP_aes_192_gcm      000000018004be50     node:node.exe
 0003:00000e58       __imp_EVP_CIPHER_block_size 000000018004be58     node:node.exe
 0003:00000e60       __imp_EVP_DecryptUpdate    000000018004be60     node:node.exe
 0003:00000e68       __imp_AES_ctr128_encrypt   000000018004be68     node:node.exe
 0003:00000e70       __imp_HMAC                 000000018004be70     node:node.exe
 0003:00000e78       __imp_EVP_MD_size          000000018004be78     node:node.exe
 0003:00000e80       __imp_PKCS5_PBKDF2_HMAC    000000018004be80     node:node.exe
 0003:00000e88       __imp_?New@Buffer@node@@YA?AV?$MaybeLocal@VObject@v8@@@v8@@PEAVIsolate@4@_K@Z 000000018004be88     node:node.exe
 0003:00000e90       __imp_?Data@Buffer@node@@YAPEADV?$Local@VObject@v8@@@v8@@@Z 000000018004be90     node:node.exe
 0003:00000e98       __imp_?Length@Buffer@node@@YA_KV?$Local@VObject@v8@@@v8@@@Z 000000018004be98     node:node.exe
 0003:00000ea0       __imp_BN_bn2bin            000000018004bea0     node:node.exe
 0003:00000ea8       __imp_?ToObject@Value@v8@@QEBA?AV?$Local@VObject@v8@@@2@XZ 000000018004bea8     node:node.exe
 0003:00000eb0       __imp_uv_queue_work        000000018004beb0     node:node.exe
 0003:00000eb8       __imp_?Global@Context@v8@@QEAA?AV?$Local@VObject@v8@@@2@XZ 000000018004beb8     node:node.exe
 0003:00000ec0       __imp_?Value@External@v8@@QEBAPEAXXZ 000000018004bec0     node:node.exe
 0003:00000ec8       __imp_?New@External@v8@@SA?AV?$Local@VExternal@v8@@@2@PEAVIsolate@2@PEAX@Z 000000018004bec8     node:node.exe
 0003:00000ed0       __imp_?New@Signature@v8@@SA?AV?$Local@VSignature@v8@@@2@PEAVIsolate@2@V?$Local@VFunctionTemplate@v8@@@2@@Z 000000018004bed0     node:node.exe
 0003:00000ed8       __imp_?ThrowException@Isolate@v8@@QEAA?AV?$Local@VValue@v8@@@2@V32@@Z 000000018004bed8     node:node.exe
 0003:00000ee0       __imp_?GetCurrentContext@Isolate@v8@@QEAA?AV?$Local@VContext@v8@@@2@XZ 000000018004bee0     node:node.exe
 0003:00000ee8       __imp_?CreateHandle@HandleScope@v8@@KAPEAPEAVObject@internal@2@PEAVIsolate@42@PEAV342@@Z 000000018004bee8     node:node.exe
 0003:00000ef0       __imp_?CreateHandle@HandleScope@v8@@CAPEAPEAVObject@internal@2@PEAVHeapObject@42@PEAV342@@Z 000000018004bef0     node:node.exe
 0003:00000ef8       __imp_?Set@Template@v8@@QEAAXV?$Local@VName@v8@@@2@V?$Local@VData@v8@@@2@W4PropertyAttribute@2@@Z 000000018004bef8     node:node.exe
 0003:00000f00       __imp_?Error@Exception@v8@@SA?AV?$Local@VValue@v8@@@2@V?$Local@VString@v8@@@2@@Z 000000018004bf00     node:node.exe
 0003:00000f08       __imp_?SetClassName@FunctionTemplate@v8@@QEAAXV?$Local@VString@v8@@@2@@Z 000000018004bf08     node:node.exe
 0003:00000f10       __imp_?PrototypeTemplate@FunctionTemplate@v8@@QEAA?AV?$Local@VObjectTemplate@v8@@@2@XZ 000000018004bf10     node:node.exe
 0003:00000f18       __imp_?InstanceTemplate@FunctionTemplate@v8@@QEAA?AV?$Local@VObjectTemplate@v8@@@2@XZ 000000018004bf18     node:node.exe
 0003:00000f20       __imp_?GetFunction@FunctionTemplate@v8@@QEAA?AV?$Local@VFunction@v8@@@2@XZ 000000018004bf20     node:node.exe
 0003:00000f28       __imp_?GetFunction@FunctionTemplate@v8@@QEAA?AV?$MaybeLocal@VFunction@v8@@@2@V?$Local@VContext@v8@@@2@@Z 000000018004bf28     node:node.exe
 0003:00000f30       __imp_?New@FunctionTemplate@v8@@SA?AV?$Local@VFunctionTemplate@v8@@@2@PEAVIsolate@2@P6AXAEBV?$FunctionCallbackInfo@VValue@v8@@@2@@ZV?$Local@VValue@v8@@@2@V?$Local@VSignature@v8@@@2@HW4ConstructorBehavior@2@@Z 000000018004bf30     node:node.exe
 0003:00000f38       __imp_?FromJustIsNothing@V8@v8@@CAXXZ 000000018004bf38     node:node.exe
 0003:00000f40       __imp_?ClearWeak@V8@v8@@CAPEAXPEAPEAVObject@internal@2@@Z 000000018004bf40     node:node.exe
 0003:00000f48       __imp_?MakeWeak@V8@v8@@CAXPEAPEAVObject@internal@2@PEAXP6AXAEBV?$WeakCallbackInfo@X@2@@ZW4WeakCallbackType@2@@Z 000000018004bf48     node:node.exe
 0003:00000f50       __imp_?DisposeGlobal@V8@v8@@CAXPEAPEAVObject@internal@2@@Z 000000018004bf50     node:node.exe
 0003:00000f58       __imp_?GlobalizeReference@V8@v8@@CAPEAPEAVObject@internal@2@PEAVIsolate@42@PEAPEAV342@@Z 000000018004bf58     node:node.exe
 0003:00000f60       __imp_?Int32Value@Value@v8@@QEBA?AV?$Maybe@H@2@V?$Local@VContext@v8@@@2@@Z 000000018004bf60     node:node.exe
 0003:00000f68       __imp_?BooleanValue@Value@v8@@QEBA_NXZ 000000018004bf68     node:node.exe
 0003:00000f70       __imp_?ToObject@Value@v8@@QEBA?AV?$MaybeLocal@VObject@v8@@@2@V?$Local@VContext@v8@@@2@@Z 000000018004bf70     node:node.exe
 0003:00000f78       __imp_?Escape@EscapableHandleScope@v8@@AEAAPEAPEAVObject@internal@2@PEAPEAV342@@Z 000000018004bf78     node:node.exe
 0003:00000f80       __imp_??0EscapableHandleScope@v8@@QEAA@PEAVIsolate@1@@Z 000000018004bf80     node:node.exe
 0003:00000f88       __imp_??1Utf8Value@String@v8@@QEAA@XZ 000000018004bf88     node:node.exe
 0003:00000f90       __imp_??0Utf8Value@String@v8@@QEAA@V?$Local@VValue@v8@@@2@@Z 000000018004bf90     node:node.exe
 0003:00000f98       __imp_?SlowGetAlignedPointerFromInternalField@Object@v8@@AEAAPEAXH@Z 000000018004bf98     node:node.exe
 0003:00000fa0       __imp_?SlowGetInternalField@Object@v8@@AEAA?AV?$Local@VValue@v8@@@2@H@Z 000000018004bfa0     node:node.exe
 0003:00000fa8       __imp_?CallAsFunction@Object@v8@@QEAA?AV?$MaybeLocal@VValue@v8@@@2@V?$Local@VContext@v8@@@2@V?$Local@VValue@v8@@@2@HQEAV52@@Z 000000018004bfa8     node:node.exe
 0003:00000fb0       __imp_?SetAlignedPointerInInternalField@Object@v8@@QEAAXHPEAX@Z 000000018004bfb0     node:node.exe
 0003:00000fb8       __imp_?SetInternalField@Object@v8@@QEAAXHV?$Local@VValue@v8@@@2@@Z 000000018004bfb8     node:node.exe
 0003:00000fc0       __imp_?InternalFieldCount@Object@v8@@QEAAHXZ 000000018004bfc0     node:node.exe
 0003:00000fc8       __imp_?Get@Object@v8@@QEAA?AV?$MaybeLocal@VValue@v8@@@2@V?$Local@VContext@v8@@@2@V?$Local@VValue@v8@@@2@@Z 000000018004bfc8     node:node.exe
 0003:00000fd0       __imp_?Set@Object@v8@@QEAA?AV?$Maybe@_N@2@V?$Local@VContext@v8@@@2@V?$Local@VValue@v8@@@2@1@Z 000000018004bfd0     node:node.exe
 0003:00000fd8       __imp_?NewInstance@Function@v8@@QEBA?AV?$MaybeLocal@VObject@v8@@@2@V?$Local@VContext@v8@@@2@HQEAV?$Local@VValue@v8@@@2@@Z 000000018004bfd8     node:node.exe
 0003:00000fe0       __imp_?SetInternalFieldCount@ObjectTemplate@v8@@QEAAXH@Z 000000018004bfe0     node:node.exe
 0003:00000fe8       __imp_?SetAccessor@ObjectTemplate@v8@@QEAAXV?$Local@VName@v8@@@2@P6AX0AEBV?$PropertyCallbackInfo@VValue@v8@@@2@@ZP6AX0V?$Local@VValue@v8@@@2@AEBV?$PropertyCallbackInfo@X@2@@Z3W4AccessControl@2@W4PropertyAttribute@2@V?$Local@VAccessorSignature@v8@@@2@@Z 000000018004bfe8     node:node.exe
 0003:00000ff0       __imp_?NewInstance@ObjectTemplate@v8@@QEAA?AV?$MaybeLocal@VObject@v8@@@2@V?$Local@VContext@v8@@@2@@Z 000000018004bff0     node:node.exe
 0003:00000ff8       __imp_?New@ObjectTemplate@v8@@SA?AV?$Local@VObjectTemplate@v8@@@2@PEAVIsolate@2@V?$Local@VFunctionTemplate@v8@@@2@@Z 000000018004bff8     node:node.exe
 0003:00001000       __imp_?MakeCallback@node@@YA?AV?$Local@VValue@v8@@@v8@@PEAVIsolate@3@V?$Local@VObject@v8@@@3@V?$Local@VFunction@v8@@@3@HPEAV23@@Z 000000018004c000     node:node.exe
 0003:00001008       __imp_RSA_size             000000018004c008     node:node.exe
 0003:00001010       __imp_EVP_PKEY_get1_RSA    000000018004c010     node:node.exe
 0003:00001018       __imp_EVP_get_digestbyname 000000018004c018     node:node.exe
 0003:00001020       __imp_uv_default_loop      000000018004c020     node:node.exe
 0003:00001028       __imp_?ToString@Value@v8@@QEBA?AV?$Local@VString@v8@@@2@XZ 000000018004c028     node:node.exe
 0003:00001030       __imp_??1EscapableHandleScope@v8@@QEAA@XZ 000000018004c030     node:node.exe
 0003:00001038       __imp_?Uint32Value@Value@v8@@QEBAIXZ 000000018004c038     node:node.exe
 0003:00001040       \177node_NULL_THUNK_DATA_DLA 000000018004c040     node:node.exe
 0003:00001050       __hmod__node_exe           000000018004c050     node:node.exe
 0003:000010a0       __scrt_current_native_startup_state 000000018004c0a0     LIBCMT:utility.obj
 0003:000010a8       __scrt_native_startup_lock 000000018004c0a8     LIBCMT:utility.obj
 0003:00001660       __scrt_debugger_hook_flag  000000018004c660     LIBCMT:utility_desktop.obj
 0003:00001664       _tls_index                 000000018004c664     LIBCMT:tlssup.obj
 0003:00001668       __favor                    000000018004c668     LIBCMT:_cpu_disp_.obj
 0003:00001670       ?__type_info_root_node@@3U__type_info_node@@A 000000018004c670     LIBCMT:tncleanup.obj
 0003:00001680       ?_OptionsStorage@?1??__local_stdio_printf_options@@9@4_KA 000000018004c680     LIBCMT:default_local_stdio_options.obj
 0003:00001688       ?_OptionsStorage@?1??__local_stdio_scanf_options@@9@4_KA 000000018004c688     LIBCMT:default_local_stdio_options.obj
 0003:00001690       ?__WinRTOutOfMemoryExceptionCallback@@3P6APEAXXZEA 000000018004c690     libvcruntime:ehhelpers.obj
 0003:00001758       __pPurecall                000000018004c758     libvcruntime:purevirt_data.obj
 0003:00001790       ?pArgList@UnDecorator@@0PEAVReplicator@@EA 000000018004c790     libvcruntime:undname.obj
 0003:00001798       ?pZNameList@UnDecorator@@0PEAVReplicator@@EA 000000018004c798     libvcruntime:undname.obj
 0003:000017a0       ?pTemplateArgList@UnDecorator@@0PEAVReplicator@@EA 000000018004c7a0     libvcruntime:undname.obj
 0003:000017a8       ?gName@UnDecorator@@0PEBDEB 000000018004c7a8     libvcruntime:undname.obj
 0003:000017b0       ?name@UnDecorator@@0PEBDEB 000000018004c7b0     libvcruntime:undname.obj
 0003:000017b8       ?outputString@UnDecorator@@0PEADEA 000000018004c7b8     libvcruntime:undname.obj
 0003:000017c0       ?maxStringLength@UnDecorator@@0HA 000000018004c7c0     libvcruntime:undname.obj
 0003:000017c4       ?disableFlags@UnDecorator@@0KA 000000018004c7c4     libvcruntime:undname.obj
 0003:000017c8       ?fExplicitTemplateParams@UnDecorator@@0_NA 000000018004c7c8     libvcruntime:undname.obj
 0003:000017c9       ?fGetTemplateArgumentList@UnDecorator@@0_NA 000000018004c7c9     libvcruntime:undname.obj
 0003:000017d0       ?m_pGetParameter@UnDecorator@@0P6APEADJ@ZEA 000000018004c7d0     libvcruntime:undname.obj
 0003:00001820       ?c_exit_complete@?1???R<lambda_6e4b09c48022b2350581041d5f6b0c4c>@@QEBA@XZ@4_NA 000000018004c820     libucrt:exit.obj
 0003:00001938       _environ_table             000000018004c938     libucrt:environment_initialization.obj
 0003:00001940       _wenviron_table            000000018004c940     libucrt:environment_initialization.obj
 0003:00001948       __dcrt_initial_wide_environment 000000018004c948     libucrt:environment_initialization.obj
 0003:00001950       __dcrt_initial_narrow_environment 000000018004c950     libucrt:environment_initialization.obj
 0003:00001958       __acrt_atexit_table        000000018004c958     libucrt:onexit.obj
 0003:00001970       __acrt_at_quick_exit_table 000000018004c970     libucrt:onexit.obj
 0003:00001990       _nstream                   000000018004c990     libucrt:_file.obj
 0003:00001998       __piob                     000000018004c998     libucrt:_file.obj
 0003:000019a0       _cflush                    000000018004c9a0     libucrt:_file.obj
 0003:000019c8       __acrt_locale_changed_data 000000018004c9c8     libucrt:wsetlocale.obj
 0003:000019d0       __acrt_current_locale_data 000000018004c9d0     libucrt:nlsdata.obj
 0003:00001c20       __acrt_current_multibyte_data 000000018004cc20     libucrt:mbctype.obj
 0003:00001c28       _mbctype                   000000018004cc28     libucrt:mbctype.obj
 0003:00001c30       _mbcasemap                 000000018004cc30     libucrt:mbctype.obj
 0003:00001c40       __argc                     000000018004cc40     libucrt:argv_data.obj
 0003:00001c48       __argv                     000000018004cc48     libucrt:argv_data.obj
 0003:00001c50       __wargv                    000000018004cc50     libucrt:argv_data.obj
 0003:00001c58       _acmdln                    000000018004cc58     libucrt:argv_data.obj
 0003:00001c60       _wcmdln                    000000018004cc60     libucrt:argv_data.obj
 0003:00001c68       _pgmptr                    000000018004cc68     libucrt:argv_data.obj
 0003:00001e20       __acrt_heap                000000018004ce20     libucrt:heap_handle.obj
 0003:00001e30       __pioinfo                  000000018004ce30     libucrt:ioinit.obj
 0003:00002230       _nhandle                   000000018004d230     libucrt:ioinit.obj
 0003:00002240       __acrt_stdout_buffer       000000018004d240     libucrt:_sftbuf.obj
 0003:00002248       __acrt_stderr_buffer       000000018004d248     libucrt:_sftbuf.obj
 0003:00002260       __acrt_lconv_static_null   000000018004d260     libucrt:localeconv.obj
 0003:00002264       __acrt_lconv_static_W_null 000000018004d264     libucrt:localeconv.obj
 0003:00002268       __fma3_is_available        000000018004d268     libucrt:fma3_available.obj
 0003:0000226c       __use_fma3_lib             000000018004d26c     libucrt:fma3_available.obj
 0003:00002270       ?DloadKernel32@@3PEAUHINSTANCE__@@EA 000000018004d270     DelayImp:delayhlp.obj
 0003:00002278       ?DloadAcquireSRWLockExclusive@@3P6AXPEA_K@ZEA 000000018004d278     DelayImp:delayhlp.obj
 0003:00002280       ?DloadReleaseSRWLockExclusive@@3P6AXPEA_K@ZEA 000000018004d280     DelayImp:delayhlp.obj
 0003:00002288       ?DloadSrwLock@@3_KA        000000018004d288     DelayImp:delayhlp.obj
 0003:00002290       ?DloadSectionLockCount@@3KA 000000018004d290     DelayImp:delayhlp.obj
 0003:00002294       ?DloadSectionOldProtection@@3KA 000000018004d294     DelayImp:delayhlp.obj
 0003:00002298       ?DloadSectionCommitPermanent@@3KA 000000018004d298     DelayImp:delayhlp.obj
 0003:000022a0       ?my_constructor@?1??constructor@WKey@@KAAEAV?$Persistent@VFunction@v8@@V?$NonCopyablePersistentTraits@VFunction@v8@@@2@@Nan@@XZ@4V34@A 000000018004d2a0     w_key.obj
 0003:000022a8       ?$TSS0@?1??constructor@WKey@@KAAEAV?$Persistent@VFunction@v8@@V?$NonCopyablePersistentTraits@VFunction@v8@@@2@@Nan@@XZ@4HA 000000018004d2a8     w_key.obj
 0003:000022ac       ?$TSS0@?1??constructor@WAes@@KAAEAV?$Persistent@VFunction@v8@@V?$NonCopyablePersistentTraits@VFunction@v8@@@2@@Nan@@XZ@4HA 000000018004d2ac     w_aes.obj
 0003:000022b0       ?my_constructor@?1??constructor@WAes@@KAAEAV?$Persistent@VFunction@v8@@V?$NonCopyablePersistentTraits@VFunction@v8@@@2@@Nan@@XZ@4V34@A 000000018004d2b0     w_aes.obj
 0003:000022b8       ?my_constructor@?1??constructor@WHmac@@KAAEAV?$Persistent@VFunction@v8@@V?$NonCopyablePersistentTraits@VFunction@v8@@@2@@Nan@@XZ@4V34@A 000000018004d2b8     w_hmac.obj
 0003:000022c0       ?$TSS0@?1??constructor@WHmac@@KAAEAV?$Persistent@VFunction@v8@@V?$NonCopyablePersistentTraits@VFunction@v8@@@2@@Nan@@XZ@4HA 000000018004d2c0     w_hmac.obj
 0003:000022c8       ?my_constructor@?1??constructor@WPbkdf2@@KAAEAV?$Persistent@VFunction@v8@@V?$NonCopyablePersistentTraits@VFunction@v8@@@2@@Nan@@XZ@4V34@A 000000018004d2c8     w_pbkdf2.obj
 0003:000022d0       ?$TSS0@?1??constructor@WPbkdf2@@KAAEAV?$Persistent@VFunction@v8@@V?$NonCopyablePersistentTraits@VFunction@v8@@@2@@Nan@@XZ@4HA 000000018004d2d0     w_pbkdf2.obj
 0003:000022d4       ?$TSS0@?1??constructor@WCore@@KAAEAV?$Persistent@VFunction@v8@@V?$NonCopyablePersistentTraits@VFunction@v8@@@2@@Nan@@XZ@4HA 000000018004d2d4     w_core.obj
 0003:000022d8       ?my_constructor@?1??constructor@WCore@@KAAEAV?$Persistent@VFunction@v8@@V?$NonCopyablePersistentTraits@VFunction@v8@@@2@@Nan@@XZ@4V34@A 000000018004d2d8     w_core.obj
 0003:000022e0       __dyn_tls_init_callback    000000018004d2e0     <common>
 0003:000022e8       __scrt_ucrt_dll_is_in_use  000000018004d2e8     <common>

 entry point at        0001:0001ba04

 Static symbols

 0000:fffad000       .debug$S                   0000000180000000     node:node.exe
 0000:fffad000       .debug$S                   0000000180000000     kernel32:KERNEL32.dll
 0000:fffad000       .debug$S                   0000000180000000     kernel32:KERNEL32.dll
 0000:fffad000       .debug$S                   0000000180000000     node:node.exe
 0000:fffad000       .debug$S                   0000000180000000     kernel32:KERNEL32.dll
 0000:fffad000       .debug$S                   0000000180000000     node:node.exe
 0000:fffad000       .debug$S                   0000000180000000     node:node.exe
 0000:fffad000       .debug$S                   0000000180000000     node:node.exe
 0000:fffad000       .debug$S                   0000000180000000     node:node.exe
 0000:fffad000       .debug$S                   0000000180000000     nodessl.exp
 0000:fffad000       .debug$S                   0000000180000000     kernel32:KERNEL32.dll
 0000:fffad000       .debug$S                   0000000180000000     kernel32:KERNEL32.dll
 0000:fffad000       .debug$S                   0000000180000000     node:node.exe
 0000:fffad000       .debug$S                   0000000180000000     node:node.exe
 0000:fffad000       .debug$S                   0000000180000000     kernel32:KERNEL32.dll
 0000:fffad000       .debug$S                   0000000180000000     node:node.exe
 0000:fffad000       .debug$S                   0000000180000000     node:node.exe
 0000:fffad000       .debug$S                   0000000180000000     node:node.exe
 0000:fffad000       .debug$S                   0000000180000000     kernel32:KERNEL32.dll
 0000:fffad000       .debug$S                   0000000180000000     kernel32:KERNEL32.dll
 0000:fffad000       .debug$S                   0000000180000000     kernel32:KERNEL32.dll
 0000:fffad000       .debug$S                   0000000180000000     kernel32:KERNEL32.dll
 0000:fffad000       .debug$S                   0000000180000000     kernel32:KERNEL32.dll
 0000:fffad000       .debug$S                   0000000180000000     kernel32:KERNEL32.dll
 0000:fffad000       .debug$S                   0000000180000000     node:node.exe
 0000:fffad000       .debug$S                   0000000180000000     node:node.exe
 0000:fffad000       .debug$S                   0000000180000000     node:node.exe
 0000:fffad000       .debug$S                   0000000180000000     node:node.exe
 0000:fffad000       .debug$S                   0000000180000000     node:node.exe
 0000:fffad000       .debug$S                   0000000180000000     kernel32:KERNEL32.dll
 0000:fffad000       .debug$S                   0000000180000000     node:node.exe
 0000:fffad000       .debug$S                   0000000180000000     node:node.exe
 0000:fffad000       .debug$S                   0000000180000000     node:node.exe
 0000:fffad000       .debug$S                   0000000180000000     kernel32:KERNEL32.dll
 0000:fffad000       .debug$S                   0000000180000000     node:node.exe
 0000:fffad000       .debug$S                   0000000180000000     kernel32:KERNEL32.dll
 0000:fffad000       .debug$S                   0000000180000000     node:node.exe
 0000:fffad000       .debug$S                   0000000180000000     kernel32:KERNEL32.dll
 0000:fffad000       .debug$S                   0000000180000000     kernel32:KERNEL32.dll
 0000:fffad000       .debug$S                   0000000180000000     kernel32:KERNEL32.dll
 0000:fffad000       .debug$S                   0000000180000000     kernel32:KERNEL32.dll
 0000:fffad000       .debug$S                   0000000180000000     node:node.exe
 0000:fffad000       .debug$S                   0000000180000000     kernel32:KERNEL32.dll
 0000:fffad000       .debug$S                   0000000180000000     kernel32:KERNEL32.dll
 0000:fffad000       .debug$S                   0000000180000000     node:node.exe
 0000:fffad000       .debug$S                   0000000180000000     kernel32:KERNEL32.dll
 0000:fffad000       .debug$S                   0000000180000000     node:node.exe
 0000:fffad000       .debug$S                   0000000180000000     node:node.exe
 0000:fffad000       .debug$S                   0000000180000000     node:node.exe
 0000:fffad000       .debug$S                   0000000180000000     node:node.exe
 0000:fffad000       .debug$S                   0000000180000000     node:node.exe
 0000:fffad000       .debug$S                   0000000180000000     node:node.exe
 0000:fffad000       .debug$S                   0000000180000000     node:node.exe
 0000:fffad000       .debug$S                   0000000180000000     node:node.exe
 0000:fffad000       .debug$S                   0000000180000000     kernel32:KERNEL32.dll
 0000:fffad000       .debug$S                   0000000180000000     node:node.exe
 0000:fffad000       .debug$S                   0000000180000000     kernel32:KERNEL32.dll
 0000:fffad000       .debug$S                   0000000180000000     node:node.exe
 0000:fffad000       .debug$S                   0000000180000000     kernel32:KERNEL32.dll
 0000:fffad000       .debug$S                   0000000180000000     node:node.exe
 0000:fffad000       .debug$S                   0000000180000000     node:node.exe
 0000:fffad000       .debug$S                   0000000180000000     kernel32:KERNEL32.dll
 0000:fffad000       .debug$S                   0000000180000000     node:node.exe
 0000:fffad000       .debug$S                   0000000180000000     node:node.exe
 0000:fffad000       .debug$S                   0000000180000000     node:node.exe
 0000:fffad000       .debug$S                   0000000180000000     node:node.exe
 0000:fffad000       .debug$S                   0000000180000000     kernel32:KERNEL32.dll
 0000:fffad000       .debug$S                   0000000180000000     kernel32:KERNEL32.dll
 0000:fffad000       .debug$S                   0000000180000000     kernel32:KERNEL32.dll
 0000:fffad000       .debug$S                   0000000180000000     node:node.exe
 0000:fffad000       .debug$S                   0000000180000000     node:node.exe
 0000:fffad000       .debug$S                   0000000180000000     kernel32:KERNEL32.dll
 0000:fffad000       .debug$S                   0000000180000000     node:node.exe
 0000:fffad000       .debug$S                   0000000180000000     node:node.exe
 0000:fffad000       .debug$S                   0000000180000000     kernel32:KERNEL32.dll
 0000:fffad000       .debug$S                   0000000180000000     node:node.exe
 0000:fffad000       .debug$S                   0000000180000000     kernel32:KERNEL32.dll
 0000:fffad000       .debug$S                   0000000180000000     node:node.exe
 0000:fffad000       .debug$S                   0000000180000000     kernel32:KERNEL32.dll
 0000:fffad000       .debug$S                   0000000180000000     node:node.exe
 0000:fffad000       .debug$S                   0000000180000000     node:node.exe
 0000:fffad000       .debug$S                   0000000180000000     kernel32:KERNEL32.dll
 0000:fffad000       .debug$S                   0000000180000000     node:node.exe
 0000:fffad000       .debug$S                   0000000180000000     node:node.exe
 0000:fffad000       .debug$S                   0000000180000000     kernel32:KERNEL32.dll
 0000:fffad000       .debug$S                   0000000180000000     node:node.exe
 0000:fffad000       .debug$S                   0000000180000000     kernel32:KERNEL32.dll
 0000:fffad000       .debug$S                   0000000180000000     kernel32:KERNEL32.dll
 0000:fffad000       .debug$S                   0000000180000000     kernel32:KERNEL32.dll
 0000:fffad000       .debug$S                   0000000180000000     node:node.exe
 0000:fffad000       .debug$S                   0000000180000000     node:node.exe
 0000:fffad000       .debug$S                   0000000180000000     kernel32:KERNEL32.dll
 0000:fffad000       .debug$S                   0000000180000000     kernel32:KERNEL32.dll
 0000:fffad000       .debug$S                   0000000180000000     kernel32:KERNEL32.dll
 0000:fffad000       .debug$S                   0000000180000000     kernel32:KERNEL32.dll
 0000:fffad000       .debug$S                   0000000180000000     kernel32:KERNEL32.dll
 0000:fffad000       .debug$S                   0000000180000000     kernel32:KERNEL32.dll
 0000:fffad000       .debug$S                   0000000180000000     kernel32:KERNEL32.dll
 0000:fffad000       .debug$S                   0000000180000000     kernel32:KERNEL32.dll
 0000:fffad000       .debug$S                   0000000180000000     kernel32:KERNEL32.dll
 0000:fffad000       .debug$S                   0000000180000000     node:node.exe
 0000:fffad000       .debug$S                   0000000180000000     kernel32:KERNEL32.dll
 0000:fffad000       .debug$S                   0000000180000000     kernel32:KERNEL32.dll
 0000:fffad000       .debug$S                   0000000180000000     node:node.exe
 0000:fffad000       .debug$S                   0000000180000000     node:node.exe
 0000:fffad000       .debug$S                   0000000180000000     node:node.exe
 0000:fffad000       .debug$S                   0000000180000000     node:node.exe
 0000:fffad000       .debug$S                   0000000180000000     node:node.exe
 0000:fffad000       .debug$S                   0000000180000000     node:node.exe
 0000:fffad000       .debug$S                   0000000180000000     kernel32:KERNEL32.dll
 0000:fffad000       .debug$S                   0000000180000000     node:node.exe
 0000:fffad000       .debug$S                   0000000180000000     kernel32:KERNEL32.dll
 0000:fffad000       .debug$S                   0000000180000000     kernel32:KERNEL32.dll
 0000:fffad000       .debug$S                   0000000180000000     kernel32:KERNEL32.dll
 0000:fffad000       .debug$S                   0000000180000000     node:node.exe
 0000:fffad000       .debug$S                   0000000180000000     node:node.exe
 0000:fffad000       .debug$S                   0000000180000000     kernel32:KERNEL32.dll
 0000:fffad000       .debug$S                   0000000180000000     kernel32:KERNEL32.dll
 0000:fffad000       .debug$S                   0000000180000000     kernel32:KERNEL32.dll
 0000:fffad000       .debug$S                   0000000180000000     kernel32:KERNEL32.dll
 0000:fffad000       .debug$S                   0000000180000000     kernel32:KERNEL32.dll
 0000:fffad000       .debug$S                   0000000180000000     kernel32:KERNEL32.dll
 0000:fffad000       .debug$S                   0000000180000000     kernel32:KERNEL32.dll
 0000:fffad000       .debug$S                   0000000180000000     kernel32:KERNEL32.dll
 0000:fffad000       .debug$S                   0000000180000000     kernel32:KERNEL32.dll
 0000:fffad000       .debug$S                   0000000180000000     node:node.exe
 0000:fffad000       .debug$S                   0000000180000000     kernel32:KERNEL32.dll
 0000:fffad000       .debug$S                   0000000180000000     kernel32:KERNEL32.dll
 0000:fffad000       .debug$S                   0000000180000000     node:node.exe
 0000:fffad000       .debug$S                   0000000180000000     node:node.exe
 0000:fffad000       .debug$S                   0000000180000000     node:node.exe
 0000:fffad000       .debug$S                   0000000180000000     node:node.exe
 0000:fffad000       .debug$S                   0000000180000000     node:node.exe
 0000:fffad000       .debug$S                   0000000180000000     node:node.exe
 0000:fffad000       .debug$S                   0000000180000000     node:node.exe
 0000:fffad000       .debug$S                   0000000180000000     node:node.exe
 0000:fffad000       .debug$S                   0000000180000000     node:node.exe
 0000:fffad000       .debug$S                   0000000180000000     node:node.exe
 0000:fffad000       .debug$S                   0000000180000000     node:node.exe
 0000:fffad000       .debug$S                   0000000180000000     node:node.exe
 0000:fffad000       .debug$S                   0000000180000000     node:node.exe
 0000:fffad000       .debug$S                   0000000180000000     node:node.exe
 0000:fffad000       .debug$S                   0000000180000000     kernel32:KERNEL32.dll
 0000:fffad000       .debug$S                   0000000180000000     kernel32:KERNEL32.dll
 0000:fffad000       .debug$S                   0000000180000000     node:node.exe
 0000:fffad000       .debug$S                   0000000180000000     node:node.exe
 0000:fffad000       .debug$S                   0000000180000000     node:node.exe
 0000:fffad000       .debug$S                   0000000180000000     node:node.exe
 0000:fffad000       .debug$S                   0000000180000000     node:node.exe
 0000:fffad000       .debug$S                   0000000180000000     node:node.exe
 0000:fffad000       .debug$S                   0000000180000000     node:node.exe
 0000:fffad000       .debug$S                   0000000180000000     node:node.exe
 0000:fffad000       .debug$S                   0000000180000000     node:node.exe
 0000:fffad000       .debug$S                   0000000180000000     node:node.exe
 0000:fffad000       .debug$S                   0000000180000000     node:node.exe
 0000:fffad000       .debug$S                   0000000180000000     node:node.exe
 0000:fffad000       .debug$S                   0000000180000000     node:node.exe
 0000:fffad000       .debug$S                   0000000180000000     kernel32:KERNEL32.dll
 0000:fffad000       .debug$S                   0000000180000000     node:node.exe
 0000:fffad000       .debug$S                   0000000180000000     node:node.exe
 0000:fffad000       .debug$S                   0000000180000000     node:node.exe
 0000:fffad000       .debug$S                   0000000180000000     node:node.exe
 0000:fffad000       .debug$S                   0000000180000000     node:node.exe
 0000:fffad000       .debug$S                   0000000180000000     node:node.exe
 0000:fffad000       .debug$S                   0000000180000000     node:node.exe
 0000:fffad000       .debug$S                   0000000180000000     node:node.exe
 0000:fffad000       .debug$S                   0000000180000000     node:node.exe
 0000:fffad000       .debug$S                   0000000180000000     node:node.exe
 0000:fffad000       .debug$S                   0000000180000000     node:node.exe
 0000:fffad000       .debug$S                   0000000180000000     node:node.exe
 0000:fffad000       .debug$S                   0000000180000000     kernel32:KERNEL32.dll
 0000:fffad000       .debug$S                   0000000180000000     node:node.exe
 0000:fffad000       .debug$S                   0000000180000000     node:node.exe
 0000:fffad000       .debug$S                   0000000180000000     node:node.exe
 0000:fffad000       .debug$S                   0000000180000000     node:node.exe
 0000:fffad000       .debug$S                   0000000180000000     node:node.exe
 0000:fffad000       .debug$S                   0000000180000000     node:node.exe
 0000:fffad000       .debug$S                   0000000180000000     node:node.exe
 0000:fffad000       .debug$S                   0000000180000000     node:node.exe
 0000:fffad000       .debug$S                   0000000180000000     node:node.exe
 0000:fffad000       .debug$S                   0000000180000000     node:node.exe
 0000:fffad000       .debug$S                   0000000180000000     node:node.exe
 0000:fffad000       .debug$S                   0000000180000000     kernel32:KERNEL32.dll
 0000:fffad000       .debug$S                   0000000180000000     node:node.exe
 0000:fffad000       .debug$S                   0000000180000000     node:node.exe
 0000:fffad000       .debug$S                   0000000180000000     node:node.exe
 0000:fffad000       .debug$S                   0000000180000000     node:node.exe
 0000:fffad000       .debug$S                   0000000180000000     node:node.exe
 0000:fffad000       .debug$S                   0000000180000000     node:node.exe
 0000:fffad000       .debug$S                   0000000180000000     node:node.exe
 0000:fffad000       .debug$S                   0000000180000000     node:node.exe
 0000:fffad000       .debug$S                   0000000180000000     node:node.exe
 0000:fffad000       .debug$S                   0000000180000000     node:node.exe
 0000:fffad000       .debug$S                   0000000180000000     node:node.exe
 0000:fffad000       .debug$S                   0000000180000000     node:node.exe
 0000:fffad000       .debug$S                   0000000180000000     node:node.exe
 0000:fffad000       .debug$S                   0000000180000000     kernel32:KERNEL32.dll
 0000:fffad000       .debug$S                   0000000180000000     node:node.exe
 0000:fffad000       .debug$S                   0000000180000000     kernel32:KERNEL32.dll
 0000:fffad000       .debug$S                   0000000180000000     node:node.exe
 0000:fffad000       .debug$S                   0000000180000000     node:node.exe
 0000:fffad000       .debug$S                   0000000180000000     node:node.exe
 0000:fffad000       .debug$S                   0000000180000000     node:node.exe
 0000:fffad000       .debug$S                   0000000180000000     node:node.exe
 0000:fffad000       .debug$S                   0000000180000000     kernel32:KERNEL32.dll
 0000:fffad000       .debug$S                   0000000180000000     kernel32:KERNEL32.dll
 0000:fffad000       .debug$S                   0000000180000000     node:node.exe
 0000:fffad000       .debug$S                   0000000180000000     kernel32:KERNEL32.dll
 0000:fffad000       .debug$S                   0000000180000000     kernel32:KERNEL32.dll
 0000:fffad000       .debug$S                   0000000180000000     node:node.exe
 0000:fffad000       .debug$S                   0000000180000000     kernel32:KERNEL32.dll
 0000:fffad000       .debug$S                   0000000180000000     node:node.exe
 0000:fffad000       .debug$S                   0000000180000000     node:node.exe
 0000:fffad000       .debug$S                   0000000180000000     node:node.exe
 0000:fffad000       .debug$S                   0000000180000000     node:node.exe
 0000:fffad000       .debug$S                   0000000180000000     node:node.exe
 0000:fffad000       .debug$S                   0000000180000000     node:node.exe
 0000:fffad000       .debug$S                   0000000180000000     node:node.exe
 0000:fffad000       .debug$S                   0000000180000000     kernel32:KERNEL32.dll
 0000:fffad000       .debug$S                   0000000180000000     node:node.exe
 0000:fffad000       .debug$S                   0000000180000000     node:node.exe
 0000:fffad000       .debug$S                   0000000180000000     node:node.exe
 0000:fffad000       .debug$S                   0000000180000000     kernel32:KERNEL32.dll
 0000:fffad000       .debug$S                   0000000180000000     node:node.exe
 0000:fffad000       .debug$S                   0000000180000000     kernel32:KERNEL32.dll
 0000:fffad000       .debug$S                   0000000180000000     node:node.exe
 0000:fffad000       .debug$S                   0000000180000000     kernel32:KERNEL32.dll
 0000:fffad000       .debug$S                   0000000180000000     node:node.exe
 0000:fffad000       .debug$S                   0000000180000000     node:node.exe
 0000:fffad000       .debug$S                   0000000180000000     node:node.exe
 0000:fffad000       .debug$S                   0000000180000000     kernel32:KERNEL32.dll
 0000:fffad000       .debug$S                   0000000180000000     node:node.exe
 0000:fffad000       .debug$S                   0000000180000000     node:node.exe
 0000:fffad000       .debug$S                   0000000180000000     kernel32:KERNEL32.dll
 0000:fffad000       .debug$S                   0000000180000000     kernel32:KERNEL32.dll
 0000:fffad000       .debug$S                   0000000180000000     kernel32:KERNEL32.dll
 0000:fffad000       .debug$S                   0000000180000000     node:node.exe
 0000:fffad000       .debug$S                   0000000180000000     node:node.exe
 0000:fffad000       .debug$S                   0000000180000000     kernel32:KERNEL32.dll
 0000:fffad000       .debug$S                   0000000180000000     node:node.exe
 0000:fffad000       .debug$S                   0000000180000000     kernel32:KERNEL32.dll
 0000:fffad000       .debug$S                   0000000180000000     node:node.exe
 0000:fffad000       .debug$S                   0000000180000000     node:node.exe
 0000:fffad000       .debug$S                   0000000180000000     node:node.exe
 0000:fffad000       .debug$S                   0000000180000000     node:node.exe
 0000:fffad000       .debug$S                   0000000180000000     kernel32:KERNEL32.dll
 0000:fffad000       .debug$S                   0000000180000000     node:node.exe
 0000:fffad000       .debug$S                   0000000180000000     node:node.exe
 0000:fffad000       .debug$S                   0000000180000000     node:node.exe
 0000:fffad000       .debug$S                   0000000180000000     node:node.exe
 0000:fffad000       .debug$S                   0000000180000000     node:node.exe
 0000:fffad000       .debug$S                   0000000180000000     node:node.exe
 0000:fffad000       .debug$S                   0000000180000000     kernel32:KERNEL32.dll
 0000:fffad000       .debug$S                   0000000180000000     node:node.exe
 0000:fffad000       .debug$S                   0000000180000000     kernel32:KERNEL32.dll
 0000:fffad000       .debug$S                   0000000180000000     node:node.exe
 0000:fffad000       .debug$S                   0000000180000000     node:node.exe
 0000:fffad000       .debug$S                   0000000180000000     node:node.exe
 0000:fffad000       .debug$S                   0000000180000000     kernel32:KERNEL32.dll
 0000:fffad000       .debug$S                   0000000180000000     node:node.exe
 0000:fffad000       .debug$S                   0000000180000000     node:node.exe
 0000:fffad000       .debug$S                   0000000180000000     kernel32:KERNEL32.dll
 0000:fffad000       .debug$S                   0000000180000000     node:node.exe
 0000:fffad000       .debug$S                   0000000180000000     node:node.exe
 0000:fffad000       .debug$S                   0000000180000000     node:node.exe
 0000:fffad000       .debug$S                   0000000180000000     kernel32:KERNEL32.dll
 0000:fffad000       .debug$S                   0000000180000000     node:node.exe
 0000:fffad000       .debug$S                   0000000180000000     node:node.exe
 0000:fffad000       .debug$S                   0000000180000000     kernel32:KERNEL32.dll
 0000:fffad000       .debug$S                   0000000180000000     node:node.exe
 0000:fffad000       .debug$S                   0000000180000000     node:node.exe
 0000:fffad000       .debug$S                   0000000180000000     node:node.exe
 0000:fffad000       .debug$S                   0000000180000000     kernel32:KERNEL32.dll
 0000:fffad000       .debug$S                   0000000180000000     node:node.exe
 0000:fffad000       .debug$S                   0000000180000000     node:node.exe
 0000:fffad000       .debug$S                   0000000180000000     node:node.exe
 0001:00001a70       _register_nodessl          0000000180002a70 f   main.obj
 0001:00001cb0       ?KEY_export@@YA?AV?$shared_ptr@V?$basic_string@DU?$char_traits@D@std@@V?$allocator@D@2@@std@@@std@@PEAUevp_pkey_st@@P6AHPEAUbio_st@@0@Z@Z 0000000180002cb0 f   key_exp.obj
 0001:00001e30       ?KEY_import@@YA?AV?$shared_ptr@V?$ScopedSSL@Uevp_pkey_st@@$1?ScopedEVP_PKEY_free@@YAXPEAX@Z@@@std@@PEAUbio_st@@P6APEAUevp_pkey_st@@0PEAPEAU4@@Z@Z 0000000180002e30 f   key_exp.obj
 0001:00002800       ??$_Reallocate_grow_by@V<lambda_e1befb086ad3257e3f042a63030725f7>@@_KD@?$basic_string@DU?$char_traits@D@std@@V?$allocator@D@2@@std@@QEAAAEAV01@_KV<lambda_e1befb086ad3257e3f042a63030725f7>@@_KD@Z 0000000180003800 f   digest.obj
 0001:00003940       ?setRsaPssParams@@YAXPEBUenv_md_st@@HPEAUevp_pkey_ctx_st@@@Z 0000000180004940 f   rsa_pss.obj
 0001:000040c0       ?GetEcGroupOrderSize@@YA_KPEAUevp_pkey_st@@@Z 00000001800050c0 f   ec_dsa.obj
 0001:000041f0       ?ConvertWebCryptoSignatureToDerSignature@@YA?AV?$shared_ptr@V?$basic_string@DU?$char_traits@D@std@@V?$allocator@D@2@@std@@@std@@PEAUevp_pkey_st@@PEBEAEB_KPEA_N@Z 00000001800051f0 f   ec_dsa.obj
 0001:00004400       ?ConvertDerSignatureToWebCryptoSignature@@YA?AV?$shared_ptr@V?$basic_string@DU?$char_traits@D@std@@V?$allocator@D@2@@std@@@std@@PEAUevp_pkey_st@@PEBEAEA_K@Z 0000000180005400 f   ec_dsa.obj
 0001:000059a0       ?AES_ECB_encrypt@@YA?AV?$shared_ptr@V?$basic_string@DU?$char_traits@D@std@@V?$allocator@D@2@@std@@@std@@V12@0_N@Z 00000001800069a0 f   aes_ecb.obj
 0001:00005cd0       ?AES_CBC_encrypt@@YA?AV?$shared_ptr@V?$basic_string@DU?$char_traits@D@std@@V?$allocator@D@2@@std@@@std@@V12@00_N@Z 0000000180006cd0 f   aes_cbc.obj
 0001:00006690       ?AES_GCM_encrypt@@YA?AV?$shared_ptr@V?$basic_string@DU?$char_traits@D@std@@V?$allocator@D@2@@std@@@std@@V12@000H@Z 0000000180007690 f   aes_gcm.obj
 0001:00006b60       ?AES_GCM_decrypt@@YA?AV?$shared_ptr@V?$basic_string@DU?$char_traits@D@std@@V?$allocator@D@2@@std@@@std@@V12@000H@Z 0000000180007b60 f   aes_gcm.obj
 0001:00008470       ?FunctionCallbackWrapper@imp@Nan@@YAXAEBV?$FunctionCallbackInfo@VValue@v8@@@v8@@@Z 0000000180009470 f   w_key.obj
 0001:00008540       ?GetterCallbackWrapper@imp@Nan@@YAXV?$Local@VName@v8@@@v8@@AEBV?$PropertyCallbackInfo@VValue@v8@@@4@@Z 0000000180009540 f   w_key.obj
 0001:0001a3c0       ?load_exe_hook@@YAP6A_JXZIPEAUDelayLoadInfo@@@Z 000000018001b3c0 f   win_delay_load_hook.obj
 0001:0001af00       $$000000                   000000018001bf00     LIBCMT:_amdsecgs_.obj
 0001:0001afac       ?__scrt_initialize_thread_safe_statics@@YAHXZ 000000018001bfac f   LIBCMT:thread_safe_statics.obj
 0001:0001b0f8       ?__scrt_uninitialize_thread_safe_statics@@YAXXZ 000000018001c0f8 f   LIBCMT:thread_safe_statics.obj
 0001:0001b6c8       ?dllmain_crt_dispatch@@YAHQEAUHINSTANCE__@@KQEAX@Z 000000018001c6c8 f   LIBCMT:dll_dllmain.obj
 0001:0001b718       ?dllmain_crt_process_attach@@YAHQEAUHINSTANCE__@@QEAX@Z 000000018001c718 f   LIBCMT:dll_dllmain.obj
 0001:0001b82c       ?dllmain_crt_process_detach@@YAH_N@Z 000000018001c82c f   LIBCMT:dll_dllmain.obj
 0001:0001b8b8       ?dllmain_dispatch@@YAHQEAUHINSTANCE__@@KQEAX@Z 000000018001c8b8 f   LIBCMT:dll_dllmain.obj
 0001:0001b9b0       ?dllmain_raw@@YAHQEAUHINSTANCE__@@KQEAX@Z 000000018001c9b0 f   LIBCMT:dll_dllmain.obj
 0001:0001bbfc       capture_current_context    000000018001cbfc f   LIBCMT:gs_report.obj
 0001:0001bc6c       capture_previous_context   000000018001cc6c f   LIBCMT:gs_report.obj
 0001:0001c960       $$000000                   000000018001d960     libvcruntime:memcpy.obj
 0001:0001ca07       MoveSmall                  000000018001da07     libvcruntime:memcpy.obj
 0001:0001cf80       ?try_get_function@@YAPEAXW4function_id@?A0x2db55455@@QEBDQEBW4module_id@2@2@Z 000000018001df80 f   libvcruntime:winapi_downlevel.obj
 0001:0001d640       $$000000                   000000018001e640     libvcruntime:memset.obj
 0001:0001d73c       MsetTab                    000000018001e73c     libvcruntime:memset.obj
 0001:0001db80       ?CatchIt@@YAXPEAUEHExceptionRecord@@PEA_KPEAU_CONTEXT@@PEAU_xDISPATCHER_CONTEXT@@PEBU_s_FuncInfo@@PEBU_s_HandlerType@@PEBU_s_CatchableType@@PEBU_s_TryBlockMapEntry@@H1EE@Z 000000018001eb80 f   libvcruntime:frame.obj
 0001:0001dc44       ?ExFilterRethrow@@YAHPEAU_EXCEPTION_POINTERS@@PEAUEHExceptionRecord@@PEAH@Z 000000018001ec44 f   libvcruntime:frame.obj
 0001:0001dccc       ?FindHandler@@YAXPEAUEHExceptionRecord@@PEA_KPEAU_CONTEXT@@PEAU_xDISPATCHER_CONTEXT@@PEBU_s_FuncInfo@@EH1@Z 000000018001eccc f   libvcruntime:frame.obj
 0001:0001e19c       ?FindHandlerForForeignException@@YAXPEAUEHExceptionRecord@@PEA_KPEAU_CONTEXT@@PEAU_xDISPATCHER_CONTEXT@@PEBU_s_FuncInfo@@HH1@Z 000000018001f19c f   libvcruntime:frame.obj
 0001:0001e408       ?IsInExceptionSpec@@YAEPEAUEHExceptionRecord@@PEBU_s_ESTypeList@@@Z 000000018001f408 f   libvcruntime:frame.obj
 0001:0001ef60       $$000000                   000000018001ff60     libvcruntime:_jmpuwind_.obj
 0001:0001f010       $$000000                   0000000180020010     libvcruntime:handlers.obj
 0001:0001f30c       ??$common_assert_to_message_box@_W@@YAXQEB_W0IQEAX@Z 000000018002030c f   libucrt:assert.obj
 0001:0001f3d0       ??$common_assert_to_message_box_build_string@_W@@YAXQEA_W_KQEB_W2IQEAX@Z 00000001800203d0 f   libucrt:assert.obj
 0001:0001fb90       ??$common_assert_to_stderr@_W@@YAXQEB_W0I@Z 0000000180020b90 f   libucrt:assert.obj
 0001:0001fd00       ?get_assert_format@@YAPEB_W_W@Z 0000000180020d00 f   libucrt:assert.obj
 0001:00020218       ??$?RV<lambda_d80eeec6fff315bfe5c115232f3240e3>@@AEAV<lambda_6e4b09c48022b2350581041d5f6b0c4c>@@V<lambda_2358e3775559c9db80273638284d5e45>@@@?$__crt_seh_guarded_call@X@@QEAAX$$QEAV<lambda_d80eeec6fff315bfe5c115232f3240e3>@@AEAV<lambda_6e4b09c48022b2350581041d5f6b0c4c>@@$$QEAV<lambda_2358e3775559c9db80273638284d5e45>@@@Z 0000000180021218 f   libucrt:exit.obj
 0001:00020250       ??R<lambda_6e4b09c48022b2350581041d5f6b0c4c>@@QEBA@XZ 0000000180021250 f   libucrt:exit.obj
 0001:00020328       ?atexit_exception_filter@@YAHK@Z 0000000180021328 f   libucrt:exit.obj
 0001:00020334       ?common_exit@@YAXHW4_crt_exit_cleanup_mode@@W4_crt_exit_return_mode@@@Z 0000000180021334 f   libucrt:exit.obj
 0001:000203f0       ?exit_or_terminate_process@@YAXI@Z 00000001800213f0 f   libucrt:exit.obj
 0001:0002043c       ?try_cor_exit_process@@YAXI@Z 000000018002143c f   libucrt:exit.obj
 0001:000204c4       ??$parse_command_line@D@@YAXPEADPEAPEAD0PEA_K2@Z 00000001800214c4 f   libucrt:argv_parsing.obj
 0001:00020868       ??$common_initialize_environment_nolock@D@@YAHXZ 0000000180021868 f   libucrt:environment_initialization.obj
 0001:000208d4       ??$create_environment@D@@YAQEAPEADQEAD@Z 00000001800218d4 f   libucrt:environment_initialization.obj
 0001:000209e0       ??$free_environment@_W@@YAXQEAPEA_W@Z 00000001800219e0 f   libucrt:environment_initialization.obj
 0001:000209e0       ??$free_environment@D@@YAXQEAPEAD@Z 00000001800219e0 f   libucrt:environment_initialization.obj
 0001:00020a24       ??$uninitialize_environment_internal@D@@YAXAEAPEAPEAD@Z 0000000180021a24 f   libucrt:environment_initialization.obj
 0001:00020a40       ??$uninitialize_environment_internal@_W@@YAXAEAPEAPEA_W@Z 0000000180021a40 f   libucrt:environment_initialization.obj
 0001:00020a9c       ??$?RV<lambda_7777bce6b2f8c936911f934f8298dc43>@@AEAV<lambda_f03950bc5685219e0bcd2087efbe011e>@@V<lambda_3883c3dff614d5e0c5f61bb1ac94921c>@@@?$__crt_seh_guarded_call@H@@QEAAH$$QEAV<lambda_7777bce6b2f8c936911f934f8298dc43>@@AEAV<lambda_f03950bc5685219e0bcd2087efbe011e>@@$$QEAV<lambda_3883c3dff614d5e0c5f61bb1ac94921c>@@@Z 0000000180021a9c f   libucrt:onexit.obj
 0001:00020ad8       ??$?RV<lambda_8369fcb7c4df1e85de37618bd2b85f07>@@AEAV<lambda_a10e4b102d4a2c3aac6f4f48bbdf488f>@@V<lambda_5b7707bd6d7a0c4713179f36c7fd995d>@@@?$__crt_seh_guarded_call@H@@QEAAH$$QEAV<lambda_8369fcb7c4df1e85de37618bd2b85f07>@@AEAV<lambda_a10e4b102d4a2c3aac6f4f48bbdf488f>@@$$QEAV<lambda_5b7707bd6d7a0c4713179f36c7fd995d>@@@Z 0000000180021ad8 f   libucrt:onexit.obj
 0001:00020b14       ??R<lambda_a10e4b102d4a2c3aac6f4f48bbdf488f>@@QEBAHXZ 0000000180021b14 f   libucrt:onexit.obj
 0001:00020cd8       ??R<lambda_f03950bc5685219e0bcd2087efbe011e>@@QEBAHXZ 0000000180021cd8 f   libucrt:onexit.obj
 0001:00020ef8       initialize_global_variables 0000000180021ef8 f   libucrt:initialization.obj
 0001:00020f0c       initialize_c               0000000180021f0c f   libucrt:initialization.obj
 0001:00020f30       initialize_environment     0000000180021f30 f   libucrt:initialization.obj
 0001:00020f30       uninitialize_global_state_isolation 0000000180021f30 f   libucrt:initialization.obj
 0001:00020f30       uninitialize_c             0000000180021f30 f   libucrt:initialization.obj
 0001:00020f30       report_memory_leaks        0000000180021f30 f   libucrt:initialization.obj
 0001:00020f30       initialize_global_state_isolation 0000000180021f30 f   libucrt:initialization.obj
 0001:00020f34       uninitialize_environment   0000000180021f34 f   libucrt:initialization.obj
 0001:00020f44       initialize_pointers        0000000180021f44 f   libucrt:initialization.obj
 0001:00020f98       uninitialize_vcruntime     0000000180021f98 f   libucrt:initialization.obj
 0001:00020fa0       uninitialize_allocated_memory 0000000180021fa0 f   libucrt:initialization.obj
 0001:00020fe0       uninitialize_allocated_io_buffers 0000000180021fe0 f   libucrt:initialization.obj
 0001:0002137c       ??$?RV<lambda_0d412022a4b28cc8a401ea49574e8ae6>@@AEAV<lambda_a775ed57af18ba8e4d5dc780aa9068fe>@@V<lambda_975a71a6baa488a08f4e15f6b0339b9e>@@@?$__crt_seh_guarded_call@H@@QEAAH$$QEAV<lambda_0d412022a4b28cc8a401ea49574e8ae6>@@AEAV<lambda_a775ed57af18ba8e4d5dc780aa9068fe>@@$$QEAV<lambda_975a71a6baa488a08f4e15f6b0339b9e>@@@Z 000000018002237c f   libucrt:output.obj
 0001:000213bc       ??$common_vsprintf@Vstandard_base@__crt_stdio_output@@_W@@YAH_KQEA_W0QEB_WQEAU__crt_locale_pointers@@QEAD@Z 00000001800223bc f   libucrt:output.obj
 0001:0002195c       ??R<lambda_a775ed57af18ba8e4d5dc780aa9068fe>@@QEBAHXZ 000000018002295c f   libucrt:output.obj
 0001:00023b60       ??$?RV<lambda_0ae27a3a962d80f24befdcbee591983d>@@AEAV<lambda_8d0ee55de4b1038c4002e0adecdf1839>@@V<lambda_dc504788e8f1664fe9b84e20bfb512f2>@@@?$__crt_seh_guarded_call@X@@QEAAX$$QEAV<lambda_0ae27a3a962d80f24befdcbee591983d>@@AEAV<lambda_8d0ee55de4b1038c4002e0adecdf1839>@@$$QEAV<lambda_dc504788e8f1664fe9b84e20bfb512f2>@@@Z 0000000180024b60 f   libucrt:per_thread_data.obj
 0001:00023ba0       ??$?RV<lambda_2d41944a1d46af3157314b8a01080d33>@@AEAV<lambda_8f455de75cd7d7f24b4096f044d8b9e6>@@V<lambda_aa500f224e6afead328df44964fe2772>@@@?$__crt_seh_guarded_call@X@@QEAAX$$QEAV<lambda_2d41944a1d46af3157314b8a01080d33>@@AEAV<lambda_8f455de75cd7d7f24b4096f044d8b9e6>@@$$QEAV<lambda_aa500f224e6afead328df44964fe2772>@@@Z 0000000180024ba0 f   libucrt:per_thread_data.obj
 0001:00023be0       ??$?RV<lambda_aa87e3671a710a21b5dc78c0bdf72e11>@@AEAV<lambda_92619d2358a28f41a33ba319515a20b9>@@V<lambda_6992ecaafeb10aed2b74cb1fae11a551>@@@?$__crt_seh_guarded_call@X@@QEAAX$$QEAV<lambda_aa87e3671a710a21b5dc78c0bdf72e11>@@AEAV<lambda_92619d2358a28f41a33ba319515a20b9>@@$$QEAV<lambda_6992ecaafeb10aed2b74cb1fae11a551>@@@Z 0000000180024be0 f   libucrt:per_thread_data.obj
 0001:00023c28       ??$?RV<lambda_f2e299630e499de9f9a165e60fcd3db5>@@AEAV<lambda_2ae9d31cdba2644fcbeaf08da7c24588>@@V<lambda_40d01ff24d0e7b3814fdbdcee8eab3c7>@@@?$__crt_seh_guarded_call@X@@QEAAX$$QEAV<lambda_f2e299630e499de9f9a165e60fcd3db5>@@AEAV<lambda_2ae9d31cdba2644fcbeaf08da7c24588>@@$$QEAV<lambda_40d01ff24d0e7b3814fdbdcee8eab3c7>@@@Z 0000000180024c28 f   libucrt:per_thread_data.obj
 0001:00023c88       ?construct_ptd_array@@YAXQEAU__acrt_ptd@@@Z 0000000180024c88 f   libucrt:per_thread_data.obj
 0001:00023d58       ?destroy_fls@@YAXPEAX@Z    0000000180024d58 f   libucrt:per_thread_data.obj
 0001:00023d78       ?destroy_ptd_array@@YAXQEAU__acrt_ptd@@@Z 0000000180024d78 f   libucrt:per_thread_data.obj
 0001:00023e70       ?replace_current_thread_locale_nolock@@YAXQEAU__acrt_ptd@@QEAU__crt_locale_data@@@Z 0000000180024e70 f   libucrt:per_thread_data.obj
 0001:000242a0       ??$common_xtox@K_W@@YAHKQEA_W_KI_N@Z 00000001800252a0 f   libucrt:xtoa.obj
 0001:00024348       ??$common_xtox_s@K_W@@YAHKQEA_W_KI_N@Z 0000000180025348 f   libucrt:xtoa.obj
 0001:00024848       ??$?RV<lambda_842d9ff0dc9ef11c61343bbaebe7f885>@@AEAV<lambda_c5860995281e5c4ce005b3de8f5874ee>@@V<lambda_d90129c13df834fdcbf8d2b88dafcf2d>@@@?$__crt_seh_guarded_call@X@@QEAAX$$QEAV<lambda_842d9ff0dc9ef11c61343bbaebe7f885>@@AEAV<lambda_c5860995281e5c4ce005b3de8f5874ee>@@$$QEAV<lambda_d90129c13df834fdcbf8d2b88dafcf2d>@@@Z 0000000180025848 f   libucrt:fflush.obj
 0001:000248e4       ??$?RV<lambda_886d6c58226a84441f68b9f2b8217b83>@@AEAV<lambda_ab61a845afdef5b7c387490eaf3616ee>@@V<lambda_f7f22ab5edc0698d5f6905b0d3f44752>@@@?$__crt_seh_guarded_call@X@@QEAAX$$QEAV<lambda_886d6c58226a84441f68b9f2b8217b83>@@AEAV<lambda_ab61a845afdef5b7c387490eaf3616ee>@@$$QEAV<lambda_f7f22ab5edc0698d5f6905b0d3f44752>@@@Z 00000001800258e4 f   libucrt:fflush.obj
 0001:000249cc       ??$?RV<lambda_c376a267cfb53b6959b3b692ec76b120>@@AEAV<lambda_9a32fed5bf61b6b509b2d3f6003082a1>@@V<lambda_572fbb9fa0ab338edf41edfd4b5fcc8d>@@@?$__crt_seh_guarded_call@H@@QEAAH$$QEAV<lambda_c376a267cfb53b6959b3b692ec76b120>@@AEAV<lambda_9a32fed5bf61b6b509b2d3f6003082a1>@@$$QEAV<lambda_572fbb9fa0ab338edf41edfd4b5fcc8d>@@@Z 00000001800259cc f   libucrt:fflush.obj
 0001:00024a0c       ?common_flush_all@@YAH_N@Z 0000000180025a0c f   libucrt:fflush.obj
 0001:00024ba4       ??$?RV<lambda_84ec643ea9557e2f7dc01bb0e9624395>@@AEAV<lambda_ca71763b3c0644891230e4f79ea54fa6>@@V<lambda_439a761618c59b0600e24586724d733b>@@@?$__crt_seh_guarded_call@H@@QEAAH$$QEAV<lambda_84ec643ea9557e2f7dc01bb0e9624395>@@AEAV<lambda_ca71763b3c0644891230e4f79ea54fa6>@@$$QEAV<lambda_439a761618c59b0600e24586724d733b>@@@Z 0000000180025ba4 f   libucrt:setvbuf.obj
 0001:00024be4       ??R<lambda_ca71763b3c0644891230e4f79ea54fa6>@@QEBAHXZ 0000000180025be4 f   libucrt:setvbuf.obj
 0001:00024d70       ??$?RV<lambda_450d765d439847d4c735a33c368b5fc0>@@AEAV<lambda_44731a7d0e6d81c3e6aa82d741081786>@@V<lambda_601a2a7da3b7a96e9554ac7215c4b07c>@@@?$__crt_seh_guarded_call@P6AXH@Z@@QEAAP6AXH@Z$$QEAV<lambda_450d765d439847d4c735a33c368b5fc0>@@AEAV<lambda_44731a7d0e6d81c3e6aa82d741081786>@@$$QEAV<lambda_601a2a7da3b7a96e9554ac7215c4b07c>@@@Z 0000000180025d70 f   libucrt:signal.obj
 0001:0002507c       ?internal_isupper_l@@YA_NHQEAU__crt_locale_pointers@@@Z 000000018002607c f   libucrt:tolower_toupper.obj
 0001:00025294       ??$?RV<lambda_410d79af7f07d98d83a3f525b3859a53>@@AEAV<lambda_3e16ef9562a7dcce91392c22ab16ea36>@@V<lambda_38119f0e861e05405d8a144b9b982f0a>@@@?$__crt_seh_guarded_call@X@@QEAAX$$QEAV<lambda_410d79af7f07d98d83a3f525b3859a53>@@AEAV<lambda_3e16ef9562a7dcce91392c22ab16ea36>@@$$QEAV<lambda_38119f0e861e05405d8a144b9b982f0a>@@@Z 0000000180026294 f   libucrt:wsetlocale.obj
 0001:000254f4       ?<lambda_invoker_cdecl>@<lambda_c2303d2482d7c3675ea2e24c4cfb6115>@@CAHPEBX0@Z 00000001800264f4 f   libucrt:argv_wildcards.obj
 0001:00025508       ??$common_expand_argv_wildcards@D@@YAHQEAPEADQEAPEAPEAD@Z 0000000180026508 f   libucrt:argv_wildcards.obj
 0001:00025714       ??$copy_and_add_argument_to_buffer@D@@YAHQEBD0_KAEAV?$argument_list@D@?A0x5f5c8891@@@Z 0000000180026714 f   libucrt:argv_wildcards.obj
 0001:000258ac       ??$expand_argument_wildcards@D@@YAHQEAD0AEAV?$argument_list@D@?A0x5f5c8891@@@Z 00000001800268ac f   libucrt:argv_wildcards.obj
 0001:00025a60       ??$?RV<lambda_efdfa57d1f175319df784efa44bb7b81>@@AEAV<lambda_5f0a4c1567f8adc6734073e5d1e1b35c>@@V<lambda_2e8a7d3640ea6ccb4c2413664c2db6fd>@@@?$__crt_seh_guarded_call@X@@QEAAX$$QEAV<lambda_efdfa57d1f175319df784efa44bb7b81>@@AEAV<lambda_5f0a4c1567f8adc6734073e5d1e1b35c>@@$$QEAV<lambda_2e8a7d3640ea6ccb4c2413664c2db6fd>@@@Z 0000000180026a60 f   libucrt:mbctype.obj
 0001:00025c34       ?getSystemCP@@YAHH@Z       0000000180026c34 f   libucrt:mbctype.obj
 0001:00025cb4       ?setSBCS@@YAXPEAU__crt_multibyte_data@@@Z 0000000180026cb4 f   libucrt:mbctype.obj
 0001:00025d44       ?setSBUpLow@@YAXPEAU__crt_multibyte_data@@@Z 0000000180026d44 f   libucrt:mbctype.obj
 0001:00025f24       ?setmbcp_internal@@YAHH_NQEAU__acrt_ptd@@QEAPEAU__crt_multibyte_data@@@Z 0000000180026f24 f   libucrt:mbctype.obj
 0001:000260e8       ?update_thread_multibyte_data_internal@@YAPEAU__crt_multibyte_data@@QEAU__acrt_ptd@@QEAPEAU1@@Z 00000001800270e8 f   libucrt:mbctype.obj
 0001:000264dc       ?x_ismbbtype_l@@YAHPEAU__crt_locale_pointers@@IHH@Z 00000001800274dc f   libucrt:ismbbyte.obj
 0001:00026734       ?try_get_function@@YAPEAXW4function_id@?A0x391cf84c@@QEBDQEBW4module_id@2@2@Z 0000000180027734 f   libucrt:winapi_thunks.obj
 0001:00026f9c       ?initialize_inherited_file_handles_nolock@@YAXXZ 0000000180027f9c f   libucrt:ioinit.obj
 0001:00027088       ?initialize_stdio_handles_nolock@@YAXXZ 0000000180028088 f   libucrt:ioinit.obj
 0001:00027978       ?fp_format_a@@YAHQEBNPEAD_KQEAD2H_NIQEAU__crt_locale_pointers@@@Z 0000000180028978 f   libucrt:cvt.obj
 0001:00027ccc       ?fp_format_e@@YAHQEBNQEAD_K12H_NIQEAU__crt_locale_pointers@@@Z 0000000180028ccc f   libucrt:cvt.obj
 0001:00027da8       ?fp_format_e_internal@@YAHQEAD_KH_NIQEAU_strflt@@2QEAU__crt_locale_pointers@@@Z 0000000180028da8 f   libucrt:cvt.obj
 0001:00027f7c       ?fp_format_f_internal@@YAHQEAD_KHQEAU_strflt@@_NQEAU__crt_locale_pointers@@@Z 0000000180028f7c f   libucrt:cvt.obj
 0001:000280c4       ?fp_format_g@@YAHQEBNQEAD_K12H_NIQEAU__crt_locale_pointers@@@Z 00000001800290c4 f   libucrt:cvt.obj
 0001:000281f8       ?fp_format_nan_or_infinity@@YAHW4__acrt_fp_class@@_NPEAD_K1@Z 00000001800291f8 f   libucrt:cvt.obj
 0001:00028e3c       ??$?RV<lambda_a37b2b86f63e897a80ea819b0eb08c01>@@AEAV<lambda_38ce7e780aa69e748d6df282ebc68efe>@@V<lambda_99fb1378e971ab6e7edea83e3a7a83a2>@@@?$__crt_seh_guarded_call@H@@QEAAH$$QEAV<lambda_a37b2b86f63e897a80ea819b0eb08c01>@@AEAV<lambda_38ce7e780aa69e748d6df282ebc68efe>@@$$QEAV<lambda_99fb1378e971ab6e7edea83e3a7a83a2>@@@Z 0000000180029e3c f   libucrt:commit.obj
 0001:00028f5c       ?write_double_translated_ansi_nolock@@YA?AUwrite_result@?A0x17268360@@HQEBDI@Z 0000000180029f5c f   libucrt:write.obj
 0001:00029180       ?write_text_ansi_nolock@@YA?AUwrite_result@?A0x17268360@@HQEBDI@Z 000000018002a180 f   libucrt:write.obj
 0001:00029284       ?write_text_utf16le_nolock@@YA?AUwrite_result@?A0x17268360@@HQEBDI@Z 000000018002a284 f   libucrt:write.obj
 0001:000293a0       ?write_text_utf8_nolock@@YA?AUwrite_result@?A0x17268360@@HQEBDI@Z 000000018002a3a0 f   libucrt:write.obj
 0001:00029984       ?__acrt_LCMapStringA_stat@@YAHPEAU__crt_locale_pointers@@PEB_WKPEBDHPEADHHH@Z 000000018002a984 f   libucrt:lcmapstringa.obj
 0001:00029eac       ?free_crt_array_internal@@YAXQEAPEBX_K@Z 000000018002aeac f   libucrt:inittime.obj
 0001:0002a624       fallbackMethod             000000018002b624 f   libucrt:strpbrk.obj
 0001:0002a9f4       $LN78                      000000018002b9f4     libucrt:strpbrk.obj
 0001:0002aa30       $LN77                      000000018002ba30     libucrt:strpbrk.obj
 0001:0002aa70       $LN76                      000000018002ba70     libucrt:strpbrk.obj
 0001:0002ab48       ?initialize_multibyte@@YAHXZ 000000018002bb48 f   libucrt:multibyte_initializer.obj
 0001:0002ac20       ?GetTableIndexFromLocaleName@@YAHPEB_W@Z 000000018002bc20 f   libucrt:lcidtoname_downlevel.obj
 0001:0002c948       memcpy_s                   000000018002d948 f   libucrt:cfout.obj
 0001:0002c9d0       ??$write_buffer_nolock@D@@YA_NDV__crt_stdio_stream@@@Z 000000018002d9d0 f   libucrt:_flsbuf.obj
 0001:0002cab0       ??$write_buffer_nolock@_W@@YA_N_WV__crt_stdio_stream@@@Z 000000018002dab0 f   libucrt:_flsbuf.obj
 0001:0002ce58       ??$common_lseek@_J@@YA_JH_JH@Z 000000018002de58 f   libucrt:lseek.obj
 0001:0002cf48       ??$common_lseek_nolock@_J@@YA_JH_JH@Z 000000018002df48 f   libucrt:lseek.obj
 0001:0002d1d0       $$000000                   000000018002e1d0     libucrt:log10.obj
 0001:0002d7e0       ??$?RV<lambda_751a882b2c74d4b022dec766aa51a29a>@@AEAV<lambda_628dfdc04ba53c8bfc02c9951375f3f5>@@V<lambda_f6c7be5f7998530c34de24c7437d6b54>@@@?$__crt_seh_guarded_call@H@@QEAAH$$QEAV<lambda_751a882b2c74d4b022dec766aa51a29a>@@AEAV<lambda_628dfdc04ba53c8bfc02c9951375f3f5>@@$$QEAV<lambda_f6c7be5f7998530c34de24c7437d6b54>@@@Z 000000018002e7e0 f   libucrt:close.obj
 0001:0002de94       _call_matherr              000000018002ee94 f   libucrt:libm_error.obj
 0001:0002defc       _exception_enabled         000000018002eefc f   libucrt:libm_error.obj
 0001:0002e190       _log_special_common        000000018002f190 f   libucrt:log_special.obj
 0001:0002e230       $$000000                   000000018002f230     libucrt:fpsr.obj
 0001:0002eed0       $$000000                   000000018002fed0     LIBCMT:_chkstk_.obj
 0001:0002ef40       $$000000                   000000018002ff40     libvcruntime:memcmp.obj
 0001:0002f1e0       $$000000                   00000001800301e0     LIBCMT:_guard_dispatch_.obj
 0001:0002f200       $$000000                   0000000180030200     LIBCMT:_rfgfailure_.obj
 0001:0002f2c0       ?dtor$0@?0??HandleOKCallback@AsyncEcdsaVerify@@UEAAXXZ@4HA 00000001800302c0 f   async_ec.obj
 0001:0002f2c0       ?dtor$0@?0??HandleOKCallback@AsyncEcImportJwk@@UEAAXXZ@4HA 00000001800302c0 f   async_ec.obj
 0001:0002f2c0       ?dtor$0@?0??HandleOKCallback@AsyncEcGenerateKey@@UEAAXXZ@4HA 00000001800302c0 f   async_ec.obj
 0001:0002f2c0       ?dtor$0@?0??HandleOKCallback@AsyncHmacVerify@@UEAAXXZ@4HA 00000001800302c0 f   async_hmac.obj
 0001:0002f2c0       ?dtor$0@?0??InitModule@@YAXV?$Local@VObject@v8@@@v8@@@Z@4HA 00000001800302c0 f   main.obj
 0001:0002f2c0       ?dtor$0@?0??HandleOKCallback@AsyncAesGenerateKey@@UEAAXXZ@4HA 00000001800302c0 f   async_aes.obj
 0001:0002f2c0       ?dtor$0@?0??HandleOKCallback@AsyncHmacImport@@UEAAXXZ@4HA 00000001800302c0 f   async_hmac.obj
 0001:0002f2c0       ?dtor$0@?0??HandleOKCallback@AsyncAesImport@@UEAAXXZ@4HA 00000001800302c0 f   async_aes.obj
 0001:0002f2c0       ?dtor$0@?0??ThrowError@Nan@@YAXPEBD@Z@4HA 00000001800302c0 f   w_key.obj
 0001:0002f2c0       ?dtor$0@?0??HandleOKCallback@AsyncImportSpki@@UEAAXXZ@4HA 00000001800302c0 f   async_rsa.obj
 0001:0002f2c0       ?dtor$0@?0??HandleOKCallback@AsyncImportPkcs8@@UEAAXXZ@4HA 00000001800302c0 f   async_rsa.obj
 0001:0002f2c0       ?dtor$0@?0??HandleOKCallback@AsyncHmacGenerateKey@@UEAAXXZ@4HA 00000001800302c0 f   async_hmac.obj
 0001:0002f2c0       ?dtor$0@?0??HandleOKCallback@AsyncVerifyRsaPSS@@UEAAXXZ@4HA 00000001800302c0 f   async_rsa.obj
 0001:0002f2c0       ?dtor$0@?0??HandleOKCallback@AsyncImportJwkRsa@@UEAAXXZ@4HA 00000001800302c0 f   async_rsa.obj
 0001:0002f2c0       ?dtor$0@?0??HandleOKCallback@AsyncVerifyRsa@@UEAAXXZ@4HA 00000001800302c0 f   async_rsa.obj
 0001:0002f2c0       ?dtor$0@?0??HandleOKCallback@AsyncRsaGenerateKey@@UEAAXXZ@4HA 00000001800302c0 f   async_rsa.obj
 0001:0002f2c0       ?dtor$0@?0??HandleErrorCallback@AsyncWorker@Nan@@MEAAXXZ@4HA 00000001800302c0 f   w_key.obj
 0001:0002f2c0       ?dtor$0@?0??SetPrototypeMethod@Nan@@YAXV?$Local@VFunctionTemplate@v8@@@v8@@PEBDP6AXAEBV?$FunctionCallbackInfo@VValue@v8@@@1@@Z@Z@4HA 00000001800302c0 f   w_key.obj
 0001:0002f2d0       ?dtor$0@?0??KEY_export@@YA?AV?$shared_ptr@V?$basic_string@DU?$char_traits@D@std@@V?$allocator@D@2@@std@@@std@@PEAUevp_pkey_st@@P6AHPEAUbio_st@@0@Z@Z@4HA 00000001800302d0 f   key_exp.obj
 0001:0002f2dc       ?dtor$1@?0??KEY_export@@YA?AV?$shared_ptr@V?$basic_string@DU?$char_traits@D@std@@V?$allocator@D@2@@std@@@std@@PEAUevp_pkey_st@@P6AHPEAUbio_st@@0@Z@Z@4HA 00000001800302dc f   key_exp.obj
 0001:0002f2e8       ?dtor$2@?0??KEY_export@@YA?AV?$shared_ptr@V?$basic_string@DU?$char_traits@D@std@@V?$allocator@D@2@@std@@@std@@PEAUevp_pkey_st@@P6AHPEAUbio_st@@0@Z@Z@4HA 00000001800302e8 f   key_exp.obj
 0001:0002f310       ?dtor$0@?0??KEY_import@@YA?AV?$shared_ptr@V?$ScopedSSL@Uevp_pkey_st@@$1?ScopedEVP_PKEY_free@@YAXPEAX@Z@@@std@@PEAUbio_st@@P6APEAUevp_pkey_st@@0PEAPEAU4@@Z@Z@4HA 0000000180030310 f   key_exp.obj
 0001:0002f31c       ?dtor$1@?0??KEY_import@@YA?AV?$shared_ptr@V?$ScopedSSL@Uevp_pkey_st@@$1?ScopedEVP_PKEY_free@@YAXPEAX@Z@@@std@@PEAUbio_st@@P6APEAUevp_pkey_st@@0PEAPEAU4@@Z@Z@4HA 000000018003031c f   key_exp.obj
 0001:0002f328       ?dtor$2@?0??KEY_import@@YA?AV?$shared_ptr@V?$ScopedSSL@Uevp_pkey_st@@$1?ScopedEVP_PKEY_free@@YAXPEAX@Z@@@std@@PEAUbio_st@@P6APEAUevp_pkey_st@@0PEAPEAU4@@Z@Z@4HA 0000000180030328 f   key_exp.obj
 0001:0002f340       ?dtor$0@?0??OPENSSL_get_errors@@YA?AV?$basic_string@DU?$char_traits@D@std@@V?$allocator@D@2@@std@@XZ@4HA 0000000180030340 f   excep.obj
 0001:0002f340       ?dtor$0@?0??To@JwkRsa@@QEAA?AV?$shared_ptr@V?$ScopedSSL@Uevp_pkey_st@@$1?ScopedEVP_PKEY_free@@YAXPEAX@Z@@@std@@AEAH@Z@4HA 0000000180030340 f   rsa_jwk.obj
 0001:0002f340       ?dtor$0@?0??PublicExponent@WKey@@SAXAEBV?$FunctionCallbackInfo@VValue@v8@@@Nan@@@Z@4HA 0000000180030340 f   w_key.obj
 0001:0002f340       ?dtor$0@?0??ModulusLength@WKey@@SAXAEBV?$FunctionCallbackInfo@VValue@v8@@@Nan@@@Z@4HA 0000000180030340 f   w_key.obj
 0001:0002f350       ?dtor$0@?0??digest@@YA?AV?$shared_ptr@V?$basic_string@DU?$char_traits@D@std@@V?$allocator@D@2@@std@@@std@@PEBUenv_md_st@@V12@@Z@4HA 0000000180030350 f   digest.obj
 0001:0002f35c       ?dtor$1@?0??digest@@YA?AV?$shared_ptr@V?$basic_string@DU?$char_traits@D@std@@V?$allocator@D@2@@std@@@std@@PEBUenv_md_st@@V12@@Z@4HA 000000018003035c f   digest.obj
 0001:0002f382       ?dtor$2@?0??digest@@YA?AV?$shared_ptr@V?$basic_string@DU?$char_traits@D@std@@V?$allocator@D@2@@std@@@std@@PEBUenv_md_st@@V12@@Z@4HA 0000000180030382 f   digest.obj
 0001:0002f390       ?dtor$0@?0??RSA_generate@@YA?AV?$shared_ptr@V?$ScopedSSL@Uevp_pkey_st@@$1?ScopedEVP_PKEY_free@@YAXPEAX@Z@@@std@@HH@Z@4HA 0000000180030390 f   rsa_gen.obj
 0001:0002f39c       ?dtor$1@?0??RSA_generate@@YA?AV?$shared_ptr@V?$ScopedSSL@Uevp_pkey_st@@$1?ScopedEVP_PKEY_free@@YAXPEAX@Z@@@std@@HH@Z@4HA 000000018003039c f   rsa_gen.obj
 0001:0002f3a8       ?dtor$2@?0??RSA_generate@@YA?AV?$shared_ptr@V?$ScopedSSL@Uevp_pkey_st@@$1?ScopedEVP_PKEY_free@@YAXPEAX@Z@@@std@@HH@Z@4HA 00000001800303a8 f   rsa_gen.obj
 0001:0002f3b4       ?dtor$3@?0??RSA_generate@@YA?AV?$shared_ptr@V?$ScopedSSL@Uevp_pkey_st@@$1?ScopedEVP_PKEY_free@@YAXPEAX@Z@@@std@@HH@Z@4HA 00000001800303b4 f   rsa_gen.obj
 0001:0002f3c0       ?dtor$4@?0??RSA_generate@@YA?AV?$shared_ptr@V?$ScopedSSL@Uevp_pkey_st@@$1?ScopedEVP_PKEY_free@@YAXPEAX@Z@@@std@@HH@Z@4HA 00000001800303c0 f   rsa_gen.obj
 0001:0002f3d0       ?dtor$0@?0??From@JwkRsa@@SA?AV?$shared_ptr@VJwkRsa@@@std@@V?$shared_ptr@V?$ScopedSSL@Uevp_pkey_st@@$1?ScopedEVP_PKEY_free@@YAXPEAX@Z@@@3@AEAH@Z@4HA 00000001800303d0 f   rsa_jwk.obj
 0001:0002f3dc       ?dtor$2@?0??From@JwkRsa@@SA?AV?$shared_ptr@VJwkRsa@@@std@@V?$shared_ptr@V?$ScopedSSL@Uevp_pkey_st@@$1?ScopedEVP_PKEY_free@@YAXPEAX@Z@@@3@AEAH@Z@4HA 00000001800303dc f   rsa_jwk.obj
 0001:0002f410       ?dtor$0@?0??RSA_PSS_sign@@YA?AV?$shared_ptr@V?$basic_string@DU?$char_traits@D@std@@V?$allocator@D@2@@std@@@std@@V?$shared_ptr@V?$ScopedSSL@Uevp_pkey_st@@$1?ScopedEVP_PKEY_free@@YAXPEAX@Z@@@2@PEBUenv_md_st@@HV12@@Z@4HA 0000000180030410 f   rsa_pss.obj
 0001:0002f410       ?dtor$0@?0??RSA_PKCS1_sign@@YA?AV?$shared_ptr@V?$basic_string@DU?$char_traits@D@std@@V?$allocator@D@2@@std@@@std@@V?$shared_ptr@V?$ScopedSSL@Uevp_pkey_st@@$1?ScopedEVP_PKEY_free@@YAXPEAX@Z@@@2@PEBUenv_md_st@@V12@@Z@4HA 0000000180030410 f   rsa_pkcs1.obj
 0001:0002f41c       ?dtor$1@?0??RSA_PSS_sign@@YA?AV?$shared_ptr@V?$basic_string@DU?$char_traits@D@std@@V?$allocator@D@2@@std@@@std@@V?$shared_ptr@V?$ScopedSSL@Uevp_pkey_st@@$1?ScopedEVP_PKEY_free@@YAXPEAX@Z@@@2@PEBUenv_md_st@@HV12@@Z@4HA 000000018003041c f   rsa_pss.obj
 0001:0002f41c       ?dtor$1@?0??RSA_PKCS1_sign@@YA?AV?$shared_ptr@V?$basic_string@DU?$char_traits@D@std@@V?$allocator@D@2@@std@@@std@@V?$shared_ptr@V?$ScopedSSL@Uevp_pkey_st@@$1?ScopedEVP_PKEY_free@@YAXPEAX@Z@@@2@PEBUenv_md_st@@V12@@Z@4HA 000000018003041c f   rsa_pkcs1.obj
 0001:0002f428       ?dtor$2@?0??RSA_PSS_sign@@YA?AV?$shared_ptr@V?$basic_string@DU?$char_traits@D@std@@V?$allocator@D@2@@std@@@std@@V?$shared_ptr@V?$ScopedSSL@Uevp_pkey_st@@$1?ScopedEVP_PKEY_free@@YAXPEAX@Z@@@2@PEBUenv_md_st@@HV12@@Z@4HA 0000000180030428 f   rsa_pss.obj
 0001:0002f428       ?dtor$2@?0??RSA_PKCS1_sign@@YA?AV?$shared_ptr@V?$basic_string@DU?$char_traits@D@std@@V?$allocator@D@2@@std@@@std@@V?$shared_ptr@V?$ScopedSSL@Uevp_pkey_st@@$1?ScopedEVP_PKEY_free@@YAXPEAX@Z@@@2@PEBUenv_md_st@@V12@@Z@4HA 0000000180030428 f   rsa_pkcs1.obj
 0001:0002f434       ?dtor$3@?0??RSA_PKCS1_sign@@YA?AV?$shared_ptr@V?$basic_string@DU?$char_traits@D@std@@V?$allocator@D@2@@std@@@std@@V?$shared_ptr@V?$ScopedSSL@Uevp_pkey_st@@$1?ScopedEVP_PKEY_free@@YAXPEAX@Z@@@2@PEBUenv_md_st@@V12@@Z@4HA 0000000180030434 f   rsa_pkcs1.obj
 0001:0002f434       ?dtor$3@?0??RSA_PSS_sign@@YA?AV?$shared_ptr@V?$basic_string@DU?$char_traits@D@std@@V?$allocator@D@2@@std@@@std@@V?$shared_ptr@V?$ScopedSSL@Uevp_pkey_st@@$1?ScopedEVP_PKEY_free@@YAXPEAX@Z@@@2@PEBUenv_md_st@@HV12@@Z@4HA 0000000180030434 f   rsa_pss.obj
 0001:0002f440       ?dtor$4@?0??RSA_PSS_sign@@YA?AV?$shared_ptr@V?$basic_string@DU?$char_traits@D@std@@V?$allocator@D@2@@std@@@std@@V?$shared_ptr@V?$ScopedSSL@Uevp_pkey_st@@$1?ScopedEVP_PKEY_free@@YAXPEAX@Z@@@2@PEBUenv_md_st@@HV12@@Z@4HA 0000000180030440 f   rsa_pss.obj
 0001:0002f440       ?dtor$4@?0??RSA_PKCS1_sign@@YA?AV?$shared_ptr@V?$basic_string@DU?$char_traits@D@std@@V?$allocator@D@2@@std@@@std@@V?$shared_ptr@V?$ScopedSSL@Uevp_pkey_st@@$1?ScopedEVP_PKEY_free@@YAXPEAX@Z@@@2@PEBUenv_md_st@@V12@@Z@4HA 0000000180030440 f   rsa_pkcs1.obj
 0001:0002f44c       ?dtor$5@?0??RSA_PKCS1_sign@@YA?AV?$shared_ptr@V?$basic_string@DU?$char_traits@D@std@@V?$allocator@D@2@@std@@@std@@V?$shared_ptr@V?$ScopedSSL@Uevp_pkey_st@@$1?ScopedEVP_PKEY_free@@YAXPEAX@Z@@@2@PEBUenv_md_st@@V12@@Z@4HA 000000018003044c f   rsa_pkcs1.obj
 0001:0002f44c       ?dtor$5@?0??RSA_PSS_sign@@YA?AV?$shared_ptr@V?$basic_string@DU?$char_traits@D@std@@V?$allocator@D@2@@std@@@std@@V?$shared_ptr@V?$ScopedSSL@Uevp_pkey_st@@$1?ScopedEVP_PKEY_free@@YAXPEAX@Z@@@2@PEBUenv_md_st@@HV12@@Z@4HA 000000018003044c f   rsa_pss.obj
 0001:0002f458       ?dtor$6@?0??RSA_PKCS1_sign@@YA?AV?$shared_ptr@V?$basic_string@DU?$char_traits@D@std@@V?$allocator@D@2@@std@@@std@@V?$shared_ptr@V?$ScopedSSL@Uevp_pkey_st@@$1?ScopedEVP_PKEY_free@@YAXPEAX@Z@@@2@PEBUenv_md_st@@V12@@Z@4HA 0000000180030458 f   rsa_pkcs1.obj
 0001:0002f458       ?dtor$6@?0??RSA_PSS_sign@@YA?AV?$shared_ptr@V?$basic_string@DU?$char_traits@D@std@@V?$allocator@D@2@@std@@@std@@V?$shared_ptr@V?$ScopedSSL@Uevp_pkey_st@@$1?ScopedEVP_PKEY_free@@YAXPEAX@Z@@@2@PEBUenv_md_st@@HV12@@Z@4HA 0000000180030458 f   rsa_pss.obj
 0001:0002f47e       ?dtor$7@?0??RSA_PSS_sign@@YA?AV?$shared_ptr@V?$basic_string@DU?$char_traits@D@std@@V?$allocator@D@2@@std@@@std@@V?$shared_ptr@V?$ScopedSSL@Uevp_pkey_st@@$1?ScopedEVP_PKEY_free@@YAXPEAX@Z@@@2@PEBUenv_md_st@@HV12@@Z@4HA 000000018003047e f   rsa_pss.obj
 0001:0002f47e       ?dtor$7@?0??RSA_PKCS1_sign@@YA?AV?$shared_ptr@V?$basic_string@DU?$char_traits@D@std@@V?$allocator@D@2@@std@@@std@@V?$shared_ptr@V?$ScopedSSL@Uevp_pkey_st@@$1?ScopedEVP_PKEY_free@@YAXPEAX@Z@@@2@PEBUenv_md_st@@V12@@Z@4HA 000000018003047e f   rsa_pkcs1.obj
 0001:0002f490       ?dtor$0@?0??RSA_PSS_verify@@YA_NV?$shared_ptr@V?$ScopedSSL@Uevp_pkey_st@@$1?ScopedEVP_PKEY_free@@YAXPEAX@Z@@@std@@PEBUenv_md_st@@HV?$shared_ptr@V?$basic_string@DU?$char_traits@D@std@@V?$allocator@D@2@@std@@@2@2@Z@4HA 0000000180030490 f   rsa_pss.obj
 0001:0002f490       ?dtor$0@?0??RSA_PKCS1_verify@@YA_NV?$shared_ptr@V?$ScopedSSL@Uevp_pkey_st@@$1?ScopedEVP_PKEY_free@@YAXPEAX@Z@@@std@@PEBUenv_md_st@@V?$shared_ptr@V?$basic_string@DU?$char_traits@D@std@@V?$allocator@D@2@@std@@@2@2@Z@4HA 0000000180030490 f   rsa_pkcs1.obj
 0001:0002f49c       ?dtor$1@?0??RSA_PSS_verify@@YA_NV?$shared_ptr@V?$ScopedSSL@Uevp_pkey_st@@$1?ScopedEVP_PKEY_free@@YAXPEAX@Z@@@std@@PEBUenv_md_st@@HV?$shared_ptr@V?$basic_string@DU?$char_traits@D@std@@V?$allocator@D@2@@std@@@2@2@Z@4HA 000000018003049c f   rsa_pss.obj
 0001:0002f49c       ?dtor$1@?0??RSA_PKCS1_verify@@YA_NV?$shared_ptr@V?$ScopedSSL@Uevp_pkey_st@@$1?ScopedEVP_PKEY_free@@YAXPEAX@Z@@@std@@PEBUenv_md_st@@V?$shared_ptr@V?$basic_string@DU?$char_traits@D@std@@V?$allocator@D@2@@std@@@2@2@Z@4HA 000000018003049c f   rsa_pkcs1.obj
 0001:0002f4a8       ?dtor$2@?0??RSA_PSS_verify@@YA_NV?$shared_ptr@V?$ScopedSSL@Uevp_pkey_st@@$1?ScopedEVP_PKEY_free@@YAXPEAX@Z@@@std@@PEBUenv_md_st@@HV?$shared_ptr@V?$basic_string@DU?$char_traits@D@std@@V?$allocator@D@2@@std@@@2@2@Z@4HA 00000001800304a8 f   rsa_pss.obj
 0001:0002f4a8       ?dtor$2@?0??RSA_PKCS1_verify@@YA_NV?$shared_ptr@V?$ScopedSSL@Uevp_pkey_st@@$1?ScopedEVP_PKEY_free@@YAXPEAX@Z@@@std@@PEBUenv_md_st@@V?$shared_ptr@V?$basic_string@DU?$char_traits@D@std@@V?$allocator@D@2@@std@@@2@2@Z@4HA 00000001800304a8 f   rsa_pkcs1.obj
 0001:0002f4b4       ?dtor$3@?0??RSA_PKCS1_verify@@YA_NV?$shared_ptr@V?$ScopedSSL@Uevp_pkey_st@@$1?ScopedEVP_PKEY_free@@YAXPEAX@Z@@@std@@PEBUenv_md_st@@V?$shared_ptr@V?$basic_string@DU?$char_traits@D@std@@V?$allocator@D@2@@std@@@2@2@Z@4HA 00000001800304b4 f   rsa_pkcs1.obj
 0001:0002f4b4       ?dtor$3@?0??RSA_PSS_verify@@YA_NV?$shared_ptr@V?$ScopedSSL@Uevp_pkey_st@@$1?ScopedEVP_PKEY_free@@YAXPEAX@Z@@@std@@PEBUenv_md_st@@HV?$shared_ptr@V?$basic_string@DU?$char_traits@D@std@@V?$allocator@D@2@@std@@@2@2@Z@4HA 00000001800304b4 f   rsa_pss.obj
 0001:0002f4c0       ?dtor$4@?0??RSA_PKCS1_verify@@YA_NV?$shared_ptr@V?$ScopedSSL@Uevp_pkey_st@@$1?ScopedEVP_PKEY_free@@YAXPEAX@Z@@@std@@PEBUenv_md_st@@V?$shared_ptr@V?$basic_string@DU?$char_traits@D@std@@V?$allocator@D@2@@std@@@2@2@Z@4HA 00000001800304c0 f   rsa_pkcs1.obj
 0001:0002f4c0       ?dtor$4@?0??RSA_PSS_verify@@YA_NV?$shared_ptr@V?$ScopedSSL@Uevp_pkey_st@@$1?ScopedEVP_PKEY_free@@YAXPEAX@Z@@@std@@PEBUenv_md_st@@HV?$shared_ptr@V?$basic_string@DU?$char_traits@D@std@@V?$allocator@D@2@@std@@@2@2@Z@4HA 00000001800304c0 f   rsa_pss.obj
 0001:0002f4cc       ?dtor$5@?0??RSA_PSS_verify@@YA_NV?$shared_ptr@V?$ScopedSSL@Uevp_pkey_st@@$1?ScopedEVP_PKEY_free@@YAXPEAX@Z@@@std@@PEBUenv_md_st@@HV?$shared_ptr@V?$basic_string@DU?$char_traits@D@std@@V?$allocator@D@2@@std@@@2@2@Z@4HA 00000001800304cc f   rsa_pss.obj
 0001:0002f4cc       ?dtor$5@?0??RSA_PKCS1_verify@@YA_NV?$shared_ptr@V?$ScopedSSL@Uevp_pkey_st@@$1?ScopedEVP_PKEY_free@@YAXPEAX@Z@@@std@@PEBUenv_md_st@@V?$shared_ptr@V?$basic_string@DU?$char_traits@D@std@@V?$allocator@D@2@@std@@@2@2@Z@4HA 00000001800304cc f   rsa_pkcs1.obj
 0001:0002f4e0       ?dtor$0@?0??RSA_OAEP_enc_dec@@YA?AV?$shared_ptr@V?$basic_string@DU?$char_traits@D@std@@V?$allocator@D@2@@std@@@std@@V?$shared_ptr@V?$ScopedSSL@Uevp_pkey_st@@$1?ScopedEVP_PKEY_free@@YAXPEAX@Z@@@2@PEBUenv_md_st@@V12@2_N@Z@4HA 00000001800304e0 f   rsa_oaep.obj
 0001:0002f4ec       ?dtor$1@?0??RSA_OAEP_enc_dec@@YA?AV?$shared_ptr@V?$basic_string@DU?$char_traits@D@std@@V?$allocator@D@2@@std@@@std@@V?$shared_ptr@V?$ScopedSSL@Uevp_pkey_st@@$1?ScopedEVP_PKEY_free@@YAXPEAX@Z@@@2@PEBUenv_md_st@@V12@2_N@Z@4HA 00000001800304ec f   rsa_oaep.obj
 0001:0002f4f8       ?dtor$2@?0??RSA_OAEP_enc_dec@@YA?AV?$shared_ptr@V?$basic_string@DU?$char_traits@D@std@@V?$allocator@D@2@@std@@@std@@V?$shared_ptr@V?$ScopedSSL@Uevp_pkey_st@@$1?ScopedEVP_PKEY_free@@YAXPEAX@Z@@@2@PEBUenv_md_st@@V12@2_N@Z@4HA 00000001800304f8 f   rsa_oaep.obj
 0001:0002f504       ?dtor$3@?0??RSA_OAEP_enc_dec@@YA?AV?$shared_ptr@V?$basic_string@DU?$char_traits@D@std@@V?$allocator@D@2@@std@@@std@@V?$shared_ptr@V?$ScopedSSL@Uevp_pkey_st@@$1?ScopedEVP_PKEY_free@@YAXPEAX@Z@@@2@PEBUenv_md_st@@V12@2_N@Z@4HA 0000000180030504 f   rsa_oaep.obj
 0001:0002f510       ?dtor$4@?0??RSA_OAEP_enc_dec@@YA?AV?$shared_ptr@V?$basic_string@DU?$char_traits@D@std@@V?$allocator@D@2@@std@@@std@@V?$shared_ptr@V?$ScopedSSL@Uevp_pkey_st@@$1?ScopedEVP_PKEY_free@@YAXPEAX@Z@@@2@PEBUenv_md_st@@V12@2_N@Z@4HA 0000000180030510 f   rsa_oaep.obj
 0001:0002f51c       ?dtor$5@?0??RSA_OAEP_enc_dec@@YA?AV?$shared_ptr@V?$basic_string@DU?$char_traits@D@std@@V?$allocator@D@2@@std@@@std@@V?$shared_ptr@V?$ScopedSSL@Uevp_pkey_st@@$1?ScopedEVP_PKEY_free@@YAXPEAX@Z@@@2@PEBUenv_md_st@@V12@2_N@Z@4HA 000000018003051c f   rsa_oaep.obj
 0001:0002f528       ?dtor$6@?0??RSA_OAEP_enc_dec@@YA?AV?$shared_ptr@V?$basic_string@DU?$char_traits@D@std@@V?$allocator@D@2@@std@@@std@@V?$shared_ptr@V?$ScopedSSL@Uevp_pkey_st@@$1?ScopedEVP_PKEY_free@@YAXPEAX@Z@@@2@PEBUenv_md_st@@V12@2_N@Z@4HA 0000000180030528 f   rsa_oaep.obj
 0001:0002f534       ?dtor$7@?0??RSA_OAEP_enc_dec@@YA?AV?$shared_ptr@V?$basic_string@DU?$char_traits@D@std@@V?$allocator@D@2@@std@@@std@@V?$shared_ptr@V?$ScopedSSL@Uevp_pkey_st@@$1?ScopedEVP_PKEY_free@@YAXPEAX@Z@@@2@PEBUenv_md_st@@V12@2_N@Z@4HA 0000000180030534 f   rsa_oaep.obj
 0001:0002f540       ?dtor$8@?0??RSA_OAEP_enc_dec@@YA?AV?$shared_ptr@V?$basic_string@DU?$char_traits@D@std@@V?$allocator@D@2@@std@@@std@@V?$shared_ptr@V?$ScopedSSL@Uevp_pkey_st@@$1?ScopedEVP_PKEY_free@@YAXPEAX@Z@@@2@PEBUenv_md_st@@V12@2_N@Z@4HA 0000000180030540 f   rsa_oaep.obj
 0001:0002f54c       ?dtor$9@?0??RSA_OAEP_enc_dec@@YA?AV?$shared_ptr@V?$basic_string@DU?$char_traits@D@std@@V?$allocator@D@2@@std@@@std@@V?$shared_ptr@V?$ScopedSSL@Uevp_pkey_st@@$1?ScopedEVP_PKEY_free@@YAXPEAX@Z@@@2@PEBUenv_md_st@@V12@2_N@Z@4HA 000000018003054c f   rsa_oaep.obj
 0001:0002f558       ?dtor$10@?0??RSA_OAEP_enc_dec@@YA?AV?$shared_ptr@V?$basic_string@DU?$char_traits@D@std@@V?$allocator@D@2@@std@@@std@@V?$shared_ptr@V?$ScopedSSL@Uevp_pkey_st@@$1?ScopedEVP_PKEY_free@@YAXPEAX@Z@@@2@PEBUenv_md_st@@V12@2_N@Z@4HA 0000000180030558 f   rsa_oaep.obj
 0001:0002f564       ?dtor$11@?0??RSA_OAEP_enc_dec@@YA?AV?$shared_ptr@V?$basic_string@DU?$char_traits@D@std@@V?$allocator@D@2@@std@@@std@@V?$shared_ptr@V?$ScopedSSL@Uevp_pkey_st@@$1?ScopedEVP_PKEY_free@@YAXPEAX@Z@@@2@PEBUenv_md_st@@V12@2_N@Z@4HA 0000000180030564 f   rsa_oaep.obj
 0001:0002f570       ?dtor$12@?0??RSA_OAEP_enc_dec@@YA?AV?$shared_ptr@V?$basic_string@DU?$char_traits@D@std@@V?$allocator@D@2@@std@@@std@@V?$shared_ptr@V?$ScopedSSL@Uevp_pkey_st@@$1?ScopedEVP_PKEY_free@@YAXPEAX@Z@@@2@PEBUenv_md_st@@V12@2_N@Z@4HA 0000000180030570 f   rsa_oaep.obj
 0001:0002f596       ?dtor$13@?0??RSA_OAEP_enc_dec@@YA?AV?$shared_ptr@V?$basic_string@DU?$char_traits@D@std@@V?$allocator@D@2@@std@@@std@@V?$shared_ptr@V?$ScopedSSL@Uevp_pkey_st@@$1?ScopedEVP_PKEY_free@@YAXPEAX@Z@@@2@PEBUenv_md_st@@V12@2_N@Z@4HA 0000000180030596 f   rsa_oaep.obj
 0001:0002f5b0       ?dtor$0@?0??setRsaPssParams@@YAXPEBUenv_md_st@@HPEAUevp_pkey_ctx_st@@@Z@4HA 00000001800305b0 f   rsa_pss.obj
 0001:0002f5c0       ?dtor$0@?0??EC_generate@@YA?AV?$shared_ptr@V?$ScopedSSL@Uevp_pkey_st@@$1?ScopedEVP_PKEY_free@@YAXPEAX@Z@@@std@@AEAH@Z@4HA 00000001800305c0 f   ec_gen.obj
 0001:0002f5e6       ?dtor$1@?0??EC_generate@@YA?AV?$shared_ptr@V?$ScopedSSL@Uevp_pkey_st@@$1?ScopedEVP_PKEY_free@@YAXPEAX@Z@@@std@@AEAH@Z@4HA 00000001800305e6 f   ec_gen.obj
 0001:0002f5f2       ?dtor$2@?0??EC_generate@@YA?AV?$shared_ptr@V?$ScopedSSL@Uevp_pkey_st@@$1?ScopedEVP_PKEY_free@@YAXPEAX@Z@@@std@@AEAH@Z@4HA 00000001800305f2 f   ec_gen.obj
 0001:0002f5fe       ?dtor$3@?0??EC_generate@@YA?AV?$shared_ptr@V?$ScopedSSL@Uevp_pkey_st@@$1?ScopedEVP_PKEY_free@@YAXPEAX@Z@@@std@@AEAH@Z@4HA 00000001800305fe f   ec_gen.obj
 0001:0002f60a       ?dtor$6@?0??EC_generate@@YA?AV?$shared_ptr@V?$ScopedSSL@Uevp_pkey_st@@$1?ScopedEVP_PKEY_free@@YAXPEAX@Z@@@std@@AEAH@Z@4HA 000000018003060a f   ec_gen.obj
 0001:0002f620       ?dtor$0@?0??GetEcGroupOrderSize@@YA_KPEAUevp_pkey_st@@@Z@4HA 0000000180030620 f   ec_dsa.obj
 0001:0002f62c       ?dtor$1@?0??GetEcGroupOrderSize@@YA_KPEAUevp_pkey_st@@@Z@4HA 000000018003062c f   ec_dsa.obj
 0001:0002f640       ?dtor$1@?0??ConvertWebCryptoSignatureToDerSignature@@YA?AV?$shared_ptr@V?$basic_string@DU?$char_traits@D@std@@V?$allocator@D@2@@std@@@std@@PEAUevp_pkey_st@@PEBEAEB_KPEA_N@Z@4HA 0000000180030640 f   ec_dsa.obj
 0001:0002f64c       ?dtor$2@?0??ConvertWebCryptoSignatureToDerSignature@@YA?AV?$shared_ptr@V?$basic_string@DU?$char_traits@D@std@@V?$allocator@D@2@@std@@@std@@PEAUevp_pkey_st@@PEBEAEB_KPEA_N@Z@4HA 000000018003064c f   ec_dsa.obj
 0001:0002f658       ?dtor$3@?0??ConvertWebCryptoSignatureToDerSignature@@YA?AV?$shared_ptr@V?$basic_string@DU?$char_traits@D@std@@V?$allocator@D@2@@std@@@std@@PEAUevp_pkey_st@@PEBEAEB_KPEA_N@Z@4HA 0000000180030658 f   ec_dsa.obj
 0001:0002f664       ?dtor$4@?0??ConvertWebCryptoSignatureToDerSignature@@YA?AV?$shared_ptr@V?$basic_string@DU?$char_traits@D@std@@V?$allocator@D@2@@std@@@std@@PEAUevp_pkey_st@@PEBEAEB_KPEA_N@Z@4HA 0000000180030664 f   ec_dsa.obj
 0001:0002f670       ?dtor$5@?0??ConvertWebCryptoSignatureToDerSignature@@YA?AV?$shared_ptr@V?$basic_string@DU?$char_traits@D@std@@V?$allocator@D@2@@std@@@std@@PEAUevp_pkey_st@@PEBEAEB_KPEA_N@Z@4HA 0000000180030670 f   ec_dsa.obj
 0001:0002f690       ?dtor$0@?0??ConvertDerSignatureToWebCryptoSignature@@YA?AV?$shared_ptr@V?$basic_string@DU?$char_traits@D@std@@V?$allocator@D@2@@std@@@std@@PEAUevp_pkey_st@@PEBEAEA_K@Z@4HA 0000000180030690 f   ec_dsa.obj
 0001:0002f69c       ?dtor$1@?0??ConvertDerSignatureToWebCryptoSignature@@YA?AV?$shared_ptr@V?$basic_string@DU?$char_traits@D@std@@V?$allocator@D@2@@std@@@std@@PEAUevp_pkey_st@@PEBEAEA_K@Z@4HA 000000018003069c f   ec_dsa.obj
 0001:0002f6a8       ?dtor$2@?0??ConvertDerSignatureToWebCryptoSignature@@YA?AV?$shared_ptr@V?$basic_string@DU?$char_traits@D@std@@V?$allocator@D@2@@std@@@std@@PEAUevp_pkey_st@@PEBEAEA_K@Z@4HA 00000001800306a8 f   ec_dsa.obj
 0001:0002f6ce       ?dtor$3@?0??ConvertDerSignatureToWebCryptoSignature@@YA?AV?$shared_ptr@V?$basic_string@DU?$char_traits@D@std@@V?$allocator@D@2@@std@@@std@@PEAUevp_pkey_st@@PEBEAEA_K@Z@4HA 00000001800306ce f   ec_dsa.obj
 0001:0002f6da       ?dtor$4@?0??ConvertDerSignatureToWebCryptoSignature@@YA?AV?$shared_ptr@V?$basic_string@DU?$char_traits@D@std@@V?$allocator@D@2@@std@@@std@@PEAUevp_pkey_st@@PEBEAEA_K@Z@4HA 00000001800306da f   ec_dsa.obj
 0001:0002f6f0       ?dtor$0@?0??EC_DSA_sign@@YA?AV?$shared_ptr@V?$basic_string@DU?$char_traits@D@std@@V?$allocator@D@2@@std@@@std@@V?$shared_ptr@V?$ScopedSSL@Uevp_pkey_st@@$1?ScopedEVP_PKEY_free@@YAXPEAX@Z@@@2@PEBUenv_md_st@@V12@@Z@4HA 00000001800306f0 f   ec_dsa.obj
 0001:0002f6fc       ?dtor$1@?0??EC_DSA_sign@@YA?AV?$shared_ptr@V?$basic_string@DU?$char_traits@D@std@@V?$allocator@D@2@@std@@@std@@V?$shared_ptr@V?$ScopedSSL@Uevp_pkey_st@@$1?ScopedEVP_PKEY_free@@YAXPEAX@Z@@@2@PEBUenv_md_st@@V12@@Z@4HA 00000001800306fc f   ec_dsa.obj
 0001:0002f708       ?dtor$2@?0??EC_DSA_sign@@YA?AV?$shared_ptr@V?$basic_string@DU?$char_traits@D@std@@V?$allocator@D@2@@std@@@std@@V?$shared_ptr@V?$ScopedSSL@Uevp_pkey_st@@$1?ScopedEVP_PKEY_free@@YAXPEAX@Z@@@2@PEBUenv_md_st@@V12@@Z@4HA 0000000180030708 f   ec_dsa.obj
 0001:0002f714       ?dtor$3@?0??EC_DSA_sign@@YA?AV?$shared_ptr@V?$basic_string@DU?$char_traits@D@std@@V?$allocator@D@2@@std@@@std@@V?$shared_ptr@V?$ScopedSSL@Uevp_pkey_st@@$1?ScopedEVP_PKEY_free@@YAXPEAX@Z@@@2@PEBUenv_md_st@@V12@@Z@4HA 0000000180030714 f   ec_dsa.obj
 0001:0002f720       ?dtor$4@?0??EC_DSA_sign@@YA?AV?$shared_ptr@V?$basic_string@DU?$char_traits@D@std@@V?$allocator@D@2@@std@@@std@@V?$shared_ptr@V?$ScopedSSL@Uevp_pkey_st@@$1?ScopedEVP_PKEY_free@@YAXPEAX@Z@@@2@PEBUenv_md_st@@V12@@Z@4HA 0000000180030720 f   ec_dsa.obj
 0001:0002f72c       ?dtor$5@?0??EC_DSA_sign@@YA?AV?$shared_ptr@V?$basic_string@DU?$char_traits@D@std@@V?$allocator@D@2@@std@@@std@@V?$shared_ptr@V?$ScopedSSL@Uevp_pkey_st@@$1?ScopedEVP_PKEY_free@@YAXPEAX@Z@@@2@PEBUenv_md_st@@V12@@Z@4HA 000000018003072c f   ec_dsa.obj
 0001:0002f738       ?dtor$6@?0??EC_DSA_sign@@YA?AV?$shared_ptr@V?$basic_string@DU?$char_traits@D@std@@V?$allocator@D@2@@std@@@std@@V?$shared_ptr@V?$ScopedSSL@Uevp_pkey_st@@$1?ScopedEVP_PKEY_free@@YAXPEAX@Z@@@2@PEBUenv_md_st@@V12@@Z@4HA 0000000180030738 f   ec_dsa.obj
 0001:0002f744       ?dtor$7@?0??EC_DSA_sign@@YA?AV?$shared_ptr@V?$basic_string@DU?$char_traits@D@std@@V?$allocator@D@2@@std@@@std@@V?$shared_ptr@V?$ScopedSSL@Uevp_pkey_st@@$1?ScopedEVP_PKEY_free@@YAXPEAX@Z@@@2@PEBUenv_md_st@@V12@@Z@4HA 0000000180030744 f   ec_dsa.obj
 0001:0002f750       ?dtor$0@?0??EC_DSA_verify@@YA_NV?$shared_ptr@V?$ScopedSSL@Uevp_pkey_st@@$1?ScopedEVP_PKEY_free@@YAXPEAX@Z@@@std@@PEBUenv_md_st@@V?$shared_ptr@V?$basic_string@DU?$char_traits@D@std@@V?$allocator@D@2@@std@@@2@2@Z@4HA 0000000180030750 f   ec_dsa.obj
 0001:0002f75c       ?dtor$1@?0??EC_DSA_verify@@YA_NV?$shared_ptr@V?$ScopedSSL@Uevp_pkey_st@@$1?ScopedEVP_PKEY_free@@YAXPEAX@Z@@@std@@PEBUenv_md_st@@V?$shared_ptr@V?$basic_string@DU?$char_traits@D@std@@V?$allocator@D@2@@std@@@2@2@Z@4HA 000000018003075c f   ec_dsa.obj
 0001:0002f768       ?dtor$2@?0??EC_DSA_verify@@YA_NV?$shared_ptr@V?$ScopedSSL@Uevp_pkey_st@@$1?ScopedEVP_PKEY_free@@YAXPEAX@Z@@@std@@PEBUenv_md_st@@V?$shared_ptr@V?$basic_string@DU?$char_traits@D@std@@V?$allocator@D@2@@std@@@2@2@Z@4HA 0000000180030768 f   ec_dsa.obj
 0001:0002f774       ?dtor$3@?0??EC_DSA_verify@@YA_NV?$shared_ptr@V?$ScopedSSL@Uevp_pkey_st@@$1?ScopedEVP_PKEY_free@@YAXPEAX@Z@@@std@@PEBUenv_md_st@@V?$shared_ptr@V?$basic_string@DU?$char_traits@D@std@@V?$allocator@D@2@@std@@@2@2@Z@4HA 0000000180030774 f   ec_dsa.obj
 0001:0002f780       ?dtor$4@?0??EC_DSA_verify@@YA_NV?$shared_ptr@V?$ScopedSSL@Uevp_pkey_st@@$1?ScopedEVP_PKEY_free@@YAXPEAX@Z@@@std@@PEBUenv_md_st@@V?$shared_ptr@V?$basic_string@DU?$char_traits@D@std@@V?$allocator@D@2@@std@@@2@2@Z@4HA 0000000180030780 f   ec_dsa.obj
 0001:0002f78c       ?dtor$5@?0??EC_DSA_verify@@YA_NV?$shared_ptr@V?$ScopedSSL@Uevp_pkey_st@@$1?ScopedEVP_PKEY_free@@YAXPEAX@Z@@@std@@PEBUenv_md_st@@V?$shared_ptr@V?$basic_string@DU?$char_traits@D@std@@V?$allocator@D@2@@std@@@2@2@Z@4HA 000000018003078c f   ec_dsa.obj
 0001:0002f798       ?dtor$6@?0??EC_DSA_verify@@YA_NV?$shared_ptr@V?$ScopedSSL@Uevp_pkey_st@@$1?ScopedEVP_PKEY_free@@YAXPEAX@Z@@@std@@PEBUenv_md_st@@V?$shared_ptr@V?$basic_string@DU?$char_traits@D@std@@V?$allocator@D@2@@std@@@2@2@Z@4HA 0000000180030798 f   ec_dsa.obj
 0001:0002f7b0       ?dtor$0@?0??ECDH_derive_key@@YA?AV?$shared_ptr@V?$basic_string@DU?$char_traits@D@std@@V?$allocator@D@2@@std@@@std@@V?$shared_ptr@V?$ScopedSSL@Uevp_pkey_st@@$1?ScopedEVP_PKEY_free@@YAXPEAX@Z@@@2@0AEA_K@Z@4HA 00000001800307b0 f   ec_dh.obj
 0001:0002f7bc       ?dtor$1@?0??ECDH_derive_key@@YA?AV?$shared_ptr@V?$basic_string@DU?$char_traits@D@std@@V?$allocator@D@2@@std@@@std@@V?$shared_ptr@V?$ScopedSSL@Uevp_pkey_st@@$1?ScopedEVP_PKEY_free@@YAXPEAX@Z@@@2@0AEA_K@Z@4HA 00000001800307bc f   ec_dh.obj
 0001:0002f7c8       ?dtor$2@?0??ECDH_derive_key@@YA?AV?$shared_ptr@V?$basic_string@DU?$char_traits@D@std@@V?$allocator@D@2@@std@@@std@@V?$shared_ptr@V?$ScopedSSL@Uevp_pkey_st@@$1?ScopedEVP_PKEY_free@@YAXPEAX@Z@@@2@0AEA_K@Z@4HA 00000001800307c8 f   ec_dh.obj
 0001:0002f7d4       ?dtor$3@?0??ECDH_derive_key@@YA?AV?$shared_ptr@V?$basic_string@DU?$char_traits@D@std@@V?$allocator@D@2@@std@@@std@@V?$shared_ptr@V?$ScopedSSL@Uevp_pkey_st@@$1?ScopedEVP_PKEY_free@@YAXPEAX@Z@@@2@0AEA_K@Z@4HA 00000001800307d4 f   ec_dh.obj
 0001:0002f7fa       ?dtor$4@?0??ECDH_derive_key@@YA?AV?$shared_ptr@V?$basic_string@DU?$char_traits@D@std@@V?$allocator@D@2@@std@@@std@@V?$shared_ptr@V?$ScopedSSL@Uevp_pkey_st@@$1?ScopedEVP_PKEY_free@@YAXPEAX@Z@@@2@0AEA_K@Z@4HA 00000001800307fa f   ec_dh.obj
 0001:0002f806       ?dtor$5@?0??ECDH_derive_key@@YA?AV?$shared_ptr@V?$basic_string@DU?$char_traits@D@std@@V?$allocator@D@2@@std@@@std@@V?$shared_ptr@V?$ScopedSSL@Uevp_pkey_st@@$1?ScopedEVP_PKEY_free@@YAXPEAX@Z@@@2@0AEA_K@Z@4HA 0000000180030806 f   ec_dh.obj
 0001:0002f812       ?dtor$6@?0??ECDH_derive_key@@YA?AV?$shared_ptr@V?$basic_string@DU?$char_traits@D@std@@V?$allocator@D@2@@std@@@std@@V?$shared_ptr@V?$ScopedSSL@Uevp_pkey_st@@$1?ScopedEVP_PKEY_free@@YAXPEAX@Z@@@2@0AEA_K@Z@4HA 0000000180030812 f   ec_dh.obj
 0001:0002f81e       ?dtor$7@?0??ECDH_derive_key@@YA?AV?$shared_ptr@V?$basic_string@DU?$char_traits@D@std@@V?$allocator@D@2@@std@@@std@@V?$shared_ptr@V?$ScopedSSL@Uevp_pkey_st@@$1?ScopedEVP_PKEY_free@@YAXPEAX@Z@@@2@0AEA_K@Z@4HA 000000018003081e f   ec_dh.obj
 0001:0002f82a       ?dtor$8@?0??ECDH_derive_key@@YA?AV?$shared_ptr@V?$basic_string@DU?$char_traits@D@std@@V?$allocator@D@2@@std@@@std@@V?$shared_ptr@V?$ScopedSSL@Uevp_pkey_st@@$1?ScopedEVP_PKEY_free@@YAXPEAX@Z@@@2@0AEA_K@Z@4HA 000000018003082a f   ec_dh.obj
 0001:0002f840       ?dtor$0@?0??bn2buf@@YA?AV?$Local@VObject@v8@@@v8@@PEAUbignum_st@@@Z@4HA 0000000180030840 f   common.obj
 0001:0002f840       ?dtor$0@?0??EC_get_named_curve@@YAHPEAUec_key_st@@@Z@4HA 0000000180030840 f   ec_dh.obj
 0001:0002f850       ?dtor$0@?0??ECDH_derive_bits@@YA?AV?$shared_ptr@V?$basic_string@DU?$char_traits@D@std@@V?$allocator@D@2@@std@@@std@@V?$shared_ptr@V?$ScopedSSL@Uevp_pkey_st@@$1?ScopedEVP_PKEY_free@@YAXPEAX@Z@@@2@0_NI@Z@4HA 0000000180030850 f   ec_dh.obj
 0001:0002f85c       ?dtor$1@?0??ECDH_derive_bits@@YA?AV?$shared_ptr@V?$basic_string@DU?$char_traits@D@std@@V?$allocator@D@2@@std@@@std@@V?$shared_ptr@V?$ScopedSSL@Uevp_pkey_st@@$1?ScopedEVP_PKEY_free@@YAXPEAX@Z@@@2@0_NI@Z@4HA 000000018003085c f   ec_dh.obj
 0001:0002f868       ?dtor$2@?0??ECDH_derive_bits@@YA?AV?$shared_ptr@V?$basic_string@DU?$char_traits@D@std@@V?$allocator@D@2@@std@@@std@@V?$shared_ptr@V?$ScopedSSL@Uevp_pkey_st@@$1?ScopedEVP_PKEY_free@@YAXPEAX@Z@@@2@0_NI@Z@4HA 0000000180030868 f   ec_dh.obj
 0001:0002f874       ?dtor$3@?0??ECDH_derive_bits@@YA?AV?$shared_ptr@V?$basic_string@DU?$char_traits@D@std@@V?$allocator@D@2@@std@@@std@@V?$shared_ptr@V?$ScopedSSL@Uevp_pkey_st@@$1?ScopedEVP_PKEY_free@@YAXPEAX@Z@@@2@0_NI@Z@4HA 0000000180030874 f   ec_dh.obj
 0001:0002f880       ?dtor$4@?0??ECDH_derive_bits@@YA?AV?$shared_ptr@V?$basic_string@DU?$char_traits@D@std@@V?$allocator@D@2@@std@@@std@@V?$shared_ptr@V?$ScopedSSL@Uevp_pkey_st@@$1?ScopedEVP_PKEY_free@@YAXPEAX@Z@@@2@0_NI@Z@4HA 0000000180030880 f   ec_dh.obj
 0001:0002f88c       ?dtor$5@?0??ECDH_derive_bits@@YA?AV?$shared_ptr@V?$basic_string@DU?$char_traits@D@std@@V?$allocator@D@2@@std@@@std@@V?$shared_ptr@V?$ScopedSSL@Uevp_pkey_st@@$1?ScopedEVP_PKEY_free@@YAXPEAX@Z@@@2@0_NI@Z@4HA 000000018003088c f   ec_dh.obj
 0001:0002f898       ?dtor$7@?0??ECDH_derive_bits@@YA?AV?$shared_ptr@V?$basic_string@DU?$char_traits@D@std@@V?$allocator@D@2@@std@@@std@@V?$shared_ptr@V?$ScopedSSL@Uevp_pkey_st@@$1?ScopedEVP_PKEY_free@@YAXPEAX@Z@@@2@0_NI@Z@4HA 0000000180030898 f   ec_dh.obj
 0001:0002f8b0       ?dtor$0@?0??From@JwkEc@@SA?AV?$shared_ptr@VJwkEc@@@std@@V?$shared_ptr@V?$ScopedSSL@Uevp_pkey_st@@$1?ScopedEVP_PKEY_free@@YAXPEAX@Z@@@3@AEAH@Z@4HA 00000001800308b0 f   ec_jwk.obj
 0001:0002f8bc       ?dtor$2@?0??From@JwkEc@@SA?AV?$shared_ptr@VJwkEc@@@std@@V?$shared_ptr@V?$ScopedSSL@Uevp_pkey_st@@$1?ScopedEVP_PKEY_free@@YAXPEAX@Z@@@3@AEAH@Z@4HA 00000001800308bc f   ec_jwk.obj
 0001:0002f8e2       ?dtor$3@?0??From@JwkEc@@SA?AV?$shared_ptr@VJwkEc@@@std@@V?$shared_ptr@V?$ScopedSSL@Uevp_pkey_st@@$1?ScopedEVP_PKEY_free@@YAXPEAX@Z@@@3@AEAH@Z@4HA 00000001800308e2 f   ec_jwk.obj
 0001:0002f8ee       ?dtor$4@?0??From@JwkEc@@SA?AV?$shared_ptr@VJwkEc@@@std@@V?$shared_ptr@V?$ScopedSSL@Uevp_pkey_st@@$1?ScopedEVP_PKEY_free@@YAXPEAX@Z@@@3@AEAH@Z@4HA 00000001800308ee f   ec_jwk.obj
 0001:0002f8fa       ?dtor$5@?0??From@JwkEc@@SA?AV?$shared_ptr@VJwkEc@@@std@@V?$shared_ptr@V?$ScopedSSL@Uevp_pkey_st@@$1?ScopedEVP_PKEY_free@@YAXPEAX@Z@@@3@AEAH@Z@4HA 00000001800308fa f   ec_jwk.obj
 0001:0002f906       ?dtor$6@?0??From@JwkEc@@SA?AV?$shared_ptr@VJwkEc@@@std@@V?$shared_ptr@V?$ScopedSSL@Uevp_pkey_st@@$1?ScopedEVP_PKEY_free@@YAXPEAX@Z@@@3@AEAH@Z@4HA 0000000180030906 f   ec_jwk.obj
 0001:0002f912       ?dtor$7@?0??From@JwkEc@@SA?AV?$shared_ptr@VJwkEc@@@std@@V?$shared_ptr@V?$ScopedSSL@Uevp_pkey_st@@$1?ScopedEVP_PKEY_free@@YAXPEAX@Z@@@3@AEAH@Z@4HA 0000000180030912 f   ec_jwk.obj
 0001:0002f920       ?dtor$0@?0??To@JwkEc@@QEAA?AV?$shared_ptr@V?$ScopedSSL@Uevp_pkey_st@@$1?ScopedEVP_PKEY_free@@YAXPEAX@Z@@@std@@AEAH@Z@4HA 0000000180030920 f   ec_jwk.obj
 0001:0002f92c       ?dtor$1@?0??To@JwkEc@@QEAA?AV?$shared_ptr@V?$ScopedSSL@Uevp_pkey_st@@$1?ScopedEVP_PKEY_free@@YAXPEAX@Z@@@std@@AEAH@Z@4HA 000000018003092c f   ec_jwk.obj
 0001:0002f938       ?dtor$2@?0??To@JwkEc@@QEAA?AV?$shared_ptr@V?$ScopedSSL@Uevp_pkey_st@@$1?ScopedEVP_PKEY_free@@YAXPEAX@Z@@@std@@AEAH@Z@4HA 0000000180030938 f   ec_jwk.obj
 0001:0002f944       ?dtor$3@?0??To@JwkEc@@QEAA?AV?$shared_ptr@V?$ScopedSSL@Uevp_pkey_st@@$1?ScopedEVP_PKEY_free@@YAXPEAX@Z@@@std@@AEAH@Z@4HA 0000000180030944 f   ec_jwk.obj
 0001:0002f950       ?dtor$4@?0??To@JwkEc@@QEAA?AV?$shared_ptr@V?$ScopedSSL@Uevp_pkey_st@@$1?ScopedEVP_PKEY_free@@YAXPEAX@Z@@@std@@AEAH@Z@4HA 0000000180030950 f   ec_jwk.obj
 0001:0002f95c       ?dtor$5@?0??To@JwkEc@@QEAA?AV?$shared_ptr@V?$ScopedSSL@Uevp_pkey_st@@$1?ScopedEVP_PKEY_free@@YAXPEAX@Z@@@std@@AEAH@Z@4HA 000000018003095c f   ec_jwk.obj
 0001:0002f968       ?dtor$6@?0??To@JwkEc@@QEAA?AV?$shared_ptr@V?$ScopedSSL@Uevp_pkey_st@@$1?ScopedEVP_PKEY_free@@YAXPEAX@Z@@@std@@AEAH@Z@4HA 0000000180030968 f   ec_jwk.obj
 0001:0002f974       ?dtor$7@?0??To@JwkEc@@QEAA?AV?$shared_ptr@V?$ScopedSSL@Uevp_pkey_st@@$1?ScopedEVP_PKEY_free@@YAXPEAX@Z@@@std@@AEAH@Z@4HA 0000000180030974 f   ec_jwk.obj
 0001:0002f980       ?dtor$0@?0??AES_ECB_encrypt@@YA?AV?$shared_ptr@V?$basic_string@DU?$char_traits@D@std@@V?$allocator@D@2@@std@@@std@@V12@0_N@Z@4HA 0000000180030980 f   aes_ecb.obj
 0001:0002f98c       ?dtor$1@?0??AES_ECB_encrypt@@YA?AV?$shared_ptr@V?$basic_string@DU?$char_traits@D@std@@V?$allocator@D@2@@std@@@std@@V12@0_N@Z@4HA 000000018003098c f   aes_ecb.obj
 0001:0002f998       ?dtor$2@?0??AES_ECB_encrypt@@YA?AV?$shared_ptr@V?$basic_string@DU?$char_traits@D@std@@V?$allocator@D@2@@std@@@std@@V12@0_N@Z@4HA 0000000180030998 f   aes_ecb.obj
 0001:0002f9a4       ?dtor$3@?0??AES_ECB_encrypt@@YA?AV?$shared_ptr@V?$basic_string@DU?$char_traits@D@std@@V?$allocator@D@2@@std@@@std@@V12@0_N@Z@4HA 00000001800309a4 f   aes_ecb.obj
 0001:0002f9b0       ?dtor$4@?0??AES_ECB_encrypt@@YA?AV?$shared_ptr@V?$basic_string@DU?$char_traits@D@std@@V?$allocator@D@2@@std@@@std@@V12@0_N@Z@4HA 00000001800309b0 f   aes_ecb.obj
 0001:0002f9d6       ?dtor$5@?0??AES_ECB_encrypt@@YA?AV?$shared_ptr@V?$basic_string@DU?$char_traits@D@std@@V?$allocator@D@2@@std@@@std@@V12@0_N@Z@4HA 00000001800309d6 f   aes_ecb.obj
 0001:0002f9e2       ?dtor$6@?0??AES_ECB_encrypt@@YA?AV?$shared_ptr@V?$basic_string@DU?$char_traits@D@std@@V?$allocator@D@2@@std@@@std@@V12@0_N@Z@4HA 00000001800309e2 f   aes_ecb.obj
 0001:0002f9ee       ?dtor$7@?0??AES_ECB_encrypt@@YA?AV?$shared_ptr@V?$basic_string@DU?$char_traits@D@std@@V?$allocator@D@2@@std@@@std@@V12@0_N@Z@4HA 00000001800309ee f   aes_ecb.obj
 0001:0002fa00       ?dtor$0@?0??AES_CBC_encrypt@@YA?AV?$shared_ptr@V?$basic_string@DU?$char_traits@D@std@@V?$allocator@D@2@@std@@@std@@V12@00_N@Z@4HA 0000000180030a00 f   aes_cbc.obj
 0001:0002fa0c       ?dtor$1@?0??AES_CBC_encrypt@@YA?AV?$shared_ptr@V?$basic_string@DU?$char_traits@D@std@@V?$allocator@D@2@@std@@@std@@V12@00_N@Z@4HA 0000000180030a0c f   aes_cbc.obj
 0001:0002fa18       ?dtor$2@?0??AES_CBC_encrypt@@YA?AV?$shared_ptr@V?$basic_string@DU?$char_traits@D@std@@V?$allocator@D@2@@std@@@std@@V12@00_N@Z@4HA 0000000180030a18 f   aes_cbc.obj
 0001:0002fa24       ?dtor$3@?0??AES_CBC_encrypt@@YA?AV?$shared_ptr@V?$basic_string@DU?$char_traits@D@std@@V?$allocator@D@2@@std@@@std@@V12@00_N@Z@4HA 0000000180030a24 f   aes_cbc.obj
 0001:0002fa30       ?dtor$4@?0??AES_CBC_encrypt@@YA?AV?$shared_ptr@V?$basic_string@DU?$char_traits@D@std@@V?$allocator@D@2@@std@@@std@@V12@00_N@Z@4HA 0000000180030a30 f   aes_cbc.obj
 0001:0002fa3c       ?dtor$5@?0??AES_CBC_encrypt@@YA?AV?$shared_ptr@V?$basic_string@DU?$char_traits@D@std@@V?$allocator@D@2@@std@@@std@@V12@00_N@Z@4HA 0000000180030a3c f   aes_cbc.obj
 0001:0002fa62       ?dtor$6@?0??AES_CBC_encrypt@@YA?AV?$shared_ptr@V?$basic_string@DU?$char_traits@D@std@@V?$allocator@D@2@@std@@@std@@V12@00_N@Z@4HA 0000000180030a62 f   aes_cbc.obj
 0001:0002fa6e       ?dtor$7@?0??AES_CBC_encrypt@@YA?AV?$shared_ptr@V?$basic_string@DU?$char_traits@D@std@@V?$allocator@D@2@@std@@@std@@V12@00_N@Z@4HA 0000000180030a6e f   aes_cbc.obj
 0001:0002fa7a       ?dtor$8@?0??AES_CBC_encrypt@@YA?AV?$shared_ptr@V?$basic_string@DU?$char_traits@D@std@@V?$allocator@D@2@@std@@@std@@V12@00_N@Z@4HA 0000000180030a7a f   aes_cbc.obj
 0001:0002fa90       ?dtor$0@?0??decryptCtr@ScopedAES@@QEAA?AV?$shared_ptr@V?$basic_string@DU?$char_traits@D@std@@V?$allocator@D@2@@std@@@std@@V23@0H@Z@4HA 0000000180030a90 f   aes_ctr.obj
 0001:0002fa90       ?dtor$0@?0??decryptCbc@ScopedAES@@QEAA?AV?$shared_ptr@V?$basic_string@DU?$char_traits@D@std@@V?$allocator@D@2@@std@@@std@@V23@0@Z@4HA 0000000180030a90 f   aes_cbc.obj
 0001:0002fa90       ?dtor$0@?0??encryptCbc@ScopedAES@@QEAA?AV?$shared_ptr@V?$basic_string@DU?$char_traits@D@std@@V?$allocator@D@2@@std@@@std@@V23@0@Z@4HA 0000000180030a90 f   aes_cbc.obj
 0001:0002fa90       ?dtor$0@?0??encryptCtr@ScopedAES@@QEAA?AV?$shared_ptr@V?$basic_string@DU?$char_traits@D@std@@V?$allocator@D@2@@std@@@std@@V23@0H@Z@4HA 0000000180030a90 f   aes_ctr.obj
 0001:0002fa9c       ?dtor$1@?0??encryptCbc@ScopedAES@@QEAA?AV?$shared_ptr@V?$basic_string@DU?$char_traits@D@std@@V?$allocator@D@2@@std@@@std@@V23@0@Z@4HA 0000000180030a9c f   aes_cbc.obj
 0001:0002fa9c       ?dtor$1@?0??decryptCbc@ScopedAES@@QEAA?AV?$shared_ptr@V?$basic_string@DU?$char_traits@D@std@@V?$allocator@D@2@@std@@@std@@V23@0@Z@4HA 0000000180030a9c f   aes_cbc.obj
 0001:0002fa9c       ?dtor$1@?0??encryptCtr@ScopedAES@@QEAA?AV?$shared_ptr@V?$basic_string@DU?$char_traits@D@std@@V?$allocator@D@2@@std@@@std@@V23@0H@Z@4HA 0000000180030a9c f   aes_ctr.obj
 0001:0002fa9c       ?dtor$1@?0??decryptCtr@ScopedAES@@QEAA?AV?$shared_ptr@V?$basic_string@DU?$char_traits@D@std@@V?$allocator@D@2@@std@@@std@@V23@0H@Z@4HA 0000000180030a9c f   aes_ctr.obj
 0001:0002fab0       ?dtor$0@?0??wrap@ScopedAES@@QEAA?AV?$shared_ptr@V?$basic_string@DU?$char_traits@D@std@@V?$allocator@D@2@@std@@@std@@V23@@Z@4HA 0000000180030ab0 f   aes_cbc.obj
 0001:0002fabc       ?dtor$1@?0??wrap@ScopedAES@@QEAA?AV?$shared_ptr@V?$basic_string@DU?$char_traits@D@std@@V?$allocator@D@2@@std@@@std@@V23@@Z@4HA 0000000180030abc f   aes_cbc.obj
 0001:0002fac8       ?dtor$2@?0??wrap@ScopedAES@@QEAA?AV?$shared_ptr@V?$basic_string@DU?$char_traits@D@std@@V?$allocator@D@2@@std@@@std@@V23@@Z@4HA 0000000180030ac8 f   aes_cbc.obj
 0001:0002faee       ?dtor$3@?0??wrap@ScopedAES@@QEAA?AV?$shared_ptr@V?$basic_string@DU?$char_traits@D@std@@V?$allocator@D@2@@std@@@std@@V23@@Z@4HA 0000000180030aee f   aes_cbc.obj
 0001:0002fb00       ?dtor$0@?0??unwrap@ScopedAES@@QEAA?AV?$shared_ptr@V?$basic_string@DU?$char_traits@D@std@@V?$allocator@D@2@@std@@@std@@V23@@Z@4HA 0000000180030b00 f   aes_cbc.obj
 0001:0002fb0c       ?dtor$1@?0??unwrap@ScopedAES@@QEAA?AV?$shared_ptr@V?$basic_string@DU?$char_traits@D@std@@V?$allocator@D@2@@std@@@std@@V23@@Z@4HA 0000000180030b0c f   aes_cbc.obj
 0001:0002fb18       ?dtor$2@?0??unwrap@ScopedAES@@QEAA?AV?$shared_ptr@V?$basic_string@DU?$char_traits@D@std@@V?$allocator@D@2@@std@@@std@@V23@@Z@4HA 0000000180030b18 f   aes_cbc.obj
 0001:0002fb3e       ?dtor$3@?0??unwrap@ScopedAES@@QEAA?AV?$shared_ptr@V?$basic_string@DU?$char_traits@D@std@@V?$allocator@D@2@@std@@@std@@V23@@Z@4HA 0000000180030b3e f   aes_cbc.obj
 0001:0002fb50       ?dtor$0@?0??AES_GCM_encrypt@@YA?AV?$shared_ptr@V?$basic_string@DU?$char_traits@D@std@@V?$allocator@D@2@@std@@@std@@V12@000H@Z@4HA 0000000180030b50 f   aes_gcm.obj
 0001:0002fb5c       ?dtor$1@?0??AES_GCM_encrypt@@YA?AV?$shared_ptr@V?$basic_string@DU?$char_traits@D@std@@V?$allocator@D@2@@std@@@std@@V12@000H@Z@4HA 0000000180030b5c f   aes_gcm.obj
 0001:0002fb68       ?dtor$2@?0??AES_GCM_encrypt@@YA?AV?$shared_ptr@V?$basic_string@DU?$char_traits@D@std@@V?$allocator@D@2@@std@@@std@@V12@000H@Z@4HA 0000000180030b68 f   aes_gcm.obj
 0001:0002fb74       ?dtor$3@?0??AES_GCM_encrypt@@YA?AV?$shared_ptr@V?$basic_string@DU?$char_traits@D@std@@V?$allocator@D@2@@std@@@std@@V12@000H@Z@4HA 0000000180030b74 f   aes_gcm.obj
 0001:0002fb80       ?dtor$4@?0??AES_GCM_encrypt@@YA?AV?$shared_ptr@V?$basic_string@DU?$char_traits@D@std@@V?$allocator@D@2@@std@@@std@@V12@000H@Z@4HA 0000000180030b80 f   aes_gcm.obj
 0001:0002fba9       ?dtor$5@?0??AES_GCM_encrypt@@YA?AV?$shared_ptr@V?$basic_string@DU?$char_traits@D@std@@V?$allocator@D@2@@std@@@std@@V12@000H@Z@4HA 0000000180030ba9 f   aes_gcm.obj
 0001:0002fbb5       ?dtor$6@?0??AES_GCM_encrypt@@YA?AV?$shared_ptr@V?$basic_string@DU?$char_traits@D@std@@V?$allocator@D@2@@std@@@std@@V12@000H@Z@4HA 0000000180030bb5 f   aes_gcm.obj
 0001:0002fbc1       ?dtor$7@?0??AES_GCM_encrypt@@YA?AV?$shared_ptr@V?$basic_string@DU?$char_traits@D@std@@V?$allocator@D@2@@std@@@std@@V12@000H@Z@4HA 0000000180030bc1 f   aes_gcm.obj
 0001:0002fbcd       ?dtor$8@?0??AES_GCM_encrypt@@YA?AV?$shared_ptr@V?$basic_string@DU?$char_traits@D@std@@V?$allocator@D@2@@std@@@std@@V12@000H@Z@4HA 0000000180030bcd f   aes_gcm.obj
 0001:0002fbd9       ?dtor$9@?0??AES_GCM_encrypt@@YA?AV?$shared_ptr@V?$basic_string@DU?$char_traits@D@std@@V?$allocator@D@2@@std@@@std@@V12@000H@Z@4HA 0000000180030bd9 f   aes_gcm.obj
 0001:0002fbe5       ?dtor$10@?0??AES_GCM_encrypt@@YA?AV?$shared_ptr@V?$basic_string@DU?$char_traits@D@std@@V?$allocator@D@2@@std@@@std@@V12@000H@Z@4HA 0000000180030be5 f   aes_gcm.obj
 0001:0002fbf1       ?dtor$11@?0??AES_GCM_encrypt@@YA?AV?$shared_ptr@V?$basic_string@DU?$char_traits@D@std@@V?$allocator@D@2@@std@@@std@@V12@000H@Z@4HA 0000000180030bf1 f   aes_gcm.obj
 0001:0002fbfd       ?dtor$12@?0??AES_GCM_encrypt@@YA?AV?$shared_ptr@V?$basic_string@DU?$char_traits@D@std@@V?$allocator@D@2@@std@@@std@@V12@000H@Z@4HA 0000000180030bfd f   aes_gcm.obj
 0001:0002fc09       ?dtor$13@?0??AES_GCM_encrypt@@YA?AV?$shared_ptr@V?$basic_string@DU?$char_traits@D@std@@V?$allocator@D@2@@std@@@std@@V12@000H@Z@4HA 0000000180030c09 f   aes_gcm.obj
 0001:0002fc20       ?dtor$0@?0??AES_GCM_decrypt@@YA?AV?$shared_ptr@V?$basic_string@DU?$char_traits@D@std@@V?$allocator@D@2@@std@@@std@@V12@000H@Z@4HA 0000000180030c20 f   aes_gcm.obj
 0001:0002fc2c       ?dtor$1@?0??AES_GCM_decrypt@@YA?AV?$shared_ptr@V?$basic_string@DU?$char_traits@D@std@@V?$allocator@D@2@@std@@@std@@V12@000H@Z@4HA 0000000180030c2c f   aes_gcm.obj
 0001:0002fc38       ?dtor$2@?0??AES_GCM_decrypt@@YA?AV?$shared_ptr@V?$basic_string@DU?$char_traits@D@std@@V?$allocator@D@2@@std@@@std@@V12@000H@Z@4HA 0000000180030c38 f   aes_gcm.obj
 0001:0002fc44       ?dtor$3@?0??AES_GCM_decrypt@@YA?AV?$shared_ptr@V?$basic_string@DU?$char_traits@D@std@@V?$allocator@D@2@@std@@@std@@V12@000H@Z@4HA 0000000180030c44 f   aes_gcm.obj
 0001:0002fc50       ?dtor$4@?0??AES_GCM_decrypt@@YA?AV?$shared_ptr@V?$basic_string@DU?$char_traits@D@std@@V?$allocator@D@2@@std@@@std@@V12@000H@Z@4HA 0000000180030c50 f   aes_gcm.obj
 0001:0002fc76       ?dtor$5@?0??AES_GCM_decrypt@@YA?AV?$shared_ptr@V?$basic_string@DU?$char_traits@D@std@@V?$allocator@D@2@@std@@@std@@V12@000H@Z@4HA 0000000180030c76 f   aes_gcm.obj
 0001:0002fc82       ?dtor$6@?0??AES_GCM_decrypt@@YA?AV?$shared_ptr@V?$basic_string@DU?$char_traits@D@std@@V?$allocator@D@2@@std@@@std@@V12@000H@Z@4HA 0000000180030c82 f   aes_gcm.obj
 0001:0002fc8e       ?dtor$7@?0??AES_GCM_decrypt@@YA?AV?$shared_ptr@V?$basic_string@DU?$char_traits@D@std@@V?$allocator@D@2@@std@@@std@@V12@000H@Z@4HA 0000000180030c8e f   aes_gcm.obj
 0001:0002fc9a       ?dtor$8@?0??AES_GCM_decrypt@@YA?AV?$shared_ptr@V?$basic_string@DU?$char_traits@D@std@@V?$allocator@D@2@@std@@@std@@V12@000H@Z@4HA 0000000180030c9a f   aes_gcm.obj
 0001:0002fca6       ?dtor$9@?0??AES_GCM_decrypt@@YA?AV?$shared_ptr@V?$basic_string@DU?$char_traits@D@std@@V?$allocator@D@2@@std@@@std@@V12@000H@Z@4HA 0000000180030ca6 f   aes_gcm.obj
 0001:0002fcb2       ?dtor$10@?0??AES_GCM_decrypt@@YA?AV?$shared_ptr@V?$basic_string@DU?$char_traits@D@std@@V?$allocator@D@2@@std@@@std@@V12@000H@Z@4HA 0000000180030cb2 f   aes_gcm.obj
 0001:0002fcbe       ?dtor$11@?0??AES_GCM_decrypt@@YA?AV?$shared_ptr@V?$basic_string@DU?$char_traits@D@std@@V?$allocator@D@2@@std@@@std@@V12@000H@Z@4HA 0000000180030cbe f   aes_gcm.obj
 0001:0002fcca       ?dtor$12@?0??AES_GCM_decrypt@@YA?AV?$shared_ptr@V?$basic_string@DU?$char_traits@D@std@@V?$allocator@D@2@@std@@@std@@V12@000H@Z@4HA 0000000180030cca f   aes_gcm.obj
 0001:0002fcd6       ?dtor$13@?0??AES_GCM_decrypt@@YA?AV?$shared_ptr@V?$basic_string@DU?$char_traits@D@std@@V?$allocator@D@2@@std@@@std@@V12@000H@Z@4HA 0000000180030cd6 f   aes_gcm.obj
 0001:0002fce2       ?dtor$14@?0??AES_GCM_decrypt@@YA?AV?$shared_ptr@V?$basic_string@DU?$char_traits@D@std@@V?$allocator@D@2@@std@@@std@@V12@000H@Z@4HA 0000000180030ce2 f   aes_gcm.obj
 0001:0002fcf0       ?dtor$0@?0??encryptGcm@ScopedAES@@QEAA?AV?$shared_ptr@V?$basic_string@DU?$char_traits@D@std@@V?$allocator@D@2@@std@@@std@@V23@00H@Z@4HA 0000000180030cf0 f   aes_gcm.obj
 0001:0002fcf0       ?dtor$0@?0??decryptGcm@ScopedAES@@QEAA?AV?$shared_ptr@V?$basic_string@DU?$char_traits@D@std@@V?$allocator@D@2@@std@@@std@@V23@00H@Z@4HA 0000000180030cf0 f   aes_gcm.obj
 0001:0002fcfc       ?dtor$1@?0??decryptGcm@ScopedAES@@QEAA?AV?$shared_ptr@V?$basic_string@DU?$char_traits@D@std@@V?$allocator@D@2@@std@@@std@@V23@00H@Z@4HA 0000000180030cfc f   aes_gcm.obj
 0001:0002fcfc       ?dtor$1@?0??encryptGcm@ScopedAES@@QEAA?AV?$shared_ptr@V?$basic_string@DU?$char_traits@D@std@@V?$allocator@D@2@@std@@@std@@V23@00H@Z@4HA 0000000180030cfc f   aes_gcm.obj
 0001:0002fd08       ?dtor$2@?0??decryptGcm@ScopedAES@@QEAA?AV?$shared_ptr@V?$basic_string@DU?$char_traits@D@std@@V?$allocator@D@2@@std@@@std@@V23@00H@Z@4HA 0000000180030d08 f   aes_gcm.obj
 0001:0002fd08       ?dtor$2@?0??encryptGcm@ScopedAES@@QEAA?AV?$shared_ptr@V?$basic_string@DU?$char_traits@D@std@@V?$allocator@D@2@@std@@@std@@V23@00H@Z@4HA 0000000180030d08 f   aes_gcm.obj
 0001:0002fd20       ?dtor$0@?0??AES_CTR_encrypt@@YA?AV?$shared_ptr@V?$basic_string@DU?$char_traits@D@std@@V?$allocator@D@2@@std@@@std@@V12@00H_N@Z@4HA 0000000180030d20 f   aes_ctr.obj
 0001:0002fd2c       ?dtor$1@?0??AES_CTR_encrypt@@YA?AV?$shared_ptr@V?$basic_string@DU?$char_traits@D@std@@V?$allocator@D@2@@std@@@std@@V12@00H_N@Z@4HA 0000000180030d2c f   aes_ctr.obj
 0001:0002fd38       ?dtor$2@?0??AES_CTR_encrypt@@YA?AV?$shared_ptr@V?$basic_string@DU?$char_traits@D@std@@V?$allocator@D@2@@std@@@std@@V12@00H_N@Z@4HA 0000000180030d38 f   aes_ctr.obj
 0001:0002fd44       ?dtor$3@?0??AES_CTR_encrypt@@YA?AV?$shared_ptr@V?$basic_string@DU?$char_traits@D@std@@V?$allocator@D@2@@std@@@std@@V12@00H_N@Z@4HA 0000000180030d44 f   aes_ctr.obj
 0001:0002fd50       ?dtor$4@?0??AES_CTR_encrypt@@YA?AV?$shared_ptr@V?$basic_string@DU?$char_traits@D@std@@V?$allocator@D@2@@std@@@std@@V12@00H_N@Z@4HA 0000000180030d50 f   aes_ctr.obj
 0001:0002fd6d       ?dtor$5@?0??AES_CTR_encrypt@@YA?AV?$shared_ptr@V?$basic_string@DU?$char_traits@D@std@@V?$allocator@D@2@@std@@@std@@V12@00H_N@Z@4HA 0000000180030d6d f   aes_ctr.obj
 0001:0002fda0       ?dtor$0@?0??generate@ScopedHMAC@@SA?AV?$shared_ptr@VScopedHMAC@@@std@@AEAH@Z@4HA 0000000180030da0 f   hmac_gen.obj
 0001:0002fdb0       ?dtor$0@?0??sign@ScopedHMAC@@QEAA?AV?$shared_ptr@V?$basic_string@DU?$char_traits@D@std@@V?$allocator@D@2@@std@@@std@@V23@PEBUenv_md_st@@@Z@4HA 0000000180030db0 f   hmac_sign.obj
 0001:0002fdbc       ?dtor$1@?0??sign@ScopedHMAC@@QEAA?AV?$shared_ptr@V?$basic_string@DU?$char_traits@D@std@@V?$allocator@D@2@@std@@@std@@V23@PEBUenv_md_st@@@Z@4HA 0000000180030dbc f   hmac_sign.obj
 0001:0002fde2       ?dtor$2@?0??sign@ScopedHMAC@@QEAA?AV?$shared_ptr@V?$basic_string@DU?$char_traits@D@std@@V?$allocator@D@2@@std@@@std@@V23@PEBUenv_md_st@@@Z@4HA 0000000180030de2 f   hmac_sign.obj
 0001:0002fdf0       ?dtor$0@?0??verify@ScopedHMAC@@QEAA_NV?$shared_ptr@V?$basic_string@DU?$char_traits@D@std@@V?$allocator@D@2@@std@@@std@@PEBUenv_md_st@@0@Z@4HA 0000000180030df0 f   hmac_sign.obj
 0001:0002fdfc       ?dtor$1@?0??verify@ScopedHMAC@@QEAA_NV?$shared_ptr@V?$basic_string@DU?$char_traits@D@std@@V?$allocator@D@2@@std@@@std@@PEBUenv_md_st@@0@Z@4HA 0000000180030dfc f   hmac_sign.obj
 0001:0002fe10       ?dtor$0@?0??deriveBits@ScopedPbkdf2@@QEAA?AV?$shared_ptr@V?$basic_string@DU?$char_traits@D@std@@V?$allocator@D@2@@std@@@std@@V23@_KPEBUenv_md_st@@1@Z@4HA 0000000180030e10 f   pbkdf2_derive.obj
 0001:0002fe1c       ?dtor$1@?0??deriveBits@ScopedPbkdf2@@QEAA?AV?$shared_ptr@V?$basic_string@DU?$char_traits@D@std@@V?$allocator@D@2@@std@@@std@@V23@_KPEBUenv_md_st@@1@Z@4HA 0000000180030e1c f   pbkdf2_derive.obj
 0001:0002fe42       ?dtor$2@?0??deriveBits@ScopedPbkdf2@@QEAA?AV?$shared_ptr@V?$basic_string@DU?$char_traits@D@std@@V?$allocator@D@2@@std@@@std@@V23@_KPEBUenv_md_st@@1@Z@4HA 0000000180030e42 f   pbkdf2_derive.obj
 0001:0002fe50       ?dtor$1@?0??v8Buffer_to_String@@YA?AV?$shared_ptr@V?$basic_string@DU?$char_traits@D@std@@V?$allocator@D@2@@std@@@std@@V?$Local@VValue@v8@@@v8@@@Z@4HA 0000000180030e50 f   common.obj
 0001:0002fe70       ?dtor$0@?0??String_to_v8Buffer@@YA?AV?$Local@VObject@v8@@@v8@@V?$shared_ptr@V?$basic_string@DU?$char_traits@D@std@@V?$allocator@D@2@@std@@@std@@@Z@4HA 0000000180030e70 f   common.obj
 0001:0002fe80       ?dtor$0@?0??Set@Nan@@YA?AV?$Maybe@_N@v8@@V?$Local@VObject@v8@@@3@V?$Local@VValue@v8@@@3@1@Z@4HA 0000000180030e80 f   w_key.obj
 0001:0002fe90       ?dtor$0@?0??Get@Nan@@YA?AV?$MaybeLocal@VValue@v8@@@v8@@V?$Local@VObject@v8@@@3@V?$Local@VValue@v8@@@3@@Z@4HA 0000000180030e90 f   w_key.obj
 0001:0002fea0       ?dtor$0@?0??New@?$Factory@VFunctionTemplate@v8@@@imp@Nan@@SA?AV?$Local@VFunctionTemplate@v8@@@v8@@P6AXAEBV?$FunctionCallbackInfo@VValue@v8@@@3@@ZV?$Local@VValue@v8@@@5@V?$Local@VSignature@v8@@@5@@Z@4HA 0000000180030ea0 f   w_key.obj
 0001:0002feae       ?dtor$1@?0??New@?$Factory@VFunctionTemplate@v8@@@imp@Nan@@SA?AV?$Local@VFunctionTemplate@v8@@@v8@@P6AXAEBV?$FunctionCallbackInfo@VValue@v8@@@3@@ZV?$Local@VValue@v8@@@5@V?$Local@VSignature@v8@@@5@@Z@4HA 0000000180030eae f   w_key.obj
 0001:0002fec0       ?dtor$0@?0??HandleOKCallback@AsyncWorker@Nan@@MEAAXXZ@4HA 0000000180030ec0 f   w_key.obj
 0001:0002fec0       ?dtor$0@?0??ThrowError@Nan@@YAXV?$Local@VString@v8@@@v8@@@Z@4HA 0000000180030ec0 f   w_key.obj
 0001:0002fed0       ?dtor$0@?0??Call@Callback@Nan@@QEBA?AV?$Local@VValue@v8@@@v8@@HQEAV34@@Z@4HA 0000000180030ed0 f   w_key.obj
 0001:0002fede       ?dtor$1@?0??Call@Callback@Nan@@QEBA?AV?$Local@VValue@v8@@@v8@@HQEAV34@@Z@4HA 0000000180030ede f   w_key.obj
 0001:0002fef0       ?dtor$0@?0???0AsyncWorker@Nan@@QEAA@PEAVCallback@1@@Z@4HA 0000000180030ef0 f   w_key.obj
 0001:0002ff03       ?dtor$1@?0???0AsyncWorker@Nan@@QEAA@PEAVCallback@1@@Z@4HA 0000000180030f03 f   w_key.obj
 0001:0002ff10       ?dtor$0@?0??AsyncExecuteComplete@Nan@@YAXPEAUuv_work_s@@@Z@4HA 0000000180030f10 f   w_key.obj
 0001:0002ff10       ?dtor$0@?0??WorkComplete@AsyncWorker@Nan@@UEAAXXZ@4HA 0000000180030f10 f   w_key.obj
 0001:0002ff1c       ?dtor$2@?0??AsyncExecuteComplete@Nan@@YAXPEAUuv_work_s@@@Z@4HA 0000000180030f1c f   w_key.obj
 0001:0002ff1c       ?dtor$2@?0??WorkComplete@AsyncWorker@Nan@@UEAAXXZ@4HA 0000000180030f1c f   w_key.obj
 0001:0002ff30       ?dtor$1@?0??New@WCore@@SAXAEBV?$FunctionCallbackInfo@VValue@v8@@@Nan@@@Z@4HA 0000000180030f30 f   w_core.obj
 0001:0002ff30       ?dtor$1@?0??New@WPbkdf2@@SAXAEBV?$FunctionCallbackInfo@VValue@v8@@@Nan@@@Z@4HA 0000000180030f30 f   w_pbkdf2.obj
 0001:0002ff30       ?dtor$0@?0??NewInstance@WKey@@SA?AV?$Local@VObject@v8@@@v8@@XZ@4HA 0000000180030f30 f   w_key.obj
 0001:0002ff30       ?dtor$0@?0??NewInstance@WAes@@SA?AV?$Local@VObject@v8@@@v8@@XZ@4HA 0000000180030f30 f   async_aes.obj
 0001:0002ff30       ?dtor$0@?0??NewInstance@WHmac@@SA?AV?$Local@VObject@v8@@@v8@@XZ@4HA 0000000180030f30 f   async_hmac.obj
 0001:0002ff30       ?dtor$1@?0??New@WHmac@@SAXAEBV?$FunctionCallbackInfo@VValue@v8@@@Nan@@@Z@4HA 0000000180030f30 f   w_hmac.obj
 0001:0002ff30       ?dtor$1@?0??New@WKey@@SAXAEBV?$FunctionCallbackInfo@VValue@v8@@@Nan@@@Z@4HA 0000000180030f30 f   w_key.obj
 0001:0002ff30       ?dtor$0@?0???$SetMethodAux@V?$Local@VFunction@v8@@@v8@@@imp@Nan@@YAXV?$Local@VFunction@v8@@@v8@@V?$Local@VString@v8@@@3@V?$Local@VFunctionTemplate@v8@@@3@ZZ@4HA 0000000180030f30 f   w_key.obj
 0001:0002ff30       ?dtor$1@?0??New@WAes@@SAXAEBV?$FunctionCallbackInfo@VValue@v8@@@Nan@@@Z@4HA 0000000180030f30 f   w_aes.obj
 0001:0002ff40       ?dtor$0@?0???0AsyncEncrypDecryptRsaOAEP@@QEAA@PEAVCallback@Nan@@V?$shared_ptr@V?$ScopedSSL@Uevp_pkey_st@@$1?ScopedEVP_PKEY_free@@YAXPEAX@Z@@@std@@PEBUenv_md_st@@V?$shared_ptr@V?$basic_string@DU?$char_traits@D@std@@V?$allocator@D@2@@std@@@4@3_N@Z@4HA 0000000180030f40 f   w_key.obj
 0001:0002ff4c       ?dtor$1@?0???0AsyncEncrypDecryptRsaOAEP@@QEAA@PEAVCallback@Nan@@V?$shared_ptr@V?$ScopedSSL@Uevp_pkey_st@@$1?ScopedEVP_PKEY_free@@YAXPEAX@Z@@@std@@PEBUenv_md_st@@V?$shared_ptr@V?$basic_string@DU?$char_traits@D@std@@V?$allocator@D@2@@std@@@4@3_N@Z@4HA 0000000180030f4c f   w_key.obj
 0001:0002ff58       ?dtor$2@?0???0AsyncEncrypDecryptRsaOAEP@@QEAA@PEAVCallback@Nan@@V?$shared_ptr@V?$ScopedSSL@Uevp_pkey_st@@$1?ScopedEVP_PKEY_free@@YAXPEAX@Z@@@std@@PEBUenv_md_st@@V?$shared_ptr@V?$basic_string@DU?$char_traits@D@std@@V?$allocator@D@2@@std@@@4@3_N@Z@4HA 0000000180030f58 f   w_key.obj
 0001:0002ff70       ?dtor$0@?0???0AsyncHmacVerify@@QEAA@PEAVCallback@Nan@@PEBUenv_md_st@@V?$shared_ptr@VScopedHMAC@@@std@@V?$shared_ptr@V?$basic_string@DU?$char_traits@D@std@@V?$allocator@D@2@@std@@@5@3@Z@4HA 0000000180030f70 f   w_hmac.obj
 0001:0002ff70       ?dtor$0@?0???0AsyncEcdsaVerify@@QEAA@PEAVCallback@Nan@@PEBUenv_md_st@@V?$shared_ptr@V?$ScopedSSL@Uevp_pkey_st@@$1?ScopedEVP_PKEY_free@@YAXPEAX@Z@@@std@@V?$shared_ptr@V?$basic_string@DU?$char_traits@D@std@@V?$allocator@D@2@@std@@@5@3@Z@4HA 0000000180030f70 f   w_key.obj
 0001:0002ff70       ?dtor$0@?0???0AsyncVerifyRsa@@QEAA@PEAVCallback@Nan@@PEBUenv_md_st@@V?$shared_ptr@V?$ScopedSSL@Uevp_pkey_st@@$1?ScopedEVP_PKEY_free@@YAXPEAX@Z@@@std@@V?$shared_ptr@V?$basic_string@DU?$char_traits@D@std@@V?$allocator@D@2@@std@@@5@3@Z@4HA 0000000180030f70 f   w_key.obj
 0001:0002ff7c       ?dtor$1@?0???0AsyncVerifyRsa@@QEAA@PEAVCallback@Nan@@PEBUenv_md_st@@V?$shared_ptr@V?$ScopedSSL@Uevp_pkey_st@@$1?ScopedEVP_PKEY_free@@YAXPEAX@Z@@@std@@V?$shared_ptr@V?$basic_string@DU?$char_traits@D@std@@V?$allocator@D@2@@std@@@5@3@Z@4HA 0000000180030f7c f   w_key.obj
 0001:0002ff7c       ?dtor$1@?0???0AsyncHmacVerify@@QEAA@PEAVCallback@Nan@@PEBUenv_md_st@@V?$shared_ptr@VScopedHMAC@@@std@@V?$shared_ptr@V?$basic_string@DU?$char_traits@D@std@@V?$allocator@D@2@@std@@@5@3@Z@4HA 0000000180030f7c f   w_hmac.obj
 0001:0002ff7c       ?dtor$1@?0???0AsyncEcdsaVerify@@QEAA@PEAVCallback@Nan@@PEBUenv_md_st@@V?$shared_ptr@V?$ScopedSSL@Uevp_pkey_st@@$1?ScopedEVP_PKEY_free@@YAXPEAX@Z@@@std@@V?$shared_ptr@V?$basic_string@DU?$char_traits@D@std@@V?$allocator@D@2@@std@@@5@3@Z@4HA 0000000180030f7c f   w_key.obj
 0001:0002ff88       ?dtor$2@?0???0AsyncVerifyRsa@@QEAA@PEAVCallback@Nan@@PEBUenv_md_st@@V?$shared_ptr@V?$ScopedSSL@Uevp_pkey_st@@$1?ScopedEVP_PKEY_free@@YAXPEAX@Z@@@std@@V?$shared_ptr@V?$basic_string@DU?$char_traits@D@std@@V?$allocator@D@2@@std@@@5@3@Z@4HA 0000000180030f88 f   w_key.obj
 0001:0002ff88       ?dtor$2@?0???0AsyncHmacVerify@@QEAA@PEAVCallback@Nan@@PEBUenv_md_st@@V?$shared_ptr@VScopedHMAC@@@std@@V?$shared_ptr@V?$basic_string@DU?$char_traits@D@std@@V?$allocator@D@2@@std@@@5@3@Z@4HA 0000000180030f88 f   w_hmac.obj
 0001:0002ff88       ?dtor$2@?0???0AsyncEcdsaVerify@@QEAA@PEAVCallback@Nan@@PEBUenv_md_st@@V?$shared_ptr@V?$ScopedSSL@Uevp_pkey_st@@$1?ScopedEVP_PKEY_free@@YAXPEAX@Z@@@std@@V?$shared_ptr@V?$basic_string@DU?$char_traits@D@std@@V?$allocator@D@2@@std@@@5@3@Z@4HA 0000000180030f88 f   w_key.obj
 0001:0002ffa0       ?dtor$0@?0???0AsyncVerifyRsaPSS@@QEAA@PEAVCallback@Nan@@PEBUenv_md_st@@V?$shared_ptr@V?$ScopedSSL@Uevp_pkey_st@@$1?ScopedEVP_PKEY_free@@YAXPEAX@Z@@@std@@HV?$shared_ptr@V?$basic_string@DU?$char_traits@D@std@@V?$allocator@D@2@@std@@@5@3@Z@4HA 0000000180030fa0 f   w_key.obj
 0001:0002ffac       ?dtor$1@?0???0AsyncVerifyRsaPSS@@QEAA@PEAVCallback@Nan@@PEBUenv_md_st@@V?$shared_ptr@V?$ScopedSSL@Uevp_pkey_st@@$1?ScopedEVP_PKEY_free@@YAXPEAX@Z@@@std@@HV?$shared_ptr@V?$basic_string@DU?$char_traits@D@std@@V?$allocator@D@2@@std@@@5@3@Z@4HA 0000000180030fac f   w_key.obj
 0001:0002ffb8       ?dtor$2@?0???0AsyncVerifyRsaPSS@@QEAA@PEAVCallback@Nan@@PEBUenv_md_st@@V?$shared_ptr@V?$ScopedSSL@Uevp_pkey_st@@$1?ScopedEVP_PKEY_free@@YAXPEAX@Z@@@std@@HV?$shared_ptr@V?$basic_string@DU?$char_traits@D@std@@V?$allocator@D@2@@std@@@5@3@Z@4HA 0000000180030fb8 f   w_key.obj
 0001:0002ffd0       ?dtor$0@?0??Init@WKey@@SAXV?$Local@VObject@v8@@@v8@@@Z@4HA 0000000180030fd0 f   w_key.obj
 0001:0002ffdc       ?dtor$3@?0??Init@WKey@@SAXV?$Local@VObject@v8@@@v8@@@Z@4HA 0000000180030fdc f   w_key.obj
 0001:0002ffe8       ?dtor$5@?0??Init@WKey@@SAXV?$Local@VObject@v8@@@v8@@@Z@4HA 0000000180030fe8 f   w_key.obj
 0001:0002fff6       ?dtor$8@?0??Init@WKey@@SAXV?$Local@VObject@v8@@@v8@@@Z@4HA 0000000180030ff6 f   w_key.obj
 0001:00030004       ?dtor$10@?0??Init@WKey@@SAXV?$Local@VObject@v8@@@v8@@@Z@4HA 0000000180031004 f   w_key.obj
 0001:00030010       ?dtor$13@?0??Init@WKey@@SAXV?$Local@VObject@v8@@@v8@@@Z@4HA 0000000180031010 f   w_key.obj
 0001:0003001c       ?dtor$16@?0??Init@WKey@@SAXV?$Local@VObject@v8@@@v8@@@Z@4HA 000000018003101c f   w_key.obj
 0001:00030028       ?dtor$19@?0??Init@WKey@@SAXV?$Local@VObject@v8@@@v8@@@Z@4HA 0000000180031028 f   w_key.obj
 0001:00030034       ?dtor$22@?0??Init@WKey@@SAXV?$Local@VObject@v8@@@v8@@@Z@4HA 0000000180031034 f   w_key.obj
 0001:00030040       ?dtor$2@?0??GenerateRsa@WKey@@SAXAEBV?$FunctionCallbackInfo@VValue@v8@@@Nan@@@Z@4HA 0000000180031040 f   w_key.obj
 0001:0003004e       ?dtor$3@?0??GenerateRsa@WKey@@SAXAEBV?$FunctionCallbackInfo@VValue@v8@@@Nan@@@Z@4HA 000000018003104e f   w_key.obj
 0001:0003005c       ?dtor$0@?0??GenerateRsa@WKey@@SAXAEBV?$FunctionCallbackInfo@VValue@v8@@@Nan@@@Z@4HA 000000018003105c f   w_key.obj
 0001:00030079       ?dtor$1@?0??GenerateRsa@WKey@@SAXAEBV?$FunctionCallbackInfo@VValue@v8@@@Nan@@@Z@4HA 0000000180031079 f   w_key.obj
 0001:000300a0       ?dtor$2@?0??GenerateEc@WKey@@SAXAEBV?$FunctionCallbackInfo@VValue@v8@@@Nan@@@Z@4HA 00000001800310a0 f   w_key.obj
 0001:000300a0       ?dtor$2@?0??Generate@WAes@@SAXAEBV?$FunctionCallbackInfo@VValue@v8@@@Nan@@@Z@4HA 00000001800310a0 f   w_aes.obj
 0001:000300a0       ?dtor$2@?0??Generate@WHmac@@SAXAEBV?$FunctionCallbackInfo@VValue@v8@@@Nan@@@Z@4HA 00000001800310a0 f   w_hmac.obj
 0001:000300ae       ?dtor$0@?0??Generate@WAes@@SAXAEBV?$FunctionCallbackInfo@VValue@v8@@@Nan@@@Z@4HA 00000001800310ae f   w_aes.obj
 0001:000300ae       ?dtor$0@?0??Generate@WHmac@@SAXAEBV?$FunctionCallbackInfo@VValue@v8@@@Nan@@@Z@4HA 00000001800310ae f   w_hmac.obj
 0001:000300ae       ?dtor$0@?0??GenerateEc@WKey@@SAXAEBV?$FunctionCallbackInfo@VValue@v8@@@Nan@@@Z@4HA 00000001800310ae f   w_key.obj
 0001:000300cb       ?dtor$1@?0??Generate@WAes@@SAXAEBV?$FunctionCallbackInfo@VValue@v8@@@Nan@@@Z@4HA 00000001800310cb f   w_aes.obj
 0001:000300cb       ?dtor$1@?0??Generate@WHmac@@SAXAEBV?$FunctionCallbackInfo@VValue@v8@@@Nan@@@Z@4HA 00000001800310cb f   w_hmac.obj
 0001:000300cb       ?dtor$1@?0??GenerateEc@WKey@@SAXAEBV?$FunctionCallbackInfo@VValue@v8@@@Nan@@@Z@4HA 00000001800310cb f   w_key.obj
 0001:000300f0       ?dtor$9@?0??ExportJwk@WKey@@SAXAEBV?$FunctionCallbackInfo@VValue@v8@@@Nan@@@Z@4HA 00000001800310f0 f   w_key.obj
 0001:000300fe       ?dtor$10@?0??ExportJwk@WKey@@SAXAEBV?$FunctionCallbackInfo@VValue@v8@@@Nan@@@Z@4HA 00000001800310fe f   w_key.obj
 0001:0003010c       ?dtor$12@?0??ExportJwk@WKey@@SAXAEBV?$FunctionCallbackInfo@VValue@v8@@@Nan@@@Z@4HA 000000018003110c f   w_key.obj
 0001:0003011a       ?dtor$0@?0??ExportJwk@WKey@@SAXAEBV?$FunctionCallbackInfo@VValue@v8@@@Nan@@@Z@4HA 000000018003111a f   w_key.obj
 0001:0003013a       ?dtor$1@?0??ExportJwk@WKey@@SAXAEBV?$FunctionCallbackInfo@VValue@v8@@@Nan@@@Z@4HA 000000018003113a f   w_key.obj
 0001:0003015a       ?dtor$16@?0??ExportJwk@WKey@@SAXAEBV?$FunctionCallbackInfo@VValue@v8@@@Nan@@@Z@4HA 000000018003115a f   w_key.obj
 0001:00030166       ?dtor$4@?0??ExportJwk@WKey@@SAXAEBV?$FunctionCallbackInfo@VValue@v8@@@Nan@@@Z@4HA 0000000180031166 f   w_key.obj
 0001:00030172       ?dtor$20@?0??ExportJwk@WKey@@SAXAEBV?$FunctionCallbackInfo@VValue@v8@@@Nan@@@Z@4HA 0000000180031172 f   w_key.obj
 0001:00030180       ?dtor$21@?0??ExportJwk@WKey@@SAXAEBV?$FunctionCallbackInfo@VValue@v8@@@Nan@@@Z@4HA 0000000180031180 f   w_key.obj
 0001:0003018e       ?dtor$22@?0??ExportJwk@WKey@@SAXAEBV?$FunctionCallbackInfo@VValue@v8@@@Nan@@@Z@4HA 000000018003118e f   w_key.obj
 0001:0003019c       ?dtor$5@?0??ExportJwk@WKey@@SAXAEBV?$FunctionCallbackInfo@VValue@v8@@@Nan@@@Z@4HA 000000018003119c f   w_key.obj
 0001:000301bc       ?dtor$23@?0??ExportJwk@WKey@@SAXAEBV?$FunctionCallbackInfo@VValue@v8@@@Nan@@@Z@4HA 00000001800311bc f   w_key.obj
 0001:000301c8       ?dtor$8@?0??ExportJwk@WKey@@SAXAEBV?$FunctionCallbackInfo@VValue@v8@@@Nan@@@Z@4HA 00000001800311c8 f   w_key.obj
 0001:000301e0       ?dtor$0@?0??Export@WAes@@SAXAEBV?$FunctionCallbackInfo@VValue@v8@@@Nan@@@Z@4HA 00000001800311e0 f   w_aes.obj
 0001:000301e0       ?dtor$0@?0??ExportPkcs8@WKey@@SAXAEBV?$FunctionCallbackInfo@VValue@v8@@@Nan@@@Z@4HA 00000001800311e0 f   w_key.obj
 0001:000301e0       ?dtor$0@?0??Export@WHmac@@SAXAEBV?$FunctionCallbackInfo@VValue@v8@@@Nan@@@Z@4HA 00000001800311e0 f   w_hmac.obj
 0001:000301e0       ?dtor$0@?0??ExportSpki@WKey@@SAXAEBV?$FunctionCallbackInfo@VValue@v8@@@Nan@@@Z@4HA 00000001800311e0 f   w_key.obj
 0001:000301fd       ?dtor$1@?0??Export@WAes@@SAXAEBV?$FunctionCallbackInfo@VValue@v8@@@Nan@@@Z@4HA 00000001800311fd f   w_aes.obj
 0001:000301fd       ?dtor$1@?0??ExportPkcs8@WKey@@SAXAEBV?$FunctionCallbackInfo@VValue@v8@@@Nan@@@Z@4HA 00000001800311fd f   w_key.obj
 0001:000301fd       ?dtor$1@?0??Export@WHmac@@SAXAEBV?$FunctionCallbackInfo@VValue@v8@@@Nan@@@Z@4HA 00000001800311fd f   w_hmac.obj
 0001:000301fd       ?dtor$1@?0??ExportSpki@WKey@@SAXAEBV?$FunctionCallbackInfo@VValue@v8@@@Nan@@@Z@4HA 00000001800311fd f   w_key.obj
 0001:0003021a       ?dtor$5@?0??ExportSpki@WKey@@SAXAEBV?$FunctionCallbackInfo@VValue@v8@@@Nan@@@Z@4HA 000000018003121a f   w_key.obj
 0001:0003021a       ?dtor$5@?0??Export@WHmac@@SAXAEBV?$FunctionCallbackInfo@VValue@v8@@@Nan@@@Z@4HA 000000018003121a f   w_hmac.obj
 0001:0003021a       ?dtor$5@?0??ExportPkcs8@WKey@@SAXAEBV?$FunctionCallbackInfo@VValue@v8@@@Nan@@@Z@4HA 000000018003121a f   w_key.obj
 0001:0003021a       ?dtor$5@?0??Export@WAes@@SAXAEBV?$FunctionCallbackInfo@VValue@v8@@@Nan@@@Z@4HA 000000018003121a f   w_aes.obj
 0001:00030230       ?dtor$0@?0??ImportPkcs8@WKey@@SAXAEBV?$FunctionCallbackInfo@VValue@v8@@@Nan@@@Z@4HA 0000000180031230 f   w_key.obj
 0001:00030230       ?dtor$0@?0??ImportSpki@WKey@@SAXAEBV?$FunctionCallbackInfo@VValue@v8@@@Nan@@@Z@4HA 0000000180031230 f   w_key.obj
 0001:00030230       ?dtor$0@?0??Import@WHmac@@SAXAEBV?$FunctionCallbackInfo@VValue@v8@@@Nan@@@Z@4HA 0000000180031230 f   w_hmac.obj
 0001:00030230       ?dtor$0@?0??ImportKey@WPbkdf2@@SAXAEBV?$FunctionCallbackInfo@VValue@v8@@@Nan@@@Z@4HA 0000000180031230 f   w_pbkdf2.obj
 0001:00030230       ?dtor$0@?0??Import@WAes@@SAXAEBV?$FunctionCallbackInfo@VValue@v8@@@Nan@@@Z@4HA 0000000180031230 f   w_aes.obj
 0001:0003023c       ?dtor$1@?0??ImportSpki@WKey@@SAXAEBV?$FunctionCallbackInfo@VValue@v8@@@Nan@@@Z@4HA 000000018003123c f   w_key.obj
 0001:0003023c       ?dtor$1@?0??ImportKey@WPbkdf2@@SAXAEBV?$FunctionCallbackInfo@VValue@v8@@@Nan@@@Z@4HA 000000018003123c f   w_pbkdf2.obj
 0001:0003023c       ?dtor$1@?0??Import@WAes@@SAXAEBV?$FunctionCallbackInfo@VValue@v8@@@Nan@@@Z@4HA 000000018003123c f   w_aes.obj
 0001:0003023c       ?dtor$1@?0??Import@WHmac@@SAXAEBV?$FunctionCallbackInfo@VValue@v8@@@Nan@@@Z@4HA 000000018003123c f   w_hmac.obj
 0001:0003023c       ?dtor$1@?0??ImportPkcs8@WKey@@SAXAEBV?$FunctionCallbackInfo@VValue@v8@@@Nan@@@Z@4HA 000000018003123c f   w_key.obj
 0001:00030259       ?dtor$2@?0??ImportSpki@WKey@@SAXAEBV?$FunctionCallbackInfo@VValue@v8@@@Nan@@@Z@4HA 0000000180031259 f   w_key.obj
 0001:00030259       ?dtor$2@?0??Import@WAes@@SAXAEBV?$FunctionCallbackInfo@VValue@v8@@@Nan@@@Z@4HA 0000000180031259 f   w_aes.obj
 0001:00030259       ?dtor$2@?0??ImportKey@WPbkdf2@@SAXAEBV?$FunctionCallbackInfo@VValue@v8@@@Nan@@@Z@4HA 0000000180031259 f   w_pbkdf2.obj
 0001:00030259       ?dtor$2@?0??Import@WHmac@@SAXAEBV?$FunctionCallbackInfo@VValue@v8@@@Nan@@@Z@4HA 0000000180031259 f   w_hmac.obj
 0001:00030259       ?dtor$2@?0??ImportPkcs8@WKey@@SAXAEBV?$FunctionCallbackInfo@VValue@v8@@@Nan@@@Z@4HA 0000000180031259 f   w_key.obj
 0001:00030276       ?dtor$6@?0??Import@WAes@@SAXAEBV?$FunctionCallbackInfo@VValue@v8@@@Nan@@@Z@4HA 0000000180031276 f   w_aes.obj
 0001:00030276       ?dtor$6@?0??ImportKey@WPbkdf2@@SAXAEBV?$FunctionCallbackInfo@VValue@v8@@@Nan@@@Z@4HA 0000000180031276 f   w_pbkdf2.obj
 0001:00030276       ?dtor$6@?0??ImportSpki@WKey@@SAXAEBV?$FunctionCallbackInfo@VValue@v8@@@Nan@@@Z@4HA 0000000180031276 f   w_key.obj
 0001:00030276       ?dtor$6@?0??Import@WHmac@@SAXAEBV?$FunctionCallbackInfo@VValue@v8@@@Nan@@@Z@4HA 0000000180031276 f   w_hmac.obj
 0001:00030276       ?dtor$6@?0??ImportPkcs8@WKey@@SAXAEBV?$FunctionCallbackInfo@VValue@v8@@@Nan@@@Z@4HA 0000000180031276 f   w_key.obj
 0001:00030290       ?dtor$12@?0??ImportJwk@WKey@@SAXAEBV?$FunctionCallbackInfo@VValue@v8@@@Nan@@@Z@4HA 0000000180031290 f   w_key.obj
 0001:0003029e       ?dtor$13@?0??ImportJwk@WKey@@SAXAEBV?$FunctionCallbackInfo@VValue@v8@@@Nan@@@Z@4HA 000000018003129e f   w_key.obj
 0001:000302ac       ?dtor$0@?0??ImportJwk@WKey@@SAXAEBV?$FunctionCallbackInfo@VValue@v8@@@Nan@@@Z@4HA 00000001800312ac f   w_key.obj
 0001:000302ba       ?dtor$15@?0??ImportJwk@WKey@@SAXAEBV?$FunctionCallbackInfo@VValue@v8@@@Nan@@@Z@4HA 00000001800312ba f   w_key.obj
 0001:000302c8       ?dtor$17@?0??ImportJwk@WKey@@SAXAEBV?$FunctionCallbackInfo@VValue@v8@@@Nan@@@Z@4HA 00000001800312c8 f   w_key.obj
 0001:000302d6       ?dtor$1@?0??ImportJwk@WKey@@SAXAEBV?$FunctionCallbackInfo@VValue@v8@@@Nan@@@Z@4HA 00000001800312d6 f   w_key.obj
 0001:000302f3       ?dtor$3@?0??ImportJwk@WKey@@SAXAEBV?$FunctionCallbackInfo@VValue@v8@@@Nan@@@Z@4HA 00000001800312f3 f   w_key.obj
 0001:000302ff       ?dtor$22@?0??ImportJwk@WKey@@SAXAEBV?$FunctionCallbackInfo@VValue@v8@@@Nan@@@Z@4HA 00000001800312ff f   w_key.obj
 0001:0003030d       ?dtor$24@?0??ImportJwk@WKey@@SAXAEBV?$FunctionCallbackInfo@VValue@v8@@@Nan@@@Z@4HA 000000018003130d f   w_key.obj
 0001:0003031b       ?dtor$26@?0??ImportJwk@WKey@@SAXAEBV?$FunctionCallbackInfo@VValue@v8@@@Nan@@@Z@4HA 000000018003131b f   w_key.obj
 0001:00030329       ?dtor$28@?0??ImportJwk@WKey@@SAXAEBV?$FunctionCallbackInfo@VValue@v8@@@Nan@@@Z@4HA 0000000180031329 f   w_key.obj
 0001:00030337       ?dtor$30@?0??ImportJwk@WKey@@SAXAEBV?$FunctionCallbackInfo@VValue@v8@@@Nan@@@Z@4HA 0000000180031337 f   w_key.obj
 0001:00030345       ?dtor$32@?0??ImportJwk@WKey@@SAXAEBV?$FunctionCallbackInfo@VValue@v8@@@Nan@@@Z@4HA 0000000180031345 f   w_key.obj
 0001:00030353       ?dtor$34@?0??ImportJwk@WKey@@SAXAEBV?$FunctionCallbackInfo@VValue@v8@@@Nan@@@Z@4HA 0000000180031353 f   w_key.obj
 0001:00030361       ?dtor$36@?0??ImportJwk@WKey@@SAXAEBV?$FunctionCallbackInfo@VValue@v8@@@Nan@@@Z@4HA 0000000180031361 f   w_key.obj
 0001:0003036f       ?dtor$38@?0??ImportJwk@WKey@@SAXAEBV?$FunctionCallbackInfo@VValue@v8@@@Nan@@@Z@4HA 000000018003136f f   w_key.obj
 0001:0003037d       ?dtor$40@?0??ImportJwk@WKey@@SAXAEBV?$FunctionCallbackInfo@VValue@v8@@@Nan@@@Z@4HA 000000018003137d f   w_key.obj
 0001:0003038b       ?dtor$42@?0??ImportJwk@WKey@@SAXAEBV?$FunctionCallbackInfo@VValue@v8@@@Nan@@@Z@4HA 000000018003138b f   w_key.obj
 0001:00030399       ?dtor$44@?0??ImportJwk@WKey@@SAXAEBV?$FunctionCallbackInfo@VValue@v8@@@Nan@@@Z@4HA 0000000180031399 f   w_key.obj
 0001:000303a7       ?dtor$46@?0??ImportJwk@WKey@@SAXAEBV?$FunctionCallbackInfo@VValue@v8@@@Nan@@@Z@4HA 00000001800313a7 f   w_key.obj
 0001:000303b5       ?dtor$48@?0??ImportJwk@WKey@@SAXAEBV?$FunctionCallbackInfo@VValue@v8@@@Nan@@@Z@4HA 00000001800313b5 f   w_key.obj
 0001:000303c3       ?dtor$50@?0??ImportJwk@WKey@@SAXAEBV?$FunctionCallbackInfo@VValue@v8@@@Nan@@@Z@4HA 00000001800313c3 f   w_key.obj
 0001:000303d1       ?dtor$52@?0??ImportJwk@WKey@@SAXAEBV?$FunctionCallbackInfo@VValue@v8@@@Nan@@@Z@4HA 00000001800313d1 f   w_key.obj
 0001:000303df       ?dtor$4@?0??ImportJwk@WKey@@SAXAEBV?$FunctionCallbackInfo@VValue@v8@@@Nan@@@Z@4HA 00000001800313df f   w_key.obj
 0001:000303ff       ?dtor$54@?0??ImportJwk@WKey@@SAXAEBV?$FunctionCallbackInfo@VValue@v8@@@Nan@@@Z@4HA 00000001800313ff f   w_key.obj
 0001:0003040b       ?dtor$6@?0??ImportJwk@WKey@@SAXAEBV?$FunctionCallbackInfo@VValue@v8@@@Nan@@@Z@4HA 000000018003140b f   w_key.obj
 0001:00030417       ?dtor$8@?0??ImportJwk@WKey@@SAXAEBV?$FunctionCallbackInfo@VValue@v8@@@Nan@@@Z@4HA 0000000180031417 f   w_key.obj
 0001:00030423       ?dtor$59@?0??ImportJwk@WKey@@SAXAEBV?$FunctionCallbackInfo@VValue@v8@@@Nan@@@Z@4HA 0000000180031423 f   w_key.obj
 0001:00030431       ?dtor$61@?0??ImportJwk@WKey@@SAXAEBV?$FunctionCallbackInfo@VValue@v8@@@Nan@@@Z@4HA 0000000180031431 f   w_key.obj
 0001:0003043f       ?dtor$63@?0??ImportJwk@WKey@@SAXAEBV?$FunctionCallbackInfo@VValue@v8@@@Nan@@@Z@4HA 000000018003143f f   w_key.obj
 0001:0003044d       ?dtor$65@?0??ImportJwk@WKey@@SAXAEBV?$FunctionCallbackInfo@VValue@v8@@@Nan@@@Z@4HA 000000018003144d f   w_key.obj
 0001:0003045b       ?dtor$67@?0??ImportJwk@WKey@@SAXAEBV?$FunctionCallbackInfo@VValue@v8@@@Nan@@@Z@4HA 000000018003145b f   w_key.obj
 0001:00030469       ?dtor$69@?0??ImportJwk@WKey@@SAXAEBV?$FunctionCallbackInfo@VValue@v8@@@Nan@@@Z@4HA 0000000180031469 f   w_key.obj
 0001:00030477       ?dtor$9@?0??ImportJwk@WKey@@SAXAEBV?$FunctionCallbackInfo@VValue@v8@@@Nan@@@Z@4HA 0000000180031477 f   w_key.obj
 0001:00030497       ?dtor$70@?0??ImportJwk@WKey@@SAXAEBV?$FunctionCallbackInfo@VValue@v8@@@Nan@@@Z@4HA 0000000180031497 f   w_key.obj
 0001:000304a3       ?dtor$11@?0??ImportJwk@WKey@@SAXAEBV?$FunctionCallbackInfo@VValue@v8@@@Nan@@@Z@4HA 00000001800314a3 f   w_key.obj
 0001:000304b0       ?dtor$0@?0??Sign@WKey@@SAXAEBV?$FunctionCallbackInfo@VValue@v8@@@Nan@@@Z@4HA 00000001800314b0 f   w_key.obj
 0001:000304be       ?dtor$1@?0??Sign@WKey@@SAXAEBV?$FunctionCallbackInfo@VValue@v8@@@Nan@@@Z@4HA 00000001800314be f   w_key.obj
 0001:000304ca       ?dtor$2@?0??Sign@WKey@@SAXAEBV?$FunctionCallbackInfo@VValue@v8@@@Nan@@@Z@4HA 00000001800314ca f   w_key.obj
 0001:000304d6       ?dtor$10@?0??Sign@WKey@@SAXAEBV?$FunctionCallbackInfo@VValue@v8@@@Nan@@@Z@4HA 00000001800314d6 f   w_key.obj
 0001:000304e4       ?dtor$12@?0??Sign@WKey@@SAXAEBV?$FunctionCallbackInfo@VValue@v8@@@Nan@@@Z@4HA 00000001800314e4 f   w_key.obj
 0001:000304f2       ?dtor$3@?0??Sign@WKey@@SAXAEBV?$FunctionCallbackInfo@VValue@v8@@@Nan@@@Z@4HA 00000001800314f2 f   w_key.obj
 0001:0003050f       ?dtor$4@?0??Sign@WKey@@SAXAEBV?$FunctionCallbackInfo@VValue@v8@@@Nan@@@Z@4HA 000000018003150f f   w_key.obj
 0001:0003052f       ?dtor$16@?0??Sign@WKey@@SAXAEBV?$FunctionCallbackInfo@VValue@v8@@@Nan@@@Z@4HA 000000018003152f f   w_key.obj
 0001:0003053b       ?dtor$17@?0??Sign@WKey@@SAXAEBV?$FunctionCallbackInfo@VValue@v8@@@Nan@@@Z@4HA 000000018003153b f   w_key.obj
 0001:00030547       ?dtor$7@?0??Sign@WKey@@SAXAEBV?$FunctionCallbackInfo@VValue@v8@@@Nan@@@Z@4HA 0000000180031547 f   w_key.obj
 0001:00030564       ?dtor$22@?0??Sign@WKey@@SAXAEBV?$FunctionCallbackInfo@VValue@v8@@@Nan@@@Z@4HA 0000000180031564 f   w_key.obj
 0001:00030570       ?dtor$23@?0??Sign@WKey@@SAXAEBV?$FunctionCallbackInfo@VValue@v8@@@Nan@@@Z@4HA 0000000180031570 f   w_key.obj
 0001:00030580       ?dtor$0@?0??Verify@WKey@@SAXAEBV?$FunctionCallbackInfo@VValue@v8@@@Nan@@@Z@4HA 0000000180031580 f   w_key.obj
 0001:0003058e       ?dtor$1@?0??Verify@WKey@@SAXAEBV?$FunctionCallbackInfo@VValue@v8@@@Nan@@@Z@4HA 000000018003158e f   w_key.obj
 0001:0003059a       ?dtor$2@?0??Verify@WKey@@SAXAEBV?$FunctionCallbackInfo@VValue@v8@@@Nan@@@Z@4HA 000000018003159a f   w_key.obj
 0001:000305a6       ?dtor$3@?0??Verify@WKey@@SAXAEBV?$FunctionCallbackInfo@VValue@v8@@@Nan@@@Z@4HA 00000001800315a6 f   w_key.obj
 0001:000305b2       ?dtor$13@?0??Verify@WKey@@SAXAEBV?$FunctionCallbackInfo@VValue@v8@@@Nan@@@Z@4HA 00000001800315b2 f   w_key.obj
 0001:000305c0       ?dtor$15@?0??Verify@WKey@@SAXAEBV?$FunctionCallbackInfo@VValue@v8@@@Nan@@@Z@4HA 00000001800315c0 f   w_key.obj
 0001:000305ce       ?dtor$4@?0??Verify@WKey@@SAXAEBV?$FunctionCallbackInfo@VValue@v8@@@Nan@@@Z@4HA 00000001800315ce f   w_key.obj
 0001:000305eb       ?dtor$5@?0??Verify@WKey@@SAXAEBV?$FunctionCallbackInfo@VValue@v8@@@Nan@@@Z@4HA 00000001800315eb f   w_key.obj
 0001:00030608       ?dtor$9@?0??Verify@WKey@@SAXAEBV?$FunctionCallbackInfo@VValue@v8@@@Nan@@@Z@4HA 0000000180031608 f   w_key.obj
 0001:00030630       ?dtor$0@?0??RsaOaepEncDec@WKey@@SAXAEBV?$FunctionCallbackInfo@VValue@v8@@@Nan@@@Z@4HA 0000000180031630 f   w_key.obj
 0001:0003063e       ?dtor$1@?0??RsaOaepEncDec@WKey@@SAXAEBV?$FunctionCallbackInfo@VValue@v8@@@Nan@@@Z@4HA 000000018003163e f   w_key.obj
 0001:0003064a       ?dtor$2@?0??RsaOaepEncDec@WKey@@SAXAEBV?$FunctionCallbackInfo@VValue@v8@@@Nan@@@Z@4HA 000000018003164a f   w_key.obj
 0001:00030656       ?dtor$4@?0??RsaOaepEncDec@WKey@@SAXAEBV?$FunctionCallbackInfo@VValue@v8@@@Nan@@@Z@4HA 0000000180031656 f   w_key.obj
 0001:00030662       ?dtor$5@?0??RsaOaepEncDec@WKey@@SAXAEBV?$FunctionCallbackInfo@VValue@v8@@@Nan@@@Z@4HA 0000000180031662 f   w_key.obj
 0001:0003067f       ?dtor$6@?0??RsaOaepEncDec@WKey@@SAXAEBV?$FunctionCallbackInfo@VValue@v8@@@Nan@@@Z@4HA 000000018003167f f   w_key.obj
 0001:000306a0       ?dtor$0@?0??RsaPssSign@WKey@@SAXAEBV?$FunctionCallbackInfo@VValue@v8@@@Nan@@@Z@4HA 00000001800316a0 f   w_key.obj
 0001:000306ae       ?dtor$7@?0??RsaPssSign@WKey@@SAXAEBV?$FunctionCallbackInfo@VValue@v8@@@Nan@@@Z@4HA 00000001800316ae f   w_key.obj
 0001:000306bc       ?dtor$1@?0??RsaPssSign@WKey@@SAXAEBV?$FunctionCallbackInfo@VValue@v8@@@Nan@@@Z@4HA 00000001800316bc f   w_key.obj
 0001:000306c8       ?dtor$2@?0??RsaPssSign@WKey@@SAXAEBV?$FunctionCallbackInfo@VValue@v8@@@Nan@@@Z@4HA 00000001800316c8 f   w_key.obj
 0001:000306d4       ?dtor$3@?0??RsaPssSign@WKey@@SAXAEBV?$FunctionCallbackInfo@VValue@v8@@@Nan@@@Z@4HA 00000001800316d4 f   w_key.obj
 0001:000306f1       ?dtor$4@?0??RsaPssSign@WKey@@SAXAEBV?$FunctionCallbackInfo@VValue@v8@@@Nan@@@Z@4HA 00000001800316f1 f   w_key.obj
 0001:0003070e       ?dtor$10@?0??RsaPssSign@WKey@@SAXAEBV?$FunctionCallbackInfo@VValue@v8@@@Nan@@@Z@4HA 000000018003170e f   w_key.obj
 0001:0003071a       ?dtor$11@?0??RsaPssSign@WKey@@SAXAEBV?$FunctionCallbackInfo@VValue@v8@@@Nan@@@Z@4HA 000000018003171a f   w_key.obj
 0001:00030730       ?dtor$0@?0??RsaPssVerify@WKey@@SAXAEBV?$FunctionCallbackInfo@VValue@v8@@@Nan@@@Z@4HA 0000000180031730 f   w_key.obj
 0001:0003073e       ?dtor$9@?0??RsaPssVerify@WKey@@SAXAEBV?$FunctionCallbackInfo@VValue@v8@@@Nan@@@Z@4HA 000000018003173e f   w_key.obj
 0001:0003074c       ?dtor$1@?0??RsaPssVerify@WKey@@SAXAEBV?$FunctionCallbackInfo@VValue@v8@@@Nan@@@Z@4HA 000000018003174c f   w_key.obj
 0001:00030758       ?dtor$2@?0??RsaPssVerify@WKey@@SAXAEBV?$FunctionCallbackInfo@VValue@v8@@@Nan@@@Z@4HA 0000000180031758 f   w_key.obj
 0001:00030764       ?dtor$3@?0??RsaPssVerify@WKey@@SAXAEBV?$FunctionCallbackInfo@VValue@v8@@@Nan@@@Z@4HA 0000000180031764 f   w_key.obj
 0001:00030770       ?dtor$4@?0??RsaPssVerify@WKey@@SAXAEBV?$FunctionCallbackInfo@VValue@v8@@@Nan@@@Z@4HA 0000000180031770 f   w_key.obj
 0001:0003078d       ?dtor$5@?0??RsaPssVerify@WKey@@SAXAEBV?$FunctionCallbackInfo@VValue@v8@@@Nan@@@Z@4HA 000000018003178d f   w_key.obj
 0001:000307b0       ?dtor$0@?0??EcdhDeriveKey@WKey@@SAXAEBV?$FunctionCallbackInfo@VValue@v8@@@Nan@@@Z@4HA 00000001800317b0 f   w_key.obj
 0001:000307b0       ?dtor$0@?0??EcdhDeriveBits@WKey@@SAXAEBV?$FunctionCallbackInfo@VValue@v8@@@Nan@@@Z@4HA 00000001800317b0 f   w_key.obj
 0001:000307bc       ?dtor$6@?0??EcdhDeriveBits@WKey@@SAXAEBV?$FunctionCallbackInfo@VValue@v8@@@Nan@@@Z@4HA 00000001800317bc f   w_key.obj
 0001:000307bc       ?dtor$6@?0??EcdhDeriveKey@WKey@@SAXAEBV?$FunctionCallbackInfo@VValue@v8@@@Nan@@@Z@4HA 00000001800317bc f   w_key.obj
 0001:000307ca       ?dtor$1@?0??EcdhDeriveKey@WKey@@SAXAEBV?$FunctionCallbackInfo@VValue@v8@@@Nan@@@Z@4HA 00000001800317ca f   w_key.obj
 0001:000307ca       ?dtor$1@?0??EcdhDeriveBits@WKey@@SAXAEBV?$FunctionCallbackInfo@VValue@v8@@@Nan@@@Z@4HA 00000001800317ca f   w_key.obj
 0001:000307d6       ?dtor$2@?0??EcdhDeriveBits@WKey@@SAXAEBV?$FunctionCallbackInfo@VValue@v8@@@Nan@@@Z@4HA 00000001800317d6 f   w_key.obj
 0001:000307d6       ?dtor$2@?0??EcdhDeriveKey@WKey@@SAXAEBV?$FunctionCallbackInfo@VValue@v8@@@Nan@@@Z@4HA 00000001800317d6 f   w_key.obj
 0001:000307f3       ?dtor$3@?0??EcdhDeriveKey@WKey@@SAXAEBV?$FunctionCallbackInfo@VValue@v8@@@Nan@@@Z@4HA 00000001800317f3 f   w_key.obj
 0001:000307f3       ?dtor$3@?0??EcdhDeriveBits@WKey@@SAXAEBV?$FunctionCallbackInfo@VValue@v8@@@Nan@@@Z@4HA 00000001800317f3 f   w_key.obj
 0001:00030810       ?dtor$9@?0??EcdhDeriveKey@WKey@@SAXAEBV?$FunctionCallbackInfo@VValue@v8@@@Nan@@@Z@4HA 0000000180031810 f   w_key.obj
 0001:00030810       ?dtor$9@?0??EcdhDeriveBits@WKey@@SAXAEBV?$FunctionCallbackInfo@VValue@v8@@@Nan@@@Z@4HA 0000000180031810 f   w_key.obj
 0001:0003081c       ?dtor$10@?0??EcdhDeriveBits@WKey@@SAXAEBV?$FunctionCallbackInfo@VValue@v8@@@Nan@@@Z@4HA 000000018003181c f   w_key.obj
 0001:0003081c       ?dtor$10@?0??EcdhDeriveKey@WKey@@SAXAEBV?$FunctionCallbackInfo@VValue@v8@@@Nan@@@Z@4HA 000000018003181c f   w_key.obj
 0001:00030830       ?dtor$0@?0???0AsyncAesEncryptCBC@@QEAA@PEAVCallback@Nan@@V?$shared_ptr@VScopedAES@@@std@@V?$shared_ptr@V?$basic_string@DU?$char_traits@D@std@@V?$allocator@D@2@@std@@@4@2_N@Z@4HA 0000000180031830 f   w_aes.obj
 0001:00030830       ?dtor$0@?0???0AsyncAesEncryptCTR@@QEAA@PEAVCallback@Nan@@V?$shared_ptr@VScopedAES@@@std@@V?$shared_ptr@V?$basic_string@DU?$char_traits@D@std@@V?$allocator@D@2@@std@@@4@2H_N@Z@4HA 0000000180031830 f   w_aes.obj
 0001:0003083c       ?dtor$1@?0???0AsyncAesEncryptCBC@@QEAA@PEAVCallback@Nan@@V?$shared_ptr@VScopedAES@@@std@@V?$shared_ptr@V?$basic_string@DU?$char_traits@D@std@@V?$allocator@D@2@@std@@@4@2_N@Z@4HA 000000018003183c f   w_aes.obj
 0001:0003083c       ?dtor$1@?0???0AsyncAesEncryptCTR@@QEAA@PEAVCallback@Nan@@V?$shared_ptr@VScopedAES@@@std@@V?$shared_ptr@V?$basic_string@DU?$char_traits@D@std@@V?$allocator@D@2@@std@@@4@2H_N@Z@4HA 000000018003183c f   w_aes.obj
 0001:00030848       ?dtor$2@?0???0AsyncAesEncryptCTR@@QEAA@PEAVCallback@Nan@@V?$shared_ptr@VScopedAES@@@std@@V?$shared_ptr@V?$basic_string@DU?$char_traits@D@std@@V?$allocator@D@2@@std@@@4@2H_N@Z@4HA 0000000180031848 f   w_aes.obj
 0001:00030848       ?dtor$2@?0???0AsyncAesEncryptCBC@@QEAA@PEAVCallback@Nan@@V?$shared_ptr@VScopedAES@@@std@@V?$shared_ptr@V?$basic_string@DU?$char_traits@D@std@@V?$allocator@D@2@@std@@@4@2_N@Z@4HA 0000000180031848 f   w_aes.obj
 0001:00030860       ?dtor$0@?0???0AsyncAesWrapKey@@QEAA@PEAVCallback@Nan@@V?$shared_ptr@VScopedAES@@@std@@V?$shared_ptr@V?$basic_string@DU?$char_traits@D@std@@V?$allocator@D@2@@std@@@4@_N@Z@4HA 0000000180031860 f   w_aes.obj
 0001:00030860       ?dtor$0@?0???0AsyncAesEncryptECB@@QEAA@PEAVCallback@Nan@@V?$shared_ptr@VScopedAES@@@std@@V?$shared_ptr@V?$basic_string@DU?$char_traits@D@std@@V?$allocator@D@2@@std@@@4@_N@Z@4HA 0000000180031860 f   w_aes.obj
 0001:0003086c       ?dtor$1@?0???0AsyncAesEncryptECB@@QEAA@PEAVCallback@Nan@@V?$shared_ptr@VScopedAES@@@std@@V?$shared_ptr@V?$basic_string@DU?$char_traits@D@std@@V?$allocator@D@2@@std@@@4@_N@Z@4HA 000000018003186c f   w_aes.obj
 0001:0003086c       ?dtor$1@?0???0AsyncAesWrapKey@@QEAA@PEAVCallback@Nan@@V?$shared_ptr@VScopedAES@@@std@@V?$shared_ptr@V?$basic_string@DU?$char_traits@D@std@@V?$allocator@D@2@@std@@@4@_N@Z@4HA 000000018003186c f   w_aes.obj
 0001:00030880       ?dtor$0@?0???0AsyncAesEncryptGCM@@QEAA@PEAVCallback@Nan@@V?$shared_ptr@VScopedAES@@@std@@V?$shared_ptr@V?$basic_string@DU?$char_traits@D@std@@V?$allocator@D@2@@std@@@4@22H_N@Z@4HA 0000000180031880 f   w_aes.obj
 0001:0003088c       ?dtor$1@?0???0AsyncAesEncryptGCM@@QEAA@PEAVCallback@Nan@@V?$shared_ptr@VScopedAES@@@std@@V?$shared_ptr@V?$basic_string@DU?$char_traits@D@std@@V?$allocator@D@2@@std@@@4@22H_N@Z@4HA 000000018003188c f   w_aes.obj
 0001:00030898       ?dtor$2@?0???0AsyncAesEncryptGCM@@QEAA@PEAVCallback@Nan@@V?$shared_ptr@VScopedAES@@@std@@V?$shared_ptr@V?$basic_string@DU?$char_traits@D@std@@V?$allocator@D@2@@std@@@4@22H_N@Z@4HA 0000000180031898 f   w_aes.obj
 0001:000308a4       ?dtor$3@?0???0AsyncAesEncryptGCM@@QEAA@PEAVCallback@Nan@@V?$shared_ptr@VScopedAES@@@std@@V?$shared_ptr@V?$basic_string@DU?$char_traits@D@std@@V?$allocator@D@2@@std@@@4@22H_N@Z@4HA 00000001800318a4 f   w_aes.obj
 0001:000308b0       ?dtor$0@?0??Init@WAes@@SAXV?$Local@VObject@v8@@@v8@@@Z@4HA 00000001800318b0 f   w_aes.obj
 0001:000308b0       ?dtor$0@?0??Init@WHmac@@SAXV?$Local@VObject@v8@@@v8@@@Z@4HA 00000001800318b0 f   w_hmac.obj
 0001:000308bc       ?dtor$3@?0??Init@WAes@@SAXV?$Local@VObject@v8@@@v8@@@Z@4HA 00000001800318bc f   w_aes.obj
 0001:000308bc       ?dtor$3@?0??Init@WHmac@@SAXV?$Local@VObject@v8@@@v8@@@Z@4HA 00000001800318bc f   w_hmac.obj
 0001:000308ca       ?dtor$5@?0??Init@WHmac@@SAXV?$Local@VObject@v8@@@v8@@@Z@4HA 00000001800318ca f   w_hmac.obj
 0001:000308ca       ?dtor$5@?0??Init@WAes@@SAXV?$Local@VObject@v8@@@v8@@@Z@4HA 00000001800318ca f   w_aes.obj
 0001:000308d6       ?dtor$8@?0??Init@WAes@@SAXV?$Local@VObject@v8@@@v8@@@Z@4HA 00000001800318d6 f   w_aes.obj
 0001:000308d6       ?dtor$8@?0??Init@WHmac@@SAXV?$Local@VObject@v8@@@v8@@@Z@4HA 00000001800318d6 f   w_hmac.obj
 0001:000308f0       ?dtor$0@?0??Encrypt@WAes@@SAXAEBV?$FunctionCallbackInfo@VValue@v8@@@Nan@@@Z@4HA 00000001800318f0 f   w_aes.obj
 0001:000308f0       ?dtor$0@?0??Decrypt@WAes@@SAXAEBV?$FunctionCallbackInfo@VValue@v8@@@Nan@@@Z@4HA 00000001800318f0 f   w_aes.obj
 0001:000308fe       ?dtor$1@?0??Decrypt@WAes@@SAXAEBV?$FunctionCallbackInfo@VValue@v8@@@Nan@@@Z@4HA 00000001800318fe f   w_aes.obj
 0001:000308fe       ?dtor$1@?0??Encrypt@WAes@@SAXAEBV?$FunctionCallbackInfo@VValue@v8@@@Nan@@@Z@4HA 00000001800318fe f   w_aes.obj
 0001:0003090a       ?dtor$2@?0??Encrypt@WAes@@SAXAEBV?$FunctionCallbackInfo@VValue@v8@@@Nan@@@Z@4HA 000000018003190a f   w_aes.obj
 0001:0003090a       ?dtor$2@?0??Decrypt@WAes@@SAXAEBV?$FunctionCallbackInfo@VValue@v8@@@Nan@@@Z@4HA 000000018003190a f   w_aes.obj
 0001:00030916       ?dtor$3@?0??Decrypt@WAes@@SAXAEBV?$FunctionCallbackInfo@VValue@v8@@@Nan@@@Z@4HA 0000000180031916 f   w_aes.obj
 0001:00030916       ?dtor$3@?0??Encrypt@WAes@@SAXAEBV?$FunctionCallbackInfo@VValue@v8@@@Nan@@@Z@4HA 0000000180031916 f   w_aes.obj
 0001:00030936       ?dtor$4@?0??Encrypt@WAes@@SAXAEBV?$FunctionCallbackInfo@VValue@v8@@@Nan@@@Z@4HA 0000000180031936 f   w_aes.obj
 0001:00030936       ?dtor$4@?0??Decrypt@WAes@@SAXAEBV?$FunctionCallbackInfo@VValue@v8@@@Nan@@@Z@4HA 0000000180031936 f   w_aes.obj
 0001:00030956       ?dtor$10@?0??Encrypt@WAes@@SAXAEBV?$FunctionCallbackInfo@VValue@v8@@@Nan@@@Z@4HA 0000000180031956 f   w_aes.obj
 0001:00030956       ?dtor$10@?0??Decrypt@WAes@@SAXAEBV?$FunctionCallbackInfo@VValue@v8@@@Nan@@@Z@4HA 0000000180031956 f   w_aes.obj
 0001:00030970       ?dtor$0@?0??EncryptEcb@WAes@@SAXAEBV?$FunctionCallbackInfo@VValue@v8@@@Nan@@@Z@4HA 0000000180031970 f   w_aes.obj
 0001:00030970       ?dtor$0@?0??UnwrapKey@WAes@@SAXAEBV?$FunctionCallbackInfo@VValue@v8@@@Nan@@@Z@4HA 0000000180031970 f   w_aes.obj
 0001:00030970       ?dtor$0@?0??WrapKey@WAes@@SAXAEBV?$FunctionCallbackInfo@VValue@v8@@@Nan@@@Z@4HA 0000000180031970 f   w_aes.obj
 0001:00030970       ?dtor$0@?0??DecryptEcb@WAes@@SAXAEBV?$FunctionCallbackInfo@VValue@v8@@@Nan@@@Z@4HA 0000000180031970 f   w_aes.obj
 0001:0003097c       ?dtor$1@?0??EncryptEcb@WAes@@SAXAEBV?$FunctionCallbackInfo@VValue@v8@@@Nan@@@Z@4HA 000000018003197c f   w_aes.obj
 0001:0003097c       ?dtor$1@?0??WrapKey@WAes@@SAXAEBV?$FunctionCallbackInfo@VValue@v8@@@Nan@@@Z@4HA 000000018003197c f   w_aes.obj
 0001:0003097c       ?dtor$1@?0??UnwrapKey@WAes@@SAXAEBV?$FunctionCallbackInfo@VValue@v8@@@Nan@@@Z@4HA 000000018003197c f   w_aes.obj
 0001:0003097c       ?dtor$1@?0??DecryptEcb@WAes@@SAXAEBV?$FunctionCallbackInfo@VValue@v8@@@Nan@@@Z@4HA 000000018003197c f   w_aes.obj
 0001:0003099c       ?dtor$2@?0??WrapKey@WAes@@SAXAEBV?$FunctionCallbackInfo@VValue@v8@@@Nan@@@Z@4HA 000000018003199c f   w_aes.obj
 0001:0003099c       ?dtor$2@?0??UnwrapKey@WAes@@SAXAEBV?$FunctionCallbackInfo@VValue@v8@@@Nan@@@Z@4HA 000000018003199c f   w_aes.obj
 0001:0003099c       ?dtor$2@?0??EncryptEcb@WAes@@SAXAEBV?$FunctionCallbackInfo@VValue@v8@@@Nan@@@Z@4HA 000000018003199c f   w_aes.obj
 0001:0003099c       ?dtor$2@?0??DecryptEcb@WAes@@SAXAEBV?$FunctionCallbackInfo@VValue@v8@@@Nan@@@Z@4HA 000000018003199c f   w_aes.obj
 0001:000309c0       ?dtor$0@?0??EncryptGcm@WAes@@SAXAEBV?$FunctionCallbackInfo@VValue@v8@@@Nan@@@Z@4HA 00000001800319c0 f   w_aes.obj
 0001:000309c0       ?dtor$0@?0??DecryptGcm@WAes@@SAXAEBV?$FunctionCallbackInfo@VValue@v8@@@Nan@@@Z@4HA 00000001800319c0 f   w_aes.obj
 0001:000309cc       ?dtor$1@?0??DecryptGcm@WAes@@SAXAEBV?$FunctionCallbackInfo@VValue@v8@@@Nan@@@Z@4HA 00000001800319cc f   w_aes.obj
 0001:000309cc       ?dtor$1@?0??EncryptGcm@WAes@@SAXAEBV?$FunctionCallbackInfo@VValue@v8@@@Nan@@@Z@4HA 00000001800319cc f   w_aes.obj
 0001:000309d8       ?dtor$2@?0??DecryptGcm@WAes@@SAXAEBV?$FunctionCallbackInfo@VValue@v8@@@Nan@@@Z@4HA 00000001800319d8 f   w_aes.obj
 0001:000309d8       ?dtor$2@?0??EncryptGcm@WAes@@SAXAEBV?$FunctionCallbackInfo@VValue@v8@@@Nan@@@Z@4HA 00000001800319d8 f   w_aes.obj
 0001:000309e4       ?dtor$9@?0??DecryptGcm@WAes@@SAXAEBV?$FunctionCallbackInfo@VValue@v8@@@Nan@@@Z@4HA 00000001800319e4 f   w_aes.obj
 0001:000309e4       ?dtor$9@?0??EncryptGcm@WAes@@SAXAEBV?$FunctionCallbackInfo@VValue@v8@@@Nan@@@Z@4HA 00000001800319e4 f   w_aes.obj
 0001:000309f2       ?dtor$3@?0??EncryptGcm@WAes@@SAXAEBV?$FunctionCallbackInfo@VValue@v8@@@Nan@@@Z@4HA 00000001800319f2 f   w_aes.obj
 0001:000309f2       ?dtor$3@?0??DecryptGcm@WAes@@SAXAEBV?$FunctionCallbackInfo@VValue@v8@@@Nan@@@Z@4HA 00000001800319f2 f   w_aes.obj
 0001:00030a12       ?dtor$4@?0??DecryptGcm@WAes@@SAXAEBV?$FunctionCallbackInfo@VValue@v8@@@Nan@@@Z@4HA 0000000180031a12 f   w_aes.obj
 0001:00030a12       ?dtor$4@?0??EncryptGcm@WAes@@SAXAEBV?$FunctionCallbackInfo@VValue@v8@@@Nan@@@Z@4HA 0000000180031a12 f   w_aes.obj
 0001:00030a40       ?dtor$0@?0??DecryptCtr@WAes@@SAXAEBV?$FunctionCallbackInfo@VValue@v8@@@Nan@@@Z@4HA 0000000180031a40 f   w_aes.obj
 0001:00030a40       ?dtor$0@?0??EncryptCtr@WAes@@SAXAEBV?$FunctionCallbackInfo@VValue@v8@@@Nan@@@Z@4HA 0000000180031a40 f   w_aes.obj
 0001:00030a4c       ?dtor$1@?0??EncryptCtr@WAes@@SAXAEBV?$FunctionCallbackInfo@VValue@v8@@@Nan@@@Z@4HA 0000000180031a4c f   w_aes.obj
 0001:00030a4c       ?dtor$1@?0??DecryptCtr@WAes@@SAXAEBV?$FunctionCallbackInfo@VValue@v8@@@Nan@@@Z@4HA 0000000180031a4c f   w_aes.obj
 0001:00030a58       ?dtor$7@?0??EncryptCtr@WAes@@SAXAEBV?$FunctionCallbackInfo@VValue@v8@@@Nan@@@Z@4HA 0000000180031a58 f   w_aes.obj
 0001:00030a58       ?dtor$7@?0??DecryptCtr@WAes@@SAXAEBV?$FunctionCallbackInfo@VValue@v8@@@Nan@@@Z@4HA 0000000180031a58 f   w_aes.obj
 0001:00030a66       ?dtor$2@?0??EncryptCtr@WAes@@SAXAEBV?$FunctionCallbackInfo@VValue@v8@@@Nan@@@Z@4HA 0000000180031a66 f   w_aes.obj
 0001:00030a66       ?dtor$2@?0??DecryptCtr@WAes@@SAXAEBV?$FunctionCallbackInfo@VValue@v8@@@Nan@@@Z@4HA 0000000180031a66 f   w_aes.obj
 0001:00030a86       ?dtor$3@?0??DecryptCtr@WAes@@SAXAEBV?$FunctionCallbackInfo@VValue@v8@@@Nan@@@Z@4HA 0000000180031a86 f   w_aes.obj
 0001:00030a86       ?dtor$3@?0??EncryptCtr@WAes@@SAXAEBV?$FunctionCallbackInfo@VValue@v8@@@Nan@@@Z@4HA 0000000180031a86 f   w_aes.obj
 0001:00030ab0       ?dtor$0@?0??Sign@WHmac@@SAXAEBV?$FunctionCallbackInfo@VValue@v8@@@Nan@@@Z@4HA 0000000180031ab0 f   w_hmac.obj
 0001:00030abe       ?dtor$1@?0??Sign@WHmac@@SAXAEBV?$FunctionCallbackInfo@VValue@v8@@@Nan@@@Z@4HA 0000000180031abe f   w_hmac.obj
 0001:00030aca       ?dtor$6@?0??Sign@WHmac@@SAXAEBV?$FunctionCallbackInfo@VValue@v8@@@Nan@@@Z@4HA 0000000180031aca f   w_hmac.obj
 0001:00030ad8       ?dtor$8@?0??Sign@WHmac@@SAXAEBV?$FunctionCallbackInfo@VValue@v8@@@Nan@@@Z@4HA 0000000180031ad8 f   w_hmac.obj
 0001:00030ae6       ?dtor$2@?0??Sign@WHmac@@SAXAEBV?$FunctionCallbackInfo@VValue@v8@@@Nan@@@Z@4HA 0000000180031ae6 f   w_hmac.obj
 0001:00030b06       ?dtor$3@?0??Sign@WHmac@@SAXAEBV?$FunctionCallbackInfo@VValue@v8@@@Nan@@@Z@4HA 0000000180031b06 f   w_hmac.obj
 0001:00030b26       ?dtor$12@?0??Sign@WHmac@@SAXAEBV?$FunctionCallbackInfo@VValue@v8@@@Nan@@@Z@4HA 0000000180031b26 f   w_hmac.obj
 0001:00030b32       ?dtor$13@?0??Sign@WHmac@@SAXAEBV?$FunctionCallbackInfo@VValue@v8@@@Nan@@@Z@4HA 0000000180031b32 f   w_hmac.obj
 0001:00030b40       ?dtor$0@?0??Verify@WHmac@@SAXAEBV?$FunctionCallbackInfo@VValue@v8@@@Nan@@@Z@4HA 0000000180031b40 f   w_hmac.obj
 0001:00030b4e       ?dtor$1@?0??Verify@WHmac@@SAXAEBV?$FunctionCallbackInfo@VValue@v8@@@Nan@@@Z@4HA 0000000180031b4e f   w_hmac.obj
 0001:00030b5a       ?dtor$2@?0??Verify@WHmac@@SAXAEBV?$FunctionCallbackInfo@VValue@v8@@@Nan@@@Z@4HA 0000000180031b5a f   w_hmac.obj
 0001:00030b66       ?dtor$3@?0??Verify@WHmac@@SAXAEBV?$FunctionCallbackInfo@VValue@v8@@@Nan@@@Z@4HA 0000000180031b66 f   w_hmac.obj
 0001:00030b72       ?dtor$9@?0??Verify@WHmac@@SAXAEBV?$FunctionCallbackInfo@VValue@v8@@@Nan@@@Z@4HA 0000000180031b72 f   w_hmac.obj
 0001:00030b80       ?dtor$11@?0??Verify@WHmac@@SAXAEBV?$FunctionCallbackInfo@VValue@v8@@@Nan@@@Z@4HA 0000000180031b80 f   w_hmac.obj
 0001:00030b8e       ?dtor$4@?0??Verify@WHmac@@SAXAEBV?$FunctionCallbackInfo@VValue@v8@@@Nan@@@Z@4HA 0000000180031b8e f   w_hmac.obj
 0001:00030bab       ?dtor$5@?0??Verify@WHmac@@SAXAEBV?$FunctionCallbackInfo@VValue@v8@@@Nan@@@Z@4HA 0000000180031bab f   w_hmac.obj
 0001:00030bd0       ?dtor$0@?0??Init@WPbkdf2@@SAXV?$Local@VObject@v8@@@v8@@@Z@4HA 0000000180031bd0 f   w_pbkdf2.obj
 0001:00030bdc       ?dtor$3@?0??Init@WPbkdf2@@SAXV?$Local@VObject@v8@@@v8@@@Z@4HA 0000000180031bdc f   w_pbkdf2.obj
 0001:00030bea       ?dtor$5@?0??Init@WPbkdf2@@SAXV?$Local@VObject@v8@@@v8@@@Z@4HA 0000000180031bea f   w_pbkdf2.obj
 0001:00030c00       ?dtor$0@?0??DeriveBits@WPbkdf2@@SAXAEBV?$FunctionCallbackInfo@VValue@v8@@@Nan@@@Z@4HA 0000000180031c00 f   w_pbkdf2.obj
 0001:00030c0e       ?dtor$1@?0??DeriveBits@WPbkdf2@@SAXAEBV?$FunctionCallbackInfo@VValue@v8@@@Nan@@@Z@4HA 0000000180031c0e f   w_pbkdf2.obj
 0001:00030c1a       ?dtor$6@?0??DeriveBits@WPbkdf2@@SAXAEBV?$FunctionCallbackInfo@VValue@v8@@@Nan@@@Z@4HA 0000000180031c1a f   w_pbkdf2.obj
 0001:00030c28       ?dtor$8@?0??DeriveBits@WPbkdf2@@SAXAEBV?$FunctionCallbackInfo@VValue@v8@@@Nan@@@Z@4HA 0000000180031c28 f   w_pbkdf2.obj
 0001:00030c36       ?dtor$10@?0??DeriveBits@WPbkdf2@@SAXAEBV?$FunctionCallbackInfo@VValue@v8@@@Nan@@@Z@4HA 0000000180031c36 f   w_pbkdf2.obj
 0001:00030c44       ?dtor$2@?0??DeriveBits@WPbkdf2@@SAXAEBV?$FunctionCallbackInfo@VValue@v8@@@Nan@@@Z@4HA 0000000180031c44 f   w_pbkdf2.obj
 0001:00030c64       ?dtor$3@?0??DeriveBits@WPbkdf2@@SAXAEBV?$FunctionCallbackInfo@VValue@v8@@@Nan@@@Z@4HA 0000000180031c64 f   w_pbkdf2.obj
 0001:00030c84       ?dtor$14@?0??DeriveBits@WPbkdf2@@SAXAEBV?$FunctionCallbackInfo@VValue@v8@@@Nan@@@Z@4HA 0000000180031c84 f   w_pbkdf2.obj
 0001:00030c90       ?dtor$15@?0??DeriveBits@WPbkdf2@@SAXAEBV?$FunctionCallbackInfo@VValue@v8@@@Nan@@@Z@4HA 0000000180031c90 f   w_pbkdf2.obj
 0001:00030ca0       ?dtor$0@?0??Init@WCore@@SAXV?$Local@VObject@v8@@@v8@@@Z@4HA 0000000180031ca0 f   w_core.obj
 0001:00030cae       ?dtor$2@?0??Init@WCore@@SAXV?$Local@VObject@v8@@@v8@@@Z@4HA 0000000180031cae f   w_core.obj
 0001:00030cc0       ?dtor$0@?0??Digest@WCore@@SAXAEBV?$FunctionCallbackInfo@VValue@v8@@@Nan@@@Z@4HA 0000000180031cc0 f   w_core.obj
 0001:00030cce       ?dtor$1@?0??Digest@WCore@@SAXAEBV?$FunctionCallbackInfo@VValue@v8@@@Nan@@@Z@4HA 0000000180031cce f   w_core.obj
 0001:00030cee       ?dtor$2@?0??Digest@WCore@@SAXAEBV?$FunctionCallbackInfo@VValue@v8@@@Nan@@@Z@4HA 0000000180031cee f   w_core.obj
 0001:00030cfa       ?dtor$3@?0??Digest@WCore@@SAXAEBV?$FunctionCallbackInfo@VValue@v8@@@Nan@@@Z@4HA 0000000180031cfa f   w_core.obj
 0001:00030d06       ?dtor$4@?0??Digest@WCore@@SAXAEBV?$FunctionCallbackInfo@VValue@v8@@@Nan@@@Z@4HA 0000000180031d06 f   w_core.obj
 0001:00030d26       ?dtor$5@?0??Digest@WCore@@SAXAEBV?$FunctionCallbackInfo@VValue@v8@@@Nan@@@Z@4HA 0000000180031d26 f   w_core.obj
 0001:00030d46       ?dtor$11@?0??Digest@WCore@@SAXAEBV?$FunctionCallbackInfo@VValue@v8@@@Nan@@@Z@4HA 0000000180031d46 f   w_core.obj
 0001:00030d52       ?dtor$12@?0??Digest@WCore@@SAXAEBV?$FunctionCallbackInfo@VValue@v8@@@Nan@@@Z@4HA 0000000180031d52 f   w_core.obj
 0001:00030d60       ?catch$4@?0??Execute@AsyncEncrypDecryptRsaOAEP@@UEAAXXZ@4HA 0000000180031d60 f   async_rsa.obj
 0001:00030d6d       __catch$?Execute@AsyncEncrypDecryptRsaOAEP@@UEAAXXZ$0 0000000180031d6d f   async_rsa.obj
 0001:00030dc0       ?dtor$0@?0??HandleOKCallback@AsyncSignRsa@@UEAAXXZ@4HA 0000000180031dc0 f   async_rsa.obj
 0001:00030dc0       ?dtor$0@?0??HandleOKCallback@AsyncHmacSign@@UEAAXXZ@4HA 0000000180031dc0 f   async_hmac.obj
 0001:00030dc0       ?dtor$0@?0??HandleOKCallback@AsyncEncrypDecryptRsaOAEP@@UEAAXXZ@4HA 0000000180031dc0 f   async_rsa.obj
 0001:00030dc0       ?dtor$0@?0??HandleOKCallback@AsyncAesEncryptCTR@@UEAAXXZ@4HA 0000000180031dc0 f   async_aes.obj
 0001:00030dc0       ?dtor$0@?0??HandleOKCallback@AsyncEcdsaSign@@UEAAXXZ@4HA 0000000180031dc0 f   async_ec.obj
 0001:00030dc0       ?dtor$0@?0??HandleOKCallback@AsyncEcdhDeriveKey@@UEAAXXZ@4HA 0000000180031dc0 f   async_ec.obj
 0001:00030dc0       ?dtor$0@?0??HandleOKCallback@AsyncAesEncryptECB@@UEAAXXZ@4HA 0000000180031dc0 f   async_aes.obj
 0001:00030dc0       ?dtor$0@?0??HandleOKCallback@AsyncSignRsaPSS@@UEAAXXZ@4HA 0000000180031dc0 f   async_rsa.obj
 0001:00030dc0       ?dtor$0@?0??HandleOKCallback@AsyncAesEncryptCBC@@UEAAXXZ@4HA 0000000180031dc0 f   async_aes.obj
 0001:00030dc0       ?dtor$0@?0??HandleOKCallback@AsyncExportPkcs8@@UEAAXXZ@4HA 0000000180031dc0 f   async_rsa.obj
 0001:00030dc0       ?dtor$0@?0??HandleOKCallback@AsyncAesWrapKey@@UEAAXXZ@4HA 0000000180031dc0 f   async_aes.obj
 0001:00030dc0       ?dtor$0@?0??HandleOKCallback@AsyncHmacExport@@UEAAXXZ@4HA 0000000180031dc0 f   async_hmac.obj
 0001:00030dc0       ?dtor$0@?0??HandleOKCallback@AsyncDigest@@UEAAXXZ@4HA 0000000180031dc0 f   async_core.obj
 0001:00030dc0       ?dtor$0@?0??HandleOKCallback@AsyncPbkdf2DeriveBits@@UEAAXXZ@4HA 0000000180031dc0 f   async_pbkdf2.obj
 0001:00030dc0       ?dtor$0@?0??HandleOKCallback@AsyncAesEncryptGCM@@UEAAXXZ@4HA 0000000180031dc0 f   async_aes.obj
 0001:00030dc0       ?dtor$0@?0??HandleOKCallback@AsyncAesExport@@UEAAXXZ@4HA 0000000180031dc0 f   async_aes.obj
 0001:00030dc0       ?dtor$0@?0??HandleOKCallback@AsyncExportSpki@@UEAAXXZ@4HA 0000000180031dc0 f   async_rsa.obj
 0001:00030dc0       ?dtor$0@?0??HandleOKCallback@AsyncEcdhDeriveBits@@UEAAXXZ@4HA 0000000180031dc0 f   async_ec.obj
 0001:00030dd0       ?catch$1@?0??Execute@AsyncRsaGenerateKey@@UEAAXXZ@4HA 0000000180031dd0 f   async_rsa.obj
 0001:00030ddd       __catch$?Execute@AsyncRsaGenerateKey@@UEAAXXZ$0 0000000180031ddd f   async_rsa.obj
 0001:00030e30       ?catch$2@?0??Execute@AsyncExportJwkRsa@@UEAAXXZ@4HA 0000000180031e30 f   async_rsa.obj
 0001:00030e3d       __catch$?Execute@AsyncExportJwkRsa@@UEAAXXZ$0 0000000180031e3d f   async_rsa.obj
 0001:00030e90       ?dtor$0@?0??HandleOKCallback@AsyncExportJwkRsa@@UEAAXXZ@4HA 0000000180031e90 f   async_rsa.obj
 0001:00030e9c       ?dtor$2@?0??HandleOKCallback@AsyncExportJwkRsa@@UEAAXXZ@4HA 0000000180031e9c f   async_rsa.obj
 0001:00030eaa       ?dtor$3@?0??HandleOKCallback@AsyncExportJwkRsa@@UEAAXXZ@4HA 0000000180031eaa f   async_rsa.obj
 0001:00030eb8       ?dtor$4@?0??HandleOKCallback@AsyncExportJwkRsa@@UEAAXXZ@4HA 0000000180031eb8 f   async_rsa.obj
 0001:00030ec6       ?dtor$5@?0??HandleOKCallback@AsyncExportJwkRsa@@UEAAXXZ@4HA 0000000180031ec6 f   async_rsa.obj
 0001:00030ed4       ?dtor$6@?0??HandleOKCallback@AsyncExportJwkRsa@@UEAAXXZ@4HA 0000000180031ed4 f   async_rsa.obj
 0001:00030ee2       ?dtor$7@?0??HandleOKCallback@AsyncExportJwkRsa@@UEAAXXZ@4HA 0000000180031ee2 f   async_rsa.obj
 0001:00030ef0       ?dtor$8@?0??HandleOKCallback@AsyncExportJwkRsa@@UEAAXXZ@4HA 0000000180031ef0 f   async_rsa.obj
 0001:00030efe       ?dtor$9@?0??HandleOKCallback@AsyncExportJwkRsa@@UEAAXXZ@4HA 0000000180031efe f   async_rsa.obj
 0001:00030f0c       ?dtor$10@?0??HandleOKCallback@AsyncExportJwkRsa@@UEAAXXZ@4HA 0000000180031f0c f   async_rsa.obj
 0001:00030f20       ?catch$2@?0??Execute@AsyncExportSpki@@UEAAXXZ@4HA 0000000180031f20 f   async_rsa.obj
 0001:00030f2d       __catch$?Execute@AsyncExportSpki@@UEAAXXZ$0 0000000180031f2d f   async_rsa.obj
 0001:00030f80       ?catch$2@?0??Execute@AsyncExportPkcs8@@UEAAXXZ@4HA 0000000180031f80 f   async_rsa.obj
 0001:00030f8d       __catch$?Execute@AsyncExportPkcs8@@UEAAXXZ$0 0000000180031f8d f   async_rsa.obj
 0001:00030fe0       ?dtor$4@?0??Execute@AsyncImportPkcs8@@UEAAXXZ@4HA 0000000180031fe0 f   async_rsa.obj
 0001:0003100c       ?dtor$2@?0??Execute@AsyncImportPkcs8@@UEAAXXZ@4HA 000000018003200c f   async_rsa.obj
 0001:00031018       ?dtor$3@?0??Execute@AsyncImportPkcs8@@UEAAXXZ@4HA 0000000180032018 f   async_rsa.obj
 0001:00031024       ?catch$6@?0??Execute@AsyncImportPkcs8@@UEAAXXZ@4HA 0000000180032024 f   async_rsa.obj
 0001:00031031       __catch$?Execute@AsyncImportPkcs8@@UEAAXXZ$0 0000000180032031 f   async_rsa.obj
 0001:00031080       ?dtor$4@?0??Execute@AsyncImportSpki@@UEAAXXZ@4HA 0000000180032080 f   async_rsa.obj
 0001:000310ac       ?dtor$2@?0??Execute@AsyncImportSpki@@UEAAXXZ@4HA 00000001800320ac f   async_rsa.obj
 0001:000310b8       ?dtor$3@?0??Execute@AsyncImportSpki@@UEAAXXZ@4HA 00000001800320b8 f   async_rsa.obj
 0001:000310c4       ?catch$6@?0??Execute@AsyncImportSpki@@UEAAXXZ@4HA 00000001800320c4 f   async_rsa.obj
 0001:000310d1       __catch$?Execute@AsyncImportSpki@@UEAAXXZ$0 00000001800320d1 f   async_rsa.obj
 0001:00031120       ?catch$1@?0??Execute@AsyncImportJwkRsa@@UEAAXXZ@4HA 0000000180032120 f   async_rsa.obj
 0001:0003112d       __catch$?Execute@AsyncImportJwkRsa@@UEAAXXZ$0 000000018003212d f   async_rsa.obj
 0001:00031180       ?catch$3@?0??Execute@AsyncSignRsa@@UEAAXXZ@4HA 0000000180032180 f   async_rsa.obj
 0001:0003118d       __catch$?Execute@AsyncSignRsa@@UEAAXXZ$0 000000018003218d f   async_rsa.obj
 0001:000311e0       ?catch$3@?0??Execute@AsyncVerifyRsa@@UEAAXXZ@4HA 00000001800321e0 f   async_rsa.obj
 0001:000311ed       __catch$?Execute@AsyncVerifyRsa@@UEAAXXZ$0 00000001800321ed f   async_rsa.obj
 0001:00031240       ?catch$3@?0??Execute@AsyncSignRsaPSS@@UEAAXXZ@4HA 0000000180032240 f   async_rsa.obj
 0001:0003124d       __catch$?Execute@AsyncSignRsaPSS@@UEAAXXZ$0 000000018003224d f   async_rsa.obj
 0001:000312a0       ?catch$3@?0??Execute@AsyncVerifyRsaPSS@@UEAAXXZ@4HA 00000001800322a0 f   async_rsa.obj
 0001:000312ad       __catch$?Execute@AsyncVerifyRsaPSS@@UEAAXXZ$0 00000001800322ad f   async_rsa.obj
 0001:00031300       ?catch$1@?0??Execute@AsyncEcGenerateKey@@UEAAXXZ@4HA 0000000180032300 f   async_ec.obj
 0001:0003130d       __catch$?Execute@AsyncEcGenerateKey@@UEAAXXZ$0 000000018003230d f   async_ec.obj
 0001:00031360       ?catch$3@?0??Execute@AsyncEcdhDeriveKey@@UEAAXXZ@4HA 0000000180032360 f   async_ec.obj
 0001:0003136d       __catch$?Execute@AsyncEcdhDeriveKey@@UEAAXXZ$0 000000018003236d f   async_ec.obj
 0001:000313c0       ?catch$2@?0??Execute@AsyncEcExportJwk@@UEAAXXZ@4HA 00000001800323c0 f   async_ec.obj
 0001:000313cd       __catch$?Execute@AsyncEcExportJwk@@UEAAXXZ$0 00000001800323cd f   async_ec.obj
 0001:00031420       ?dtor$0@?0??HandleOKCallback@AsyncEcExportJwk@@UEAAXXZ@4HA 0000000180032420 f   async_ec.obj
 0001:0003142c       ?dtor$2@?0??HandleOKCallback@AsyncEcExportJwk@@UEAAXXZ@4HA 000000018003242c f   async_ec.obj
 0001:0003143a       ?dtor$3@?0??HandleOKCallback@AsyncEcExportJwk@@UEAAXXZ@4HA 000000018003243a f   async_ec.obj
 0001:00031448       ?dtor$4@?0??HandleOKCallback@AsyncEcExportJwk@@UEAAXXZ@4HA 0000000180032448 f   async_ec.obj
 0001:00031456       ?dtor$5@?0??HandleOKCallback@AsyncEcExportJwk@@UEAAXXZ@4HA 0000000180032456 f   async_ec.obj
 0001:00031464       ?dtor$6@?0??HandleOKCallback@AsyncEcExportJwk@@UEAAXXZ@4HA 0000000180032464 f   async_ec.obj
 0001:00031480       ?catch$1@?0??Execute@AsyncEcImportJwk@@UEAAXXZ@4HA 0000000180032480 f   async_ec.obj
 0001:0003148d       __catch$?Execute@AsyncEcImportJwk@@UEAAXXZ$0 000000018003248d f   async_ec.obj
 0001:000314e0       ?catch$3@?0??Execute@AsyncEcdsaSign@@UEAAXXZ@4HA 00000001800324e0 f   async_ec.obj
 0001:000314ed       __catch$?Execute@AsyncEcdsaSign@@UEAAXXZ$0 00000001800324ed f   async_ec.obj
 0001:00031540       ?catch$3@?0??Execute@AsyncEcdsaVerify@@UEAAXXZ@4HA 0000000180032540 f   async_ec.obj
 0001:0003154d       __catch$?Execute@AsyncEcdsaVerify@@UEAAXXZ$0 000000018003254d f   async_ec.obj
 0001:000315a0       ?catch$3@?0??Execute@AsyncEcdhDeriveBits@@UEAAXXZ@4HA 00000001800325a0 f   async_ec.obj
 0001:000315ad       __catch$?Execute@AsyncEcdhDeriveBits@@UEAAXXZ$0 00000001800325ad f   async_ec.obj
 0001:00031600       ?dtor$3@?0??Execute@AsyncAesGenerateKey@@UEAAXXZ@4HA 0000000180032600 f   async_aes.obj
 0001:0003162c       ?dtor$1@?0??Execute@AsyncAesGenerateKey@@UEAAXXZ@4HA 000000018003262c f   async_aes.obj
 0001:00031638       ?catch$6@?0??Execute@AsyncAesGenerateKey@@UEAAXXZ@4HA 0000000180032638 f   async_aes.obj
 0001:00031645       __catch$?Execute@AsyncAesGenerateKey@@UEAAXXZ$0 0000000180032645 f   async_aes.obj
 0001:00031690       ?catch$6@?0??Execute@AsyncAesEncryptCBC@@UEAAXXZ@4HA 0000000180032690 f   async_aes.obj
 0001:0003169d       __catch$?Execute@AsyncAesEncryptCBC@@UEAAXXZ$0 000000018003269d f   async_aes.obj
 0001:000316f0       ?dtor$7@?0??Execute@AsyncAesEncryptECB@@UEAAXXZ@4HA 00000001800326f0 f   async_aes.obj
 0001:0003171f       ?dtor$4@?0??Execute@AsyncAesEncryptECB@@UEAAXXZ@4HA 000000018003271f f   async_aes.obj
 0001:0003172b       ?dtor$11@?0??Execute@AsyncAesEncryptECB@@UEAAXXZ@4HA 000000018003272b f   async_aes.obj
 0001:0003175a       ?dtor$8@?0??Execute@AsyncAesEncryptECB@@UEAAXXZ@4HA 000000018003275a f   async_aes.obj
 0001:00031766       ?catch$12@?0??Execute@AsyncAesEncryptECB@@UEAAXXZ@4HA 0000000180032766 f   async_aes.obj
 0001:00031773       __catch$?Execute@AsyncAesEncryptECB@@UEAAXXZ$0 0000000180032773 f   async_aes.obj
 0001:000317d0       ?catch$4@?0??Execute@AsyncAesImport@@UEAAXXZ@4HA 00000001800327d0 f   async_aes.obj
 0001:000317dd       __catch$?Execute@AsyncAesImport@@UEAAXXZ$0 00000001800327dd f   async_aes.obj
 0001:00031830       ?catch$8@?0??Execute@AsyncAesEncryptGCM@@UEAAXXZ@4HA 0000000180032830 f   async_aes.obj
 0001:0003183d       __catch$?Execute@AsyncAesEncryptGCM@@UEAAXXZ$0 000000018003283d f   async_aes.obj
 0001:00031890       ?catch$4@?0??Execute@AsyncAesWrapKey@@UEAAXXZ@4HA 0000000180032890 f   async_aes.obj
 0001:0003189d       __catch$?Execute@AsyncAesWrapKey@@UEAAXXZ$0 000000018003289d f   async_aes.obj
 0001:000318f0       ?catch$6@?0??Execute@AsyncAesEncryptCTR@@UEAAXXZ@4HA 00000001800328f0 f   async_aes.obj
 0001:000318fd       __catch$?Execute@AsyncAesEncryptCTR@@UEAAXXZ$0 00000001800328fd f   async_aes.obj
 0001:00031950       ?catch$1@?0??Execute@AsyncHmacGenerateKey@@UEAAXXZ@4HA 0000000180032950 f   async_hmac.obj
 0001:0003195d       __catch$?Execute@AsyncHmacGenerateKey@@UEAAXXZ$0 000000018003295d f   async_hmac.obj
 0001:000319b0       ?catch$4@?0??Execute@AsyncHmacImport@@UEAAXXZ@4HA 00000001800329b0 f   async_hmac.obj
 0001:000319bd       __catch$?Execute@AsyncHmacImport@@UEAAXXZ$0 00000001800329bd f   async_hmac.obj
 0001:00031a10       ?catch$2@?0??Execute@AsyncHmacSign@@UEAAXXZ@4HA 0000000180032a10 f   async_hmac.obj
 0001:00031a1d       __catch$?Execute@AsyncHmacSign@@UEAAXXZ$0 0000000180032a1d f   async_hmac.obj
 0001:00031a70       ?catch$2@?0??Execute@AsyncHmacVerify@@UEAAXXZ@4HA 0000000180032a70 f   async_hmac.obj
 0001:00031a7d       __catch$?Execute@AsyncHmacVerify@@UEAAXXZ$0 0000000180032a7d f   async_hmac.obj
 0001:00031ad0       ?catch$4@?0??Execute@AsyncPbkdf2Import@@UEAAXXZ@4HA 0000000180032ad0 f   async_pbkdf2.obj
 0001:00031add       __catch$?Execute@AsyncPbkdf2Import@@UEAAXXZ$0 0000000180032add f   async_pbkdf2.obj
 0001:00031b30       ?dtor$0@?0??HandleOKCallback@AsyncPbkdf2Import@@UEAAXXZ@4HA 0000000180032b30 f   async_pbkdf2.obj
 0001:00031b3c       ?dtor$2@?0??HandleOKCallback@AsyncPbkdf2Import@@UEAAXXZ@4HA 0000000180032b3c f   async_pbkdf2.obj
 0001:00031b50       ?catch$2@?0??Execute@AsyncPbkdf2DeriveBits@@UEAAXXZ@4HA 0000000180032b50 f   async_pbkdf2.obj
 0001:00031b5d       __catch$?Execute@AsyncPbkdf2DeriveBits@@UEAAXXZ$0 0000000180032b5d f   async_pbkdf2.obj
 0001:00031bb0       ?catch$2@?0??Execute@AsyncDigest@@UEAAXXZ@4HA 0000000180032bb0 f   async_core.obj
 0001:00031bbd       __catch$?Execute@AsyncDigest@@UEAAXXZ$0 0000000180032bbd f   async_core.obj
 0001:00031c05       __scrt_is_nonwritable_in_current_image$filt$0 0000000180032c05 f   LIBCMT:utility.obj
 0001:00031c1d       ?fin$0@?0??dllmain_crt_process_attach@@YAHQEAUHINSTANCE__@@QEAX@Z@4HA 0000000180032c1d f   LIBCMT:dll_dllmain.obj
 0001:00031c34       ?fin$0@?0??dllmain_crt_process_detach@@YAH_N@Z@4HA 0000000180032c34 f   LIBCMT:dll_dllmain.obj
 0001:00031c50       ?filt$0@?0??dllmain_dispatch@@YAHQEAUHINSTANCE__@@KQEAX@Z@4HA 0000000180032c50 f   LIBCMT:dll_dllmain.obj
 0001:00031c86       _CallSETranslator$filt$0   0000000180032c86 f   libvcruntime:risctrnsctrl.obj
 0001:00031d17       __DestructExceptionObject$filt$0 0000000180032d17 f   libvcruntime:ehhelpers.obj
 0001:00031d2f       __CxxCallCatchBlock$filt$0 0000000180032d2f f   libvcruntime:frame.obj
 0001:00031d54       __CxxCallCatchBlock$fin$1  0000000180032d54 f   libvcruntime:frame.obj
 0001:00031dcc       __FrameUnwindToState$filt$0 0000000180032dcc f   libvcruntime:frame.obj
 0001:00031de2       __FrameUnwindToState$fin$1 0000000180032de2 f   libvcruntime:frame.obj
 0001:00031e05       _query_new_handler$fin$0   0000000180032e05 f   libucrt:new_handler.obj
 0001:00031e1b       ?filt$0@?0???R<lambda_6e4b09c48022b2350581041d5f6b0c4c>@@QEBA@XZ@4HA 0000000180032e1b f   libucrt:exit.obj
 0001:00031e36       ?fin$0@?0???$?RV<lambda_2d41944a1d46af3157314b8a01080d33>@@AEAV<lambda_8f455de75cd7d7f24b4096f044d8b9e6>@@V<lambda_aa500f224e6afead328df44964fe2772>@@@?$__crt_seh_guarded_call@X@@QEAAX$$QEAV<lambda_2d41944a1d46af3157314b8a01080d33>@@AEAV<lambda_8f455de75cd7d7f24b4096f044d8b9e6>@@$$QEAV<lambda_aa500f224e6afead328df44964fe2772>@@@Z@4HA 0000000180032e36 f   libucrt:per_thread_data.obj
 0001:00031e36       ?fin$0@?0???$?RV<lambda_efdfa57d1f175319df784efa44bb7b81>@@AEAV<lambda_5f0a4c1567f8adc6734073e5d1e1b35c>@@V<lambda_2e8a7d3640ea6ccb4c2413664c2db6fd>@@@?$__crt_seh_guarded_call@X@@QEAAX$$QEAV<lambda_efdfa57d1f175319df784efa44bb7b81>@@AEAV<lambda_5f0a4c1567f8adc6734073e5d1e1b35c>@@$$QEAV<lambda_2e8a7d3640ea6ccb4c2413664c2db6fd>@@@Z@4HA 0000000180032e36 f   libucrt:mbctype.obj
 0001:00031e36       ?fin$0@?0???$?RV<lambda_8369fcb7c4df1e85de37618bd2b85f07>@@AEAV<lambda_a10e4b102d4a2c3aac6f4f48bbdf488f>@@V<lambda_5b7707bd6d7a0c4713179f36c7fd995d>@@@?$__crt_seh_guarded_call@H@@QEAAH$$QEAV<lambda_8369fcb7c4df1e85de37618bd2b85f07>@@AEAV<lambda_a10e4b102d4a2c3aac6f4f48bbdf488f>@@$$QEAV<lambda_5b7707bd6d7a0c4713179f36c7fd995d>@@@Z@4HA 0000000180032e36 f   libucrt:onexit.obj
 0001:00031e36       ?fin$0@?0???$?RV<lambda_450d765d439847d4c735a33c368b5fc0>@@AEAV<lambda_44731a7d0e6d81c3e6aa82d741081786>@@V<lambda_601a2a7da3b7a96e9554ac7215c4b07c>@@@?$__crt_seh_guarded_call@P6AXH@Z@@QEAAP6AXH@Z$$QEAV<lambda_450d765d439847d4c735a33c368b5fc0>@@AEAV<lambda_44731a7d0e6d81c3e6aa82d741081786>@@$$QEAV<lambda_601a2a7da3b7a96e9554ac7215c4b07c>@@@Z@4HA 0000000180032e36 f   libucrt:signal.obj
 0001:00031e36       ?fin$0@?0???$?RV<lambda_0ae27a3a962d80f24befdcbee591983d>@@AEAV<lambda_8d0ee55de4b1038c4002e0adecdf1839>@@V<lambda_dc504788e8f1664fe9b84e20bfb512f2>@@@?$__crt_seh_guarded_call@X@@QEAAX$$QEAV<lambda_0ae27a3a962d80f24befdcbee591983d>@@AEAV<lambda_8d0ee55de4b1038c4002e0adecdf1839>@@$$QEAV<lambda_dc504788e8f1664fe9b84e20bfb512f2>@@@Z@4HA 0000000180032e36 f   libucrt:per_thread_data.obj
 0001:00031e36       ?fin$0@?0???$?RV<lambda_7777bce6b2f8c936911f934f8298dc43>@@AEAV<lambda_f03950bc5685219e0bcd2087efbe011e>@@V<lambda_3883c3dff614d5e0c5f61bb1ac94921c>@@@?$__crt_seh_guarded_call@H@@QEAAH$$QEAV<lambda_7777bce6b2f8c936911f934f8298dc43>@@AEAV<lambda_f03950bc5685219e0bcd2087efbe011e>@@$$QEAV<lambda_3883c3dff614d5e0c5f61bb1ac94921c>@@@Z@4HA 0000000180032e36 f   libucrt:onexit.obj
 0001:00031e36       ?fin$0@?0???$?RV<lambda_d80eeec6fff315bfe5c115232f3240e3>@@AEAV<lambda_6e4b09c48022b2350581041d5f6b0c4c>@@V<lambda_2358e3775559c9db80273638284d5e45>@@@?$__crt_seh_guarded_call@X@@QEAAX$$QEAV<lambda_d80eeec6fff315bfe5c115232f3240e3>@@AEAV<lambda_6e4b09c48022b2350581041d5f6b0c4c>@@$$QEAV<lambda_2358e3775559c9db80273638284d5e45>@@@Z@4HA 0000000180032e36 f   libucrt:exit.obj
 0001:00031e36       ?fin$0@?0???$?RV<lambda_f2e299630e499de9f9a165e60fcd3db5>@@AEAV<lambda_2ae9d31cdba2644fcbeaf08da7c24588>@@V<lambda_40d01ff24d0e7b3814fdbdcee8eab3c7>@@@?$__crt_seh_guarded_call@X@@QEAAX$$QEAV<lambda_f2e299630e499de9f9a165e60fcd3db5>@@AEAV<lambda_2ae9d31cdba2644fcbeaf08da7c24588>@@$$QEAV<lambda_40d01ff24d0e7b3814fdbdcee8eab3c7>@@@Z@4HA 0000000180032e36 f   libucrt:per_thread_data.obj
 0001:00031e36       ?fin$0@?0???$?RV<lambda_aa87e3671a710a21b5dc78c0bdf72e11>@@AEAV<lambda_92619d2358a28f41a33ba319515a20b9>@@V<lambda_6992ecaafeb10aed2b74cb1fae11a551>@@@?$__crt_seh_guarded_call@X@@QEAAX$$QEAV<lambda_aa87e3671a710a21b5dc78c0bdf72e11>@@AEAV<lambda_92619d2358a28f41a33ba319515a20b9>@@$$QEAV<lambda_6992ecaafeb10aed2b74cb1fae11a551>@@@Z@4HA 0000000180032e36 f   libucrt:per_thread_data.obj
 0001:00031e50       ?fin$0@?0???$?RV<lambda_886d6c58226a84441f68b9f2b8217b83>@@AEAV<lambda_ab61a845afdef5b7c387490eaf3616ee>@@V<lambda_f7f22ab5edc0698d5f6905b0d3f44752>@@@?$__crt_seh_guarded_call@X@@QEAAX$$QEAV<lambda_886d6c58226a84441f68b9f2b8217b83>@@AEAV<lambda_ab61a845afdef5b7c387490eaf3616ee>@@$$QEAV<lambda_f7f22ab5edc0698d5f6905b0d3f44752>@@@Z@4HA 0000000180032e50 f   libucrt:fflush.obj
 0001:00031e6d       ?fin$0@?0???$?RV<lambda_842d9ff0dc9ef11c61343bbaebe7f885>@@AEAV<lambda_c5860995281e5c4ce005b3de8f5874ee>@@V<lambda_d90129c13df834fdcbf8d2b88dafcf2d>@@@?$__crt_seh_guarded_call@X@@QEAAX$$QEAV<lambda_842d9ff0dc9ef11c61343bbaebe7f885>@@AEAV<lambda_c5860995281e5c4ce005b3de8f5874ee>@@$$QEAV<lambda_d90129c13df834fdcbf8d2b88dafcf2d>@@@Z@4HA 0000000180032e6d f   libucrt:fflush.obj
 0001:00031e6d       ?fin$0@?0???$?RV<lambda_0d412022a4b28cc8a401ea49574e8ae6>@@AEAV<lambda_a775ed57af18ba8e4d5dc780aa9068fe>@@V<lambda_975a71a6baa488a08f4e15f6b0339b9e>@@@?$__crt_seh_guarded_call@H@@QEAAH$$QEAV<lambda_0d412022a4b28cc8a401ea49574e8ae6>@@AEAV<lambda_a775ed57af18ba8e4d5dc780aa9068fe>@@$$QEAV<lambda_975a71a6baa488a08f4e15f6b0339b9e>@@@Z@4HA 0000000180032e6d f   libucrt:output.obj
 0001:00031e6d       ?fin$0@?0???$?RV<lambda_84ec643ea9557e2f7dc01bb0e9624395>@@AEAV<lambda_ca71763b3c0644891230e4f79ea54fa6>@@V<lambda_439a761618c59b0600e24586724d733b>@@@?$__crt_seh_guarded_call@H@@QEAAH$$QEAV<lambda_84ec643ea9557e2f7dc01bb0e9624395>@@AEAV<lambda_ca71763b3c0644891230e4f79ea54fa6>@@$$QEAV<lambda_439a761618c59b0600e24586724d733b>@@@Z@4HA 0000000180032e6d f   libucrt:setvbuf.obj
 0001:00031e6d       ?fin$0@?0???$?RV<lambda_c376a267cfb53b6959b3b692ec76b120>@@AEAV<lambda_9a32fed5bf61b6b509b2d3f6003082a1>@@V<lambda_572fbb9fa0ab338edf41edfd4b5fcc8d>@@@?$__crt_seh_guarded_call@H@@QEAAH$$QEAV<lambda_c376a267cfb53b6959b3b692ec76b120>@@AEAV<lambda_9a32fed5bf61b6b509b2d3f6003082a1>@@$$QEAV<lambda_572fbb9fa0ab338edf41edfd4b5fcc8d>@@@Z@4HA 0000000180032e6d f   libucrt:fflush.obj
 0001:00031e88       raise$fin$0                0000000180032e88 f   libucrt:signal.obj
 0001:00031ea9       ?fin$0@?0???$?RV<lambda_410d79af7f07d98d83a3f525b3859a53>@@AEAV<lambda_3e16ef9562a7dcce91392c22ab16ea36>@@V<lambda_38119f0e861e05405d8a144b9b982f0a>@@@?$__crt_seh_guarded_call@X@@QEAAX$$QEAV<lambda_410d79af7f07d98d83a3f525b3859a53>@@AEAV<lambda_3e16ef9562a7dcce91392c22ab16ea36>@@$$QEAV<lambda_38119f0e861e05405d8a144b9b982f0a>@@@Z@4HA 0000000180032ea9 f   libucrt:wsetlocale.obj
 0001:00031ec3       ?fin$0@?0??update_thread_multibyte_data_internal@@YAPEAU__crt_multibyte_data@@QEAU__acrt_ptd@@QEAPEAU1@@Z@4HA 0000000180032ec3 f   libucrt:mbctype.obj
 0001:00031edc       __acrt_lowio_ensure_fh_exists$fin$0 0000000180032edc f   libucrt:osfinfo.obj
 0001:00031edc       __acrt_initialize_lowio$fin$0 0000000180032edc f   libucrt:ioinit.obj
 0001:00031ef5       __acrt_update_thread_locale_data$fin$0 0000000180032ef5 f   libucrt:locale_refcounting.obj
 0001:00031f0e       _fcloseall$fin$0           0000000180032f0e f   libucrt:closeall.obj
 0001:00031f27       ?fin$0@?0???$?RV<lambda_a37b2b86f63e897a80ea819b0eb08c01>@@AEAV<lambda_38ce7e780aa69e748d6df282ebc68efe>@@V<lambda_99fb1378e971ab6e7edea83e3a7a83a2>@@@?$__crt_seh_guarded_call@H@@QEAAH$$QEAV<lambda_a37b2b86f63e897a80ea819b0eb08c01>@@AEAV<lambda_38ce7e780aa69e748d6df282ebc68efe>@@$$QEAV<lambda_99fb1378e971ab6e7edea83e3a7a83a2>@@@Z@4HA 0000000180032f27 f   libucrt:commit.obj
 0001:00031f27       ?fin$0@?0???$?RV<lambda_751a882b2c74d4b022dec766aa51a29a>@@AEAV<lambda_628dfdc04ba53c8bfc02c9951375f3f5>@@V<lambda_f6c7be5f7998530c34de24c7437d6b54>@@@?$__crt_seh_guarded_call@H@@QEAAH$$QEAV<lambda_751a882b2c74d4b022dec766aa51a29a>@@AEAV<lambda_628dfdc04ba53c8bfc02c9951375f3f5>@@$$QEAV<lambda_f6c7be5f7998530c34de24c7437d6b54>@@@Z@4HA 0000000180032f27 f   libucrt:close.obj
 0001:00031f41       fclose$fin$0               0000000180032f41 f   libucrt:fclose.obj
 0001:00031f59       ?fin$0@?0???$common_lseek@_J@@YA_JH_JH@Z@4HA 0000000180032f59 f   libucrt:lseek.obj
 0001:00031f59       _write$fin$0               0000000180032f59 f   libucrt:write.obj
 0001:00031f70       _ctrlfp$filt$0             0000000180032f70 f   libucrt:fpctrl.obj
 0001:00031fa0       _IsNonwritableInCurrentImage$filt$0 0000000180032fa0 f   LIBCMT:pesect.obj
 0002:000002c0       ?__scrt_initialize_tss_var@@3P6AHXZEA 00000001800342c0     LIBCMT:thread_safe_statics.obj
 0002:000004e0       GS_ExceptionPointers       00000001800344e0     LIBCMT:gs_report.obj
 0002:00000520       ?ExceptionTemplate@?1??_UnwindNestedFrames@@9@4U_EXCEPTION_RECORD@@B 0000000180034520     libvcruntime:risctrnsctrl.obj
 0002:000005c0       ?ExceptionTemplate@?1??_CxxThrowException@@9@4UEHExceptionRecord@@B 00000001800345c0     libvcruntime:throw.obj
 0002:00000600       ?module_names@?A0x2db55455@@3QBQEB_WB 0000000180034600     libvcruntime:winapi_downlevel.obj
 0002:000006d0       ?candidate_modules@?1??try_get_FlsAlloc@@YAP6AKP6AXPEAX@Z@ZXZ@4QBW4module_id@?A0x2db55455@@B 00000001800346d0     libvcruntime:winapi_downlevel.obj
 0002:000006e8       ?candidate_modules@?1??try_get_FlsFree@@YAP6AHK@ZXZ@4QBW4module_id@?A0x2db55455@@B 00000001800346e8     libvcruntime:winapi_downlevel.obj
 0002:000006f8       ?candidate_modules@?1??try_get_FlsGetValue@@YAP6APEAXK@ZXZ@4QBW4module_id@?A0x2db55455@@B 00000001800346f8     libvcruntime:winapi_downlevel.obj
 0002:00000710       ?candidate_modules@?1??try_get_FlsSetValue@@YAP6AHKPEAX@ZXZ@4QBW4module_id@?A0x2db55455@@B 0000000180034710     libvcruntime:winapi_downlevel.obj
 0002:00000728       ?candidate_modules@?1??try_get_InitializeCriticalSectionEx@@YAP6AHPEAU_RTL_CRITICAL_SECTION@@KK@ZXZ@4QBW4module_id@?A0x2db55455@@B 0000000180034728     libvcruntime:winapi_downlevel.obj
 0002:00000780       ?tokenTable@@3QBQEBDB      0000000180034780     libvcruntime:undname.obj
 0002:000007f0       ?nameTable@@3QBQEBDB       00000001800347f0     libvcruntime:undname.obj
 0002:00000a80       ?rttiTable@@3QBQEBDB       0000000180034a80     libvcruntime:undname.obj
 0002:00001500       __acrt_initializers        0000000180035500     libucrt:initialization.obj
 0002:00001680       ?errtable@@3QBUerrentry@?A0x31fdb9ec@@B 0000000180035680     libucrt:errno.obj
 0002:00001e60       ?_mb_locale_names@@3QBQEB_WB 0000000180035e60     libucrt:mbctype.obj
 0002:00001ec0       ?module_names@?A0x391cf84c@@3QBQEB_WB 0000000180035ec0     libucrt:winapi_thunks.obj
 0002:000023b8       ?candidate_modules@?1??try_get_FlsAlloc@@YAP6AKP6AXPEAX@Z@ZXZ@4QBW4module_id@?A0x391cf84c@@B 00000001800363b8     libucrt:winapi_thunks.obj
 0002:000023c0       ?candidate_modules@?1??try_get_FlsFree@@YAP6AHK@ZXZ@4QBW4module_id@?A0x391cf84c@@B 00000001800363c0     libucrt:winapi_thunks.obj
 0002:000023c8       ?candidate_modules@?1??try_get_FlsGetValue@@YAP6APEAXK@ZXZ@4QBW4module_id@?A0x391cf84c@@B 00000001800363c8     libucrt:winapi_thunks.obj
 0002:000023d0       ?candidate_modules@?1??try_get_FlsSetValue@@YAP6AHKPEAX@ZXZ@4QBW4module_id@?A0x391cf84c@@B 00000001800363d0     libucrt:winapi_thunks.obj
 0002:000023d8       ?candidate_modules@?1??try_get_GetActiveWindow@@YAP6APEAUHWND__@@XZXZ@4QBW4module_id@?A0x391cf84c@@B 00000001800363d8     libucrt:winapi_thunks.obj
 0002:000023f0       ?candidate_modules@?1??try_get_GetLastActivePopup@@YAP6APEAUHWND__@@PEAU2@@ZXZ@4QBW4module_id@?A0x391cf84c@@B 00000001800363f0     libucrt:winapi_thunks.obj
 0002:00002410       ?candidate_modules@?1??try_get_GetProcessWindowStation@@YAP6APEAUHWINSTA__@@XZXZ@4QBW4module_id@?A0x391cf84c@@B 0000000180036410     libucrt:winapi_thunks.obj
 0002:00002430       ?candidate_modules@?1??try_get_GetUserObjectInformationW@@YAP6AHPEAXH0KPEAK@ZXZ@4QBW4module_id@?A0x391cf84c@@B 0000000180036430     libucrt:winapi_thunks.obj
 0002:00002458       ?candidate_modules@?1??try_get_InitializeCriticalSectionEx@@YAP6AHPEAU_RTL_CRITICAL_SECTION@@KK@ZXZ@4QBW4module_id@?A0x391cf84c@@B 0000000180036458     libucrt:winapi_thunks.obj
 0002:00002460       ?candidate_modules@?1??try_get_LCMapStringEx@@YAP6AHPEB_WK0HPEA_WHPEAU_nlsversioninfo@@PEAX_J@ZXZ@4QBW4module_id@?A0x391cf84c@@B 0000000180036460     libucrt:winapi_thunks.obj
 0002:00002478       ?candidate_modules@?1??try_get_LocaleNameToLCID@@YAP6AKPEB_WK@ZXZ@4QBW4module_id@?A0x391cf84c@@B 0000000180036478     libucrt:winapi_thunks.obj
 0002:00002498       ?candidate_modules@?1??try_get_MessageBoxA@@YAP6AHPEAUHWND__@@PEBD1I@ZXZ@4QBW4module_id@?A0x391cf84c@@B 0000000180036498     libucrt:winapi_thunks.obj
 0002:000024b0       ?candidate_modules@?1??try_get_MessageBoxW@@YAP6AHPEAUHWND__@@PEB_W1I@ZXZ@4QBW4module_id@?A0x391cf84c@@B 00000001800364b0     libucrt:winapi_thunks.obj
 0002:000024c4       ?candidate_modules@?1??try_get_AppPolicyGetProcessTerminationMethod@@YAP6AJPEAXPEAW4AppPolicyProcessTerminationMethod@@@ZXZ@4QBW4module_id@?A0x391cf84c@@B 00000001800364c4     libucrt:winapi_thunks.obj
 0002:000024f0       ?candidate_modules@?1??try_get_AppPolicyGetShowDeveloperDiagnostic@@YAP6AJPEAXPEAW4AppPolicyShowDeveloperDiagnostic@@@ZXZ@4QBW4module_id@?A0x391cf84c@@B 00000001800364f0     libucrt:winapi_thunks.obj
 0002:0000251c       ?candidate_modules@?1??try_get_AppPolicyGetWindowingModel@@YAP6AJPEAXPEAW4AppPolicyWindowingModel@@@ZXZ@4QBW4module_id@?A0x391cf84c@@B 000000018003651c     libucrt:winapi_thunks.obj
 0002:00003790       ?LocaleNameToIndexTable@?A0x881e4c05@@3QBULocaleNameIndex@1@B 0000000180037790     libucrt:lcidtoname_downlevel.obj
 0002:00005030       ?LcidToLocaleNameTable@?A0x881e4c05@@3QBULcidToLocaleName@1@B 0000000180039030     libucrt:lcidtoname_downlevel.obj
 0002:00006aa0       __real_ninf                000000018003aaa0     libucrt:log10.obj
 0002:00006ab0       __real_inf                 000000018003aab0     libucrt:log10.obj
 0002:00006ac0       __real_neg_qnan            000000018003aac0     libucrt:log10.obj
 0002:00006ad0       __real_qnanbit             000000018003aad0     libucrt:log10.obj
 0002:00006ae0       __int_1023                 000000018003aae0     libucrt:log10.obj
 0002:00006af0       __mask_001                 000000018003aaf0     libucrt:log10.obj
 0002:00006b00       __mask_mant                000000018003ab00     libucrt:log10.obj
 0002:00006b10       __mask_mant_top8           000000018003ab10     libucrt:log10.obj
 0002:00006b20       __mask_mant9               000000018003ab20     libucrt:log10.obj
 0002:00006b30       __real_log10_e             000000018003ab30     libucrt:log10.obj
 0002:00006b40       __real_log10_e_lead        000000018003ab40     libucrt:log10.obj
 0002:00006b50       __real_log10_e_tail        000000018003ab50     libucrt:log10.obj
 0002:00006b60       __real_log10_2_lead        000000018003ab60     libucrt:log10.obj
 0002:00006b70       __real_log10_2_tail        000000018003ab70     libucrt:log10.obj
 0002:00006b80       __real_two                 000000018003ab80     libucrt:log10.obj
 0002:00006b90       __real_one                 000000018003ab90     libucrt:log10.obj
 0002:00006ba0       __real_half                000000018003aba0     libucrt:log10.obj
 0002:00006bb0       __mask_100                 000000018003abb0     libucrt:log10.obj
 0002:00006bc0       __real_1_over_512          000000018003abc0     libucrt:log10.obj
 0002:00006bd0       __real_1_over_2            000000018003abd0     libucrt:log10.obj
 0002:00006be0       __real_1_over_3            000000018003abe0     libucrt:log10.obj
 0002:00006bf0       __real_1_over_4            000000018003abf0     libucrt:log10.obj
 0002:00006c00       __real_1_over_5            000000018003ac00     libucrt:log10.obj
 0002:00006c10       __real_1_over_6            000000018003ac10     libucrt:log10.obj
 0002:00006c20       __real_neg_1023            000000018003ac20     libucrt:log10.obj
 0002:00006c30       __mask_2045                000000018003ac30     libucrt:log10.obj
 0002:00006c40       __real_threshold           000000018003ac40     libucrt:log10.obj
 0002:00006c50       __real_near_one_lt         000000018003ac50     libucrt:log10.obj
 0002:00006c60       __real_near_one_gt         000000018003ac60     libucrt:log10.obj
 0002:00006c70       __real_min_norm            000000018003ac70     libucrt:log10.obj
 0002:00006c80       __real_notsign             000000018003ac80     libucrt:log10.obj
 0002:00006c90       __real_ca1                 000000018003ac90     libucrt:log10.obj
 0002:00006ca0       __real_ca2                 000000018003aca0     libucrt:log10.obj
 0002:00006cb0       __real_ca3                 000000018003acb0     libucrt:log10.obj
 0002:00006cc0       __real_ca4                 000000018003acc0     libucrt:log10.obj
 0002:00006cd0       __mask_lower               000000018003acd0     libucrt:log10.obj
 0002:00006ce0       __flag_x_zero              000000018003ace0     libucrt:log10.obj
 0002:00006ce4       __flag_x_neg               000000018003ace4     libucrt:log10.obj
 0002:00006ce8       __flag_x_nan               000000018003ace8     libucrt:log10.obj
 0002:00008540       __real@433fffffffffffff    000000018003c540     libucrt:fpsr.obj
 0002:00008548       __real@c33fffffffffffff    000000018003c548     libucrt:fpsr.obj
 0002:00009bb8       $cppxdata$?InitModule@@YAXV?$Local@VObject@v8@@@v8@@@Z 000000018003dbb8     main.obj
 0002:00009cf0       $cppxdata$?_Destroy@?$_Ref_count@V?$ScopedSSL@Uevp_pkey_st@@$1?ScopedEVP_PKEY_free@@YAXPEAX@Z@@@std@@EEAAXXZ 000000018003dcf0     key_exp.obj
 0002:00009d18       $cppxdata$??1?$ScopedSSL@Uec_key_st@@$1?ScopedEC_KEY_free@@YAXPEAX@Z@@QEAA@XZ 000000018003dd18     ec_gen.obj
 0002:00009d18       $cppxdata$??1?$ScopedSSL@Uec_group_st@@$1?ScopedEC_GROUP_free@@YAXPEAX@Z@@QEAA@XZ 000000018003dd18     ec_jwk.obj
 0002:00009d18       $cppxdata$??1?$ScopedSSL@UECDSA_SIG_st@@$1?ScopedECDSA_SIG_free@@YAXPEAX@Z@@QEAA@XZ 000000018003dd18     ec_dsa.obj
 0002:00009d18       $cppxdata$??1?$ScopedSSL@Uenv_md_ctx_st@@$1?ScopedEVP_MD_CTX_free@@YAXPEAX@Z@@QEAA@XZ 000000018003dd18     rsa_pkcs1.obj
 0002:00009d18       $cppxdata$??1?$ScopedSSL@Ursa_st@@$1?ScopedRSA_free@@YAXPEAX@Z@@QEAA@XZ 000000018003dd18     w_key.obj
 0002:00009d18       $cppxdata$??1?$ScopedSSL@Uevp_pkey_ctx_st@@$1?ScopedEVP_PKEY_CTX_free@@YAXPEAX@Z@@QEAA@XZ 000000018003dd18     rsa_oaep.obj
 0002:00009d18       $cppxdata$??1?$ScopedSSL@Ubio_st@@$1?ScopedBIO_free@@YAXPEAX@Z@@QEAA@XZ 000000018003dd18     key_exp.obj
 0002:00009d18       $cppxdata$??1?$ScopedSSL@Uevp_cipher_ctx_st@@$1?ScopedEVP_CIPHER_CTX_free@@YAXPEAX@Z@@QEAA@XZ 000000018003dd18     aes_ecb.obj
 0002:00009d18       $cppxdata$??1?$ScopedSSL@Ubignum_st@@$1?ScopedBIGNUM_free@@YAXPEAX@Z@@QEAA@XZ 000000018003dd18     rsa_gen.obj
 0002:00009d18       $cppxdata$??1?$ScopedSSL@Uevp_pkey_st@@$1?ScopedEVP_PKEY_free@@YAXPEAX@Z@@QEAA@XZ 000000018003dd18     key_exp.obj
 0002:00009d18       $cppxdata$??1?$ScopedSSL@Ubignum_ctx@@$1?ScopedBN_CTX_free@@YAXPEAX@Z@@QEAA@XZ 000000018003dd18     ec_jwk.obj
 0002:00009d40       $cppxdata$?KEY_import@@YA?AV?$shared_ptr@V?$ScopedSSL@Uevp_pkey_st@@$1?ScopedEVP_PKEY_free@@YAXPEAX@Z@@@std@@PEAUbio_st@@P6APEAUevp_pkey_st@@0PEAPEAU4@@Z@Z 000000018003dd40     key_exp.obj
 0002:00009d68       $cppxdata$?KEY_export@@YA?AV?$shared_ptr@V?$basic_string@DU?$char_traits@D@std@@V?$allocator@D@2@@std@@@std@@PEAUevp_pkey_st@@P6AHPEAUbio_st@@0@Z@Z 000000018003dd68     key_exp.obj
 0002:00009d90       $cppxdata$?OPENSSL_get_errors@@YA?AV?$basic_string@DU?$char_traits@D@std@@V?$allocator@D@2@@std@@XZ 000000018003dd90     excep.obj
 0002:00009db8       $cppxdata$?digest@@YA?AV?$shared_ptr@V?$basic_string@DU?$char_traits@D@std@@V?$allocator@D@2@@std@@@std@@PEBUenv_md_st@@V12@@Z 000000018003ddb8     digest.obj
 0002:00009de0       $cppxdata$?RSA_generate@@YA?AV?$shared_ptr@V?$ScopedSSL@Uevp_pkey_st@@$1?ScopedEVP_PKEY_free@@YAXPEAX@Z@@@std@@HH@Z 000000018003dde0     rsa_gen.obj
 0002:00009e08       $cppxdata$??_GJwkRsa@@QEAAPEAXI@Z 000000018003de08     rsa_jwk.obj
 0002:00009e30       $cppxdata$?To@JwkRsa@@QEAA?AV?$shared_ptr@V?$ScopedSSL@Uevp_pkey_st@@$1?ScopedEVP_PKEY_free@@YAXPEAX@Z@@@std@@AEAH@Z 000000018003de30     rsa_jwk.obj
 0002:00009e58       $cppxdata$?From@JwkRsa@@SA?AV?$shared_ptr@VJwkRsa@@@std@@V?$shared_ptr@V?$ScopedSSL@Uevp_pkey_st@@$1?ScopedEVP_PKEY_free@@YAXPEAX@Z@@@3@AEAH@Z 000000018003de58     rsa_jwk.obj
 0002:00009e80       $cppxdata$?RSA_PKCS1_verify@@YA_NV?$shared_ptr@V?$ScopedSSL@Uevp_pkey_st@@$1?ScopedEVP_PKEY_free@@YAXPEAX@Z@@@std@@PEBUenv_md_st@@V?$shared_ptr@V?$basic_string@DU?$char_traits@D@std@@V?$allocator@D@2@@std@@@2@2@Z 000000018003de80     rsa_pkcs1.obj
 0002:00009ea8       $cppxdata$?RSA_PKCS1_sign@@YA?AV?$shared_ptr@V?$basic_string@DU?$char_traits@D@std@@V?$allocator@D@2@@std@@@std@@V?$shared_ptr@V?$ScopedSSL@Uevp_pkey_st@@$1?ScopedEVP_PKEY_free@@YAXPEAX@Z@@@2@PEBUenv_md_st@@V12@@Z 000000018003dea8     rsa_pkcs1.obj
 0002:00009ed0       $cppxdata$?RSA_OAEP_enc_dec@@YA?AV?$shared_ptr@V?$basic_string@DU?$char_traits@D@std@@V?$allocator@D@2@@std@@@std@@V?$shared_ptr@V?$ScopedSSL@Uevp_pkey_st@@$1?ScopedEVP_PKEY_free@@YAXPEAX@Z@@@2@PEBUenv_md_st@@V12@2_N@Z 000000018003ded0     rsa_oaep.obj
 0002:00009ef8       $cppxdata$?RSA_PSS_verify@@YA_NV?$shared_ptr@V?$ScopedSSL@Uevp_pkey_st@@$1?ScopedEVP_PKEY_free@@YAXPEAX@Z@@@std@@PEBUenv_md_st@@HV?$shared_ptr@V?$basic_string@DU?$char_traits@D@std@@V?$allocator@D@2@@std@@@2@2@Z 000000018003def8     rsa_pss.obj
 0002:00009f20       $cppxdata$?RSA_PSS_sign@@YA?AV?$shared_ptr@V?$basic_string@DU?$char_traits@D@std@@V?$allocator@D@2@@std@@@std@@V?$shared_ptr@V?$ScopedSSL@Uevp_pkey_st@@$1?ScopedEVP_PKEY_free@@YAXPEAX@Z@@@2@PEBUenv_md_st@@HV12@@Z 000000018003df20     rsa_pss.obj
 0002:00009f48       $cppxdata$?setRsaPssParams@@YAXPEBUenv_md_st@@HPEAUevp_pkey_ctx_st@@@Z 000000018003df48     rsa_pss.obj
 0002:00009f70       $cppxdata$?EC_generate@@YA?AV?$shared_ptr@V?$ScopedSSL@Uevp_pkey_st@@$1?ScopedEVP_PKEY_free@@YAXPEAX@Z@@@std@@AEAH@Z 000000018003df70     ec_gen.obj
 0002:00009f98       $cppxdata$?EC_DSA_verify@@YA_NV?$shared_ptr@V?$ScopedSSL@Uevp_pkey_st@@$1?ScopedEVP_PKEY_free@@YAXPEAX@Z@@@std@@PEBUenv_md_st@@V?$shared_ptr@V?$basic_string@DU?$char_traits@D@std@@V?$allocator@D@2@@std@@@2@2@Z 000000018003df98     ec_dsa.obj
 0002:00009fc0       $cppxdata$?EC_DSA_sign@@YA?AV?$shared_ptr@V?$basic_string@DU?$char_traits@D@std@@V?$allocator@D@2@@std@@@std@@V?$shared_ptr@V?$ScopedSSL@Uevp_pkey_st@@$1?ScopedEVP_PKEY_free@@YAXPEAX@Z@@@2@PEBUenv_md_st@@V12@@Z 000000018003dfc0     ec_dsa.obj
 0002:00009fe8       $cppxdata$?ConvertDerSignatureToWebCryptoSignature@@YA?AV?$shared_ptr@V?$basic_string@DU?$char_traits@D@std@@V?$allocator@D@2@@std@@@std@@PEAUevp_pkey_st@@PEBEAEA_K@Z 000000018003dfe8     ec_dsa.obj
 0002:0000a010       $cppxdata$?ConvertWebCryptoSignatureToDerSignature@@YA?AV?$shared_ptr@V?$basic_string@DU?$char_traits@D@std@@V?$allocator@D@2@@std@@@std@@PEAUevp_pkey_st@@PEBEAEB_KPEA_N@Z 000000018003e010     ec_dsa.obj
 0002:0000a038       $cppxdata$?GetEcGroupOrderSize@@YA_KPEAUevp_pkey_st@@@Z 000000018003e038     ec_dsa.obj
 0002:0000a060       $cppxdata$?ECDH_derive_bits@@YA?AV?$shared_ptr@V?$basic_string@DU?$char_traits@D@std@@V?$allocator@D@2@@std@@@std@@V?$shared_ptr@V?$ScopedSSL@Uevp_pkey_st@@$1?ScopedEVP_PKEY_free@@YAXPEAX@Z@@@2@0_NI@Z 000000018003e060     ec_dh.obj
 0002:0000a088       $cppxdata$?EC_get_named_curve@@YAHPEAUec_key_st@@@Z 000000018003e088     ec_dh.obj
 0002:0000a0b0       $cppxdata$?ECDH_derive_key@@YA?AV?$shared_ptr@V?$basic_string@DU?$char_traits@D@std@@V?$allocator@D@2@@std@@@std@@V?$shared_ptr@V?$ScopedSSL@Uevp_pkey_st@@$1?ScopedEVP_PKEY_free@@YAXPEAX@Z@@@2@0AEA_K@Z 000000018003e0b0     ec_dh.obj
 0002:0000a0d8       $cppxdata$?_Destroy@?$_Ref_count@VJwkEc@@@std@@EEAAXXZ 000000018003e0d8     ec_jwk.obj
 0002:0000a100       $cppxdata$?To@JwkEc@@QEAA?AV?$shared_ptr@V?$ScopedSSL@Uevp_pkey_st@@$1?ScopedEVP_PKEY_free@@YAXPEAX@Z@@@std@@AEAH@Z 000000018003e100     ec_jwk.obj
 0002:0000a128       $cppxdata$?From@JwkEc@@SA?AV?$shared_ptr@VJwkEc@@@std@@V?$shared_ptr@V?$ScopedSSL@Uevp_pkey_st@@$1?ScopedEVP_PKEY_free@@YAXPEAX@Z@@@3@AEAH@Z 000000018003e128     ec_jwk.obj
 0002:0000a150       $cppxdata$??_GScopedHMAC@@QEAAPEAXI@Z 000000018003e150     hmac_gen.obj
 0002:0000a150       $cppxdata$??_GScopedPbkdf2@@QEAAPEAXI@Z 000000018003e150     async_pbkdf2.obj
 0002:0000a150       $cppxdata$??_GScopedAES@@QEAAPEAXI@Z 000000018003e150     aes_gen.obj
 0002:0000a178       $cppxdata$?AES_ECB_encrypt@@YA?AV?$shared_ptr@V?$basic_string@DU?$char_traits@D@std@@V?$allocator@D@2@@std@@@std@@V12@0_N@Z 000000018003e178     aes_ecb.obj
 0002:0000a1a0       $cppxdata$?unwrap@ScopedAES@@QEAA?AV?$shared_ptr@V?$basic_string@DU?$char_traits@D@std@@V?$allocator@D@2@@std@@@std@@V23@@Z 000000018003e1a0     aes_cbc.obj
 0002:0000a1c8       $cppxdata$?wrap@ScopedAES@@QEAA?AV?$shared_ptr@V?$basic_string@DU?$char_traits@D@std@@V?$allocator@D@2@@std@@@std@@V23@@Z 000000018003e1c8     aes_cbc.obj
 0002:0000a1f0       $cppxdata$?decryptCbc@ScopedAES@@QEAA?AV?$shared_ptr@V?$basic_string@DU?$char_traits@D@std@@V?$allocator@D@2@@std@@@std@@V23@0@Z 000000018003e1f0     aes_cbc.obj
 0002:0000a218       $cppxdata$?encryptCbc@ScopedAES@@QEAA?AV?$shared_ptr@V?$basic_string@DU?$char_traits@D@std@@V?$allocator@D@2@@std@@@std@@V23@0@Z 000000018003e218     aes_cbc.obj
 0002:0000a240       $cppxdata$?AES_CBC_encrypt@@YA?AV?$shared_ptr@V?$basic_string@DU?$char_traits@D@std@@V?$allocator@D@2@@std@@@std@@V12@00_N@Z 000000018003e240     aes_cbc.obj
 0002:0000a268       $cppxdata$?decryptGcm@ScopedAES@@QEAA?AV?$shared_ptr@V?$basic_string@DU?$char_traits@D@std@@V?$allocator@D@2@@std@@@std@@V23@00H@Z 000000018003e268     aes_gcm.obj
 0002:0000a290       $cppxdata$?encryptGcm@ScopedAES@@QEAA?AV?$shared_ptr@V?$basic_string@DU?$char_traits@D@std@@V?$allocator@D@2@@std@@@std@@V23@00H@Z 000000018003e290     aes_gcm.obj
 0002:0000a2b8       $cppxdata$?AES_GCM_decrypt@@YA?AV?$shared_ptr@V?$basic_string@DU?$char_traits@D@std@@V?$allocator@D@2@@std@@@std@@V12@000H@Z 000000018003e2b8     aes_gcm.obj
 0002:0000a2e0       $cppxdata$?AES_GCM_encrypt@@YA?AV?$shared_ptr@V?$basic_string@DU?$char_traits@D@std@@V?$allocator@D@2@@std@@@std@@V12@000H@Z 000000018003e2e0     aes_gcm.obj
 0002:0000a308       $cppxdata$?decryptCtr@ScopedAES@@QEAA?AV?$shared_ptr@V?$basic_string@DU?$char_traits@D@std@@V?$allocator@D@2@@std@@@std@@V23@0H@Z 000000018003e308     aes_ctr.obj
 0002:0000a308       $cppxdata$?encryptCtr@ScopedAES@@QEAA?AV?$shared_ptr@V?$basic_string@DU?$char_traits@D@std@@V?$allocator@D@2@@std@@@std@@V23@0H@Z 000000018003e308     aes_ctr.obj
 0002:0000a330       $cppxdata$?AES_CTR_encrypt@@YA?AV?$shared_ptr@V?$basic_string@DU?$char_traits@D@std@@V?$allocator@D@2@@std@@@std@@V12@00H_N@Z 000000018003e330     aes_ctr.obj
 0002:0000a358       $cppxdata$?generate@ScopedHMAC@@SA?AV?$shared_ptr@VScopedHMAC@@@std@@AEAH@Z 000000018003e358     hmac_gen.obj
 0002:0000a380       $cppxdata$?verify@ScopedHMAC@@QEAA_NV?$shared_ptr@V?$basic_string@DU?$char_traits@D@std@@V?$allocator@D@2@@std@@@std@@PEBUenv_md_st@@0@Z 000000018003e380     hmac_sign.obj
 0002:0000a3a8       $cppxdata$?sign@ScopedHMAC@@QEAA?AV?$shared_ptr@V?$basic_string@DU?$char_traits@D@std@@V?$allocator@D@2@@std@@@std@@V23@PEBUenv_md_st@@@Z 000000018003e3a8     hmac_sign.obj
 0002:0000a3d0       $cppxdata$?deriveBits@ScopedPbkdf2@@QEAA?AV?$shared_ptr@V?$basic_string@DU?$char_traits@D@std@@V?$allocator@D@2@@std@@@std@@V23@_KPEBUenv_md_st@@1@Z 000000018003e3d0     pbkdf2_derive.obj
 0002:0000a3f8       $cppxdata$?bn2buf@@YA?AV?$Local@VObject@v8@@@v8@@PEAUbignum_st@@@Z 000000018003e3f8     common.obj
 0002:0000a420       $cppxdata$?String_to_v8Buffer@@YA?AV?$Local@VObject@v8@@@v8@@V?$shared_ptr@V?$basic_string@DU?$char_traits@D@std@@V?$allocator@D@2@@std@@@std@@@Z 000000018003e420     common.obj
 0002:0000a448       $cppxdata$?v8Buffer_to_String@@YA?AV?$shared_ptr@V?$basic_string@DU?$char_traits@D@std@@V?$allocator@D@2@@std@@@std@@V?$Local@VValue@v8@@@v8@@@Z 000000018003e448     common.obj
 0002:0000a470       $cppxdata$??$SetMethodAux@V?$Local@VFunction@v8@@@v8@@@imp@Nan@@YAXV?$Local@VFunction@v8@@@v8@@V?$Local@VString@v8@@@3@V?$Local@VFunctionTemplate@v8@@@3@ZZ 000000018003e470     w_key.obj
 0002:0000a498       $cppxdata$?EcdhDeriveBits@WKey@@SAXAEBV?$FunctionCallbackInfo@VValue@v8@@@Nan@@@Z 000000018003e498     w_key.obj
 0002:0000a4c0       $cppxdata$?EcdhDeriveKey@WKey@@SAXAEBV?$FunctionCallbackInfo@VValue@v8@@@Nan@@@Z 000000018003e4c0     w_key.obj
 0002:0000a4e8       $cppxdata$?RsaPssVerify@WKey@@SAXAEBV?$FunctionCallbackInfo@VValue@v8@@@Nan@@@Z 000000018003e4e8     w_key.obj
 0002:0000a510       $cppxdata$?RsaPssSign@WKey@@SAXAEBV?$FunctionCallbackInfo@VValue@v8@@@Nan@@@Z 000000018003e510     w_key.obj
 0002:0000a538       $cppxdata$?RsaOaepEncDec@WKey@@SAXAEBV?$FunctionCallbackInfo@VValue@v8@@@Nan@@@Z 000000018003e538     w_key.obj
 0002:0000a560       $cppxdata$?Verify@WKey@@SAXAEBV?$FunctionCallbackInfo@VValue@v8@@@Nan@@@Z 000000018003e560     w_key.obj
 0002:0000a588       $cppxdata$?Sign@WKey@@SAXAEBV?$FunctionCallbackInfo@VValue@v8@@@Nan@@@Z 000000018003e588     w_key.obj
 0002:0000a5b0       $cppxdata$?ImportJwk@WKey@@SAXAEBV?$FunctionCallbackInfo@VValue@v8@@@Nan@@@Z 000000018003e5b0     w_key.obj
 0002:0000a5d8       $cppxdata$?ImportSpki@WKey@@SAXAEBV?$FunctionCallbackInfo@VValue@v8@@@Nan@@@Z 000000018003e5d8     w_key.obj
 0002:0000a600       $cppxdata$?ImportPkcs8@WKey@@SAXAEBV?$FunctionCallbackInfo@VValue@v8@@@Nan@@@Z 000000018003e600     w_key.obj
 0002:0000a628       $cppxdata$?ExportPkcs8@WKey@@SAXAEBV?$FunctionCallbackInfo@VValue@v8@@@Nan@@@Z 000000018003e628     w_key.obj
 0002:0000a650       $cppxdata$?ExportSpki@WKey@@SAXAEBV?$FunctionCallbackInfo@VValue@v8@@@Nan@@@Z 000000018003e650     w_key.obj
 0002:0000a678       $cppxdata$?ExportJwk@WKey@@SAXAEBV?$FunctionCallbackInfo@VValue@v8@@@Nan@@@Z 000000018003e678     w_key.obj
 0002:0000a6a0       $cppxdata$?GenerateEc@WKey@@SAXAEBV?$FunctionCallbackInfo@VValue@v8@@@Nan@@@Z 000000018003e6a0     w_key.obj
 0002:0000a6c8       $cppxdata$?GenerateRsa@WKey@@SAXAEBV?$FunctionCallbackInfo@VValue@v8@@@Nan@@@Z 000000018003e6c8     w_key.obj
 0002:0000a6f0       $cppxdata$?PublicExponent@WKey@@SAXAEBV?$FunctionCallbackInfo@VValue@v8@@@Nan@@@Z 000000018003e6f0     w_key.obj
 0002:0000a718       $cppxdata$?ModulusLength@WKey@@SAXAEBV?$FunctionCallbackInfo@VValue@v8@@@Nan@@@Z 000000018003e718     w_key.obj
 0002:0000a740       $cppxdata$??_GWKey@@UEAAPEAXI@Z 000000018003e740     w_key.obj
 0002:0000a740       $cppxdata$??_GWHmac@@UEAAPEAXI@Z 000000018003e740     w_hmac.obj
 0002:0000a740       $cppxdata$??_GWPbkdf2@@UEAAPEAXI@Z 000000018003e740     w_pbkdf2.obj
 0002:0000a740       $cppxdata$??_GWAes@@UEAAPEAXI@Z 000000018003e740     w_aes.obj
 0002:0000a768       $cppxdata$?New@WKey@@SAXAEBV?$FunctionCallbackInfo@VValue@v8@@@Nan@@@Z 000000018003e768     w_key.obj
 0002:0000a790       $cppxdata$??_GAsyncEcdhDeriveBits@@UEAAPEAXI@Z 000000018003e790     w_key.obj
 0002:0000a7b8       $cppxdata$??_GAsyncEcdsaVerify@@UEAAPEAXI@Z 000000018003e7b8     w_key.obj
 0002:0000a7e0       $cppxdata$??0AsyncEcdsaVerify@@QEAA@PEAVCallback@Nan@@PEBUenv_md_st@@V?$shared_ptr@V?$ScopedSSL@Uevp_pkey_st@@$1?ScopedEVP_PKEY_free@@YAXPEAX@Z@@@std@@V?$shared_ptr@V?$basic_string@DU?$char_traits@D@std@@V?$allocator@D@2@@std@@@5@3@Z 000000018003e7e0     w_key.obj
 0002:0000a808       $cppxdata$??_GAsyncEcdsaSign@@UEAAPEAXI@Z 000000018003e808     w_key.obj
 0002:0000a830       $cppxdata$??_GAsyncEcImportJwk@@UEAAPEAXI@Z 000000018003e830     w_key.obj
 0002:0000a858       $cppxdata$??_GAsyncEcExportJwk@@UEAAPEAXI@Z 000000018003e858     w_key.obj
 0002:0000a880       $cppxdata$??_GAsyncEcdhDeriveKey@@UEAAPEAXI@Z 000000018003e880     w_key.obj
 0002:0000a8a8       $cppxdata$??_GAsyncEcGenerateKey@@UEAAPEAXI@Z 000000018003e8a8     w_key.obj
 0002:0000a8d0       $cppxdata$??_GAsyncVerifyRsaPSS@@UEAAPEAXI@Z 000000018003e8d0     w_key.obj
 0002:0000a8f8       $cppxdata$??0AsyncVerifyRsaPSS@@QEAA@PEAVCallback@Nan@@PEBUenv_md_st@@V?$shared_ptr@V?$ScopedSSL@Uevp_pkey_st@@$1?ScopedEVP_PKEY_free@@YAXPEAX@Z@@@std@@HV?$shared_ptr@V?$basic_string@DU?$char_traits@D@std@@V?$allocator@D@2@@std@@@5@3@Z 000000018003e8f8     w_key.obj
 0002:0000a920       $cppxdata$??_GAsyncSignRsaPSS@@UEAAPEAXI@Z 000000018003e920     w_key.obj
 0002:0000a948       $cppxdata$??_GAsyncVerifyRsa@@UEAAPEAXI@Z 000000018003e948     w_key.obj
 0002:0000a970       $cppxdata$??0AsyncVerifyRsa@@QEAA@PEAVCallback@Nan@@PEBUenv_md_st@@V?$shared_ptr@V?$ScopedSSL@Uevp_pkey_st@@$1?ScopedEVP_PKEY_free@@YAXPEAX@Z@@@std@@V?$shared_ptr@V?$basic_string@DU?$char_traits@D@std@@V?$allocator@D@2@@std@@@5@3@Z 000000018003e970     w_key.obj
 0002:0000a998       $cppxdata$??_GAsyncSignRsa@@UEAAPEAXI@Z 000000018003e998     w_key.obj
 0002:0000a9c0       $cppxdata$??_GAsyncImportJwkRsa@@UEAAPEAXI@Z 000000018003e9c0     w_key.obj
 0002:0000a9e8       $cppxdata$??_GAsyncImportSpki@@UEAAPEAXI@Z 000000018003e9e8     w_key.obj
 0002:0000aa10       $cppxdata$??_GAsyncImportPkcs8@@UEAAPEAXI@Z 000000018003ea10     w_key.obj
 0002:0000aa38       $cppxdata$??_GAsyncExportPkcs8@@UEAAPEAXI@Z 000000018003ea38     w_key.obj
 0002:0000aa60       $cppxdata$??_GAsyncExportSpki@@UEAAPEAXI@Z 000000018003ea60     w_key.obj
 0002:0000aa88       $cppxdata$??_GAsyncExportJwkRsa@@UEAAPEAXI@Z 000000018003ea88     w_key.obj
 0002:0000aab0       $cppxdata$??_GAsyncEncrypDecryptRsaOAEP@@UEAAPEAXI@Z 000000018003eab0     w_key.obj
 0002:0000aad8       $cppxdata$??0AsyncEncrypDecryptRsaOAEP@@QEAA@PEAVCallback@Nan@@V?$shared_ptr@V?$ScopedSSL@Uevp_pkey_st@@$1?ScopedEVP_PKEY_free@@YAXPEAX@Z@@@std@@PEBUenv_md_st@@V?$shared_ptr@V?$basic_string@DU?$char_traits@D@std@@V?$allocator@D@2@@std@@@4@3_N@Z 000000018003ead8     w_key.obj
 0002:0000ab00       $cppxdata$??_GAsyncRsaGenerateKey@@UEAAPEAXI@Z 000000018003eb00     w_key.obj
 0002:0000ab28       $cppxdata$??__Fmy_constructor@?1??constructor@WKey@@KAAEAV?$Persistent@VFunction@v8@@V?$NonCopyablePersistentTraits@VFunction@v8@@@2@@Nan@@XZ@YAXXZ 000000018003eb28     w_key.obj
 0002:0000ab50       $cppxdata$?NewInstance@WKey@@SA?AV?$Local@VObject@v8@@@v8@@XZ 000000018003eb50     w_key.obj
 0002:0000ab78       $cppxdata$?SetPrototypeMethod@Nan@@YAXV?$Local@VFunctionTemplate@v8@@@v8@@PEBDP6AXAEBV?$FunctionCallbackInfo@VValue@v8@@@1@@Z@Z 000000018003eb78     w_key.obj
 0002:0000aba0       $cppxdata$?AsyncExecuteComplete@Nan@@YAXPEAUuv_work_s@@@Z 000000018003eba0     w_key.obj
 0002:0000abc8       $cppxdata$??1?$Persistent@VObject@v8@@V?$NonCopyablePersistentTraits@VObject@v8@@@2@@Nan@@QEAA@XZ 000000018003ebc8     w_key.obj
 0002:0000abf0       $cppxdata$?HandleErrorCallback@AsyncWorker@Nan@@MEAAXXZ 000000018003ebf0     w_key.obj
 0002:0000ac18       $cppxdata$?HandleOKCallback@AsyncWorker@Nan@@MEAAXXZ 000000018003ec18     w_key.obj
 0002:0000ac40       $cppxdata$?WorkComplete@AsyncWorker@Nan@@UEAAXXZ 000000018003ec40     w_key.obj
 0002:0000ac68       $cppxdata$??1AsyncWorker@Nan@@UEAA@XZ 000000018003ec68     w_key.obj
 0002:0000ac90       $cppxdata$??0AsyncWorker@Nan@@QEAA@PEAVCallback@1@@Z 000000018003ec90     w_key.obj
 0002:0000acb8       $cppxdata$?Call@Callback@Nan@@QEBA?AV?$Local@VValue@v8@@@v8@@HQEAV34@@Z 000000018003ecb8     w_key.obj
 0002:0000ace0       $cppxdata$?ThrowError@Nan@@YAXV?$Local@VString@v8@@@v8@@@Z 000000018003ece0     w_key.obj
 0002:0000ad08       $cppxdata$?ThrowError@Nan@@YAXPEBD@Z 000000018003ed08     w_key.obj
 0002:0000ad30       $cppxdata$?New@?$Factory@VFunctionTemplate@v8@@@imp@Nan@@SA?AV?$Local@VFunctionTemplate@v8@@@v8@@P6AXAEBV?$FunctionCallbackInfo@VValue@v8@@@3@@ZV?$Local@VValue@v8@@@5@V?$Local@VSignature@v8@@@5@@Z 000000018003ed30     w_key.obj
 0002:0000ad58       $cppxdata$?Get@Nan@@YA?AV?$MaybeLocal@VValue@v8@@@v8@@V?$Local@VObject@v8@@@3@V?$Local@VValue@v8@@@3@@Z 000000018003ed58     w_key.obj
 0002:0000ad80       $cppxdata$?Set@Nan@@YA?AV?$Maybe@_N@v8@@V?$Local@VObject@v8@@@3@V?$Local@VValue@v8@@@3@1@Z 000000018003ed80     w_key.obj
 0002:0000ada8       $cppxdata$??1ObjectWrap@node@@UEAA@XZ 000000018003eda8     w_key.obj
 0002:0000add0       $cppxdata$?Init@WKey@@SAXV?$Local@VObject@v8@@@v8@@@Z 000000018003edd0     w_key.obj
 0002:0000adf8       $cppxdata$?DecryptCtr@WAes@@SAXAEBV?$FunctionCallbackInfo@VValue@v8@@@Nan@@@Z 000000018003edf8     w_aes.obj
 0002:0000ae20       $cppxdata$?EncryptCtr@WAes@@SAXAEBV?$FunctionCallbackInfo@VValue@v8@@@Nan@@@Z 000000018003ee20     w_aes.obj
 0002:0000ae48       $cppxdata$?UnwrapKey@WAes@@SAXAEBV?$FunctionCallbackInfo@VValue@v8@@@Nan@@@Z 000000018003ee48     w_aes.obj
 0002:0000ae70       $cppxdata$?WrapKey@WAes@@SAXAEBV?$FunctionCallbackInfo@VValue@v8@@@Nan@@@Z 000000018003ee70     w_aes.obj
 0002:0000ae98       $cppxdata$?DecryptGcm@WAes@@SAXAEBV?$FunctionCallbackInfo@VValue@v8@@@Nan@@@Z 000000018003ee98     w_aes.obj
 0002:0000aec0       $cppxdata$?EncryptGcm@WAes@@SAXAEBV?$FunctionCallbackInfo@VValue@v8@@@Nan@@@Z 000000018003eec0     w_aes.obj
 0002:0000aee8       $cppxdata$?Import@WAes@@SAXAEBV?$FunctionCallbackInfo@VValue@v8@@@Nan@@@Z 000000018003eee8     w_aes.obj
 0002:0000af10       $cppxdata$?Export@WHmac@@SAXAEBV?$FunctionCallbackInfo@VValue@v8@@@Nan@@@Z 000000018003ef10     w_hmac.obj
 0002:0000af10       $cppxdata$?Export@WAes@@SAXAEBV?$FunctionCallbackInfo@VValue@v8@@@Nan@@@Z 000000018003ef10     w_aes.obj
 0002:0000af38       $cppxdata$?DecryptEcb@WAes@@SAXAEBV?$FunctionCallbackInfo@VValue@v8@@@Nan@@@Z 000000018003ef38     w_aes.obj
 0002:0000af60       $cppxdata$?EncryptEcb@WAes@@SAXAEBV?$FunctionCallbackInfo@VValue@v8@@@Nan@@@Z 000000018003ef60     w_aes.obj
 0002:0000af88       $cppxdata$?Decrypt@WAes@@SAXAEBV?$FunctionCallbackInfo@VValue@v8@@@Nan@@@Z 000000018003ef88     w_aes.obj
 0002:0000afb0       $cppxdata$?Encrypt@WAes@@SAXAEBV?$FunctionCallbackInfo@VValue@v8@@@Nan@@@Z 000000018003efb0     w_aes.obj
 0002:0000afd8       $cppxdata$?Generate@WAes@@SAXAEBV?$FunctionCallbackInfo@VValue@v8@@@Nan@@@Z 000000018003efd8     w_aes.obj
 0002:0000b000       $cppxdata$?New@WAes@@SAXAEBV?$FunctionCallbackInfo@VValue@v8@@@Nan@@@Z 000000018003f000     w_aes.obj
 0002:0000b028       $cppxdata$??__Fmy_constructor@?1??constructor@WAes@@KAAEAV?$Persistent@VFunction@v8@@V?$NonCopyablePersistentTraits@VFunction@v8@@@2@@Nan@@XZ@YAXXZ 000000018003f028     w_aes.obj
 0002:0000b050       $cppxdata$??_GAsyncAesEncryptCTR@@UEAAPEAXI@Z 000000018003f050     w_aes.obj
 0002:0000b078       $cppxdata$??0AsyncAesEncryptCTR@@QEAA@PEAVCallback@Nan@@V?$shared_ptr@VScopedAES@@@std@@V?$shared_ptr@V?$basic_string@DU?$char_traits@D@std@@V?$allocator@D@2@@std@@@4@2H_N@Z 000000018003f078     w_aes.obj
 0002:0000b0a0       $cppxdata$??_GAsyncAesWrapKey@@UEAAPEAXI@Z 000000018003f0a0     w_aes.obj
 0002:0000b0c8       $cppxdata$??0AsyncAesWrapKey@@QEAA@PEAVCallback@Nan@@V?$shared_ptr@VScopedAES@@@std@@V?$shared_ptr@V?$basic_string@DU?$char_traits@D@std@@V?$allocator@D@2@@std@@@4@_N@Z 000000018003f0c8     w_aes.obj
 0002:0000b0f0       $cppxdata$??1AsyncAesEncryptGCM@@UEAA@XZ 000000018003f0f0     w_aes.obj
 0002:0000b118       $cppxdata$??0AsyncAesEncryptGCM@@QEAA@PEAVCallback@Nan@@V?$shared_ptr@VScopedAES@@@std@@V?$shared_ptr@V?$basic_string@DU?$char_traits@D@std@@V?$allocator@D@2@@std@@@4@22H_N@Z 000000018003f118     w_aes.obj
 0002:0000b140       $cppxdata$??_GAsyncAesImport@@UEAAPEAXI@Z 000000018003f140     w_aes.obj
 0002:0000b168       $cppxdata$??_GAsyncAesExport@@UEAAPEAXI@Z 000000018003f168     w_aes.obj
 0002:0000b168       $cppxdata$??_GAsyncHmacExport@@UEAAPEAXI@Z 000000018003f168     w_hmac.obj
 0002:0000b190       $cppxdata$??_GAsyncAesEncryptECB@@UEAAPEAXI@Z 000000018003f190     w_aes.obj
 0002:0000b1b8       $cppxdata$??0AsyncAesEncryptECB@@QEAA@PEAVCallback@Nan@@V?$shared_ptr@VScopedAES@@@std@@V?$shared_ptr@V?$basic_string@DU?$char_traits@D@std@@V?$allocator@D@2@@std@@@4@_N@Z 000000018003f1b8     w_aes.obj
 0002:0000b1e0       $cppxdata$??_GAsyncAesEncryptCBC@@UEAAPEAXI@Z 000000018003f1e0     w_aes.obj
 0002:0000b208       $cppxdata$??0AsyncAesEncryptCBC@@QEAA@PEAVCallback@Nan@@V?$shared_ptr@VScopedAES@@@std@@V?$shared_ptr@V?$basic_string@DU?$char_traits@D@std@@V?$allocator@D@2@@std@@@4@2_N@Z 000000018003f208     w_aes.obj
 0002:0000b230       $cppxdata$??_GAsyncAesGenerateKey@@UEAAPEAXI@Z 000000018003f230     w_aes.obj
 0002:0000b258       $cppxdata$?Init@WAes@@SAXV?$Local@VObject@v8@@@v8@@@Z 000000018003f258     w_aes.obj
 0002:0000b280       $cppxdata$?Verify@WHmac@@SAXAEBV?$FunctionCallbackInfo@VValue@v8@@@Nan@@@Z 000000018003f280     w_hmac.obj
 0002:0000b2a8       $cppxdata$?Sign@WHmac@@SAXAEBV?$FunctionCallbackInfo@VValue@v8@@@Nan@@@Z 000000018003f2a8     w_hmac.obj
 0002:0000b2d0       $cppxdata$?Import@WHmac@@SAXAEBV?$FunctionCallbackInfo@VValue@v8@@@Nan@@@Z 000000018003f2d0     w_hmac.obj
 0002:0000b2f8       $cppxdata$?Generate@WHmac@@SAXAEBV?$FunctionCallbackInfo@VValue@v8@@@Nan@@@Z 000000018003f2f8     w_hmac.obj
 0002:0000b320       $cppxdata$?New@WHmac@@SAXAEBV?$FunctionCallbackInfo@VValue@v8@@@Nan@@@Z 000000018003f320     w_hmac.obj
 0002:0000b348       $cppxdata$??__Fmy_constructor@?1??constructor@WHmac@@KAAEAV?$Persistent@VFunction@v8@@V?$NonCopyablePersistentTraits@VFunction@v8@@@2@@Nan@@XZ@YAXXZ 000000018003f348     w_hmac.obj
 0002:0000b370       $cppxdata$??_GAsyncHmacVerify@@UEAAPEAXI@Z 000000018003f370     w_hmac.obj
 0002:0000b398       $cppxdata$??0AsyncHmacVerify@@QEAA@PEAVCallback@Nan@@PEBUenv_md_st@@V?$shared_ptr@VScopedHMAC@@@std@@V?$shared_ptr@V?$basic_string@DU?$char_traits@D@std@@V?$allocator@D@2@@std@@@5@3@Z 000000018003f398     w_hmac.obj
 0002:0000b3c0       $cppxdata$??_GAsyncHmacSign@@UEAAPEAXI@Z 000000018003f3c0     w_hmac.obj
 0002:0000b3e8       $cppxdata$??_GAsyncHmacImport@@UEAAPEAXI@Z 000000018003f3e8     w_hmac.obj
 0002:0000b410       $cppxdata$??_GAsyncHmacGenerateKey@@UEAAPEAXI@Z 000000018003f410     w_hmac.obj
 0002:0000b438       $cppxdata$?Init@WHmac@@SAXV?$Local@VObject@v8@@@v8@@@Z 000000018003f438     w_hmac.obj
 0002:0000b460       $cppxdata$?DeriveBits@WPbkdf2@@SAXAEBV?$FunctionCallbackInfo@VValue@v8@@@Nan@@@Z 000000018003f460     w_pbkdf2.obj
 0002:0000b488       $cppxdata$?ImportKey@WPbkdf2@@SAXAEBV?$FunctionCallbackInfo@VValue@v8@@@Nan@@@Z 000000018003f488     w_pbkdf2.obj
 0002:0000b4b0       $cppxdata$?New@WPbkdf2@@SAXAEBV?$FunctionCallbackInfo@VValue@v8@@@Nan@@@Z 000000018003f4b0     w_pbkdf2.obj
 0002:0000b4d8       $cppxdata$??__Fmy_constructor@?1??constructor@WPbkdf2@@KAAEAV?$Persistent@VFunction@v8@@V?$NonCopyablePersistentTraits@VFunction@v8@@@2@@Nan@@XZ@YAXXZ 000000018003f4d8     w_pbkdf2.obj
 0002:0000b500       $cppxdata$??_GAsyncPbkdf2DeriveBits@@UEAAPEAXI@Z 000000018003f500     w_pbkdf2.obj
 0002:0000b528       $cppxdata$??_GAsyncPbkdf2Import@@UEAAPEAXI@Z 000000018003f528     w_pbkdf2.obj
 0002:0000b550       $cppxdata$?Init@WPbkdf2@@SAXV?$Local@VObject@v8@@@v8@@@Z 000000018003f550     w_pbkdf2.obj
 0002:0000b578       $cppxdata$?Digest@WCore@@SAXAEBV?$FunctionCallbackInfo@VValue@v8@@@Nan@@@Z 000000018003f578     w_core.obj
 0002:0000b5a0       $cppxdata$?New@WCore@@SAXAEBV?$FunctionCallbackInfo@VValue@v8@@@Nan@@@Z 000000018003f5a0     w_core.obj
 0002:0000b5c8       $cppxdata$??__Fmy_constructor@?1??constructor@WCore@@KAAEAV?$Persistent@VFunction@v8@@V?$NonCopyablePersistentTraits@VFunction@v8@@@2@@Nan@@XZ@YAXXZ 000000018003f5c8     w_core.obj
 0002:0000b5f0       $cppxdata$??_GAsyncDigest@@UEAAPEAXI@Z 000000018003f5f0     w_core.obj
 0002:0000b618       $cppxdata$?Init@WCore@@SAXV?$Local@VObject@v8@@@v8@@@Z 000000018003f618     w_core.obj
 0002:0000b640       $cppxdata$?HandleOKCallback@AsyncExportJwkRsa@@UEAAXXZ 000000018003f640     async_rsa.obj
 0002:0000b668       $cppxdata$?Execute@AsyncExportJwkRsa@@UEAAXXZ 000000018003f668     async_rsa.obj
 0002:0000b690       $cppxdata$?HandleOKCallback@AsyncSignRsaPSS@@UEAAXXZ 000000018003f690     async_rsa.obj
 0002:0000b6b8       $cppxdata$?Execute@AsyncSignRsaPSS@@UEAAXXZ 000000018003f6b8     async_rsa.obj
 0002:0000b6e0       $cppxdata$?Execute@AsyncExportPkcs8@@UEAAXXZ 000000018003f6e0     async_rsa.obj
 0002:0000b708       $cppxdata$?HandleOKCallback@AsyncExportSpki@@UEAAXXZ 000000018003f708     async_rsa.obj
 0002:0000b708       $cppxdata$?HandleOKCallback@AsyncExportPkcs8@@UEAAXXZ 000000018003f708     async_rsa.obj
 0002:0000b730       $cppxdata$?Execute@AsyncExportSpki@@UEAAXXZ 000000018003f730     async_rsa.obj
 0002:0000b758       $cppxdata$?Execute@AsyncImportSpki@@UEAAXXZ 000000018003f758     async_rsa.obj
 0002:0000b780       $cppxdata$?HandleOKCallback@AsyncEcdsaSign@@UEAAXXZ 000000018003f780     async_ec.obj
 0002:0000b780       $cppxdata$?HandleOKCallback@AsyncSignRsa@@UEAAXXZ 000000018003f780     async_rsa.obj
 0002:0000b780       $cppxdata$?HandleOKCallback@AsyncHmacSign@@UEAAXXZ 000000018003f780     async_hmac.obj
 0002:0000b7a8       $cppxdata$?Execute@AsyncSignRsa@@UEAAXXZ 000000018003f7a8     async_rsa.obj
 0002:0000b7d0       $cppxdata$?HandleOKCallback@AsyncVerifyRsa@@UEAAXXZ 000000018003f7d0     async_rsa.obj
 0002:0000b7d0       $cppxdata$?HandleOKCallback@AsyncHmacVerify@@UEAAXXZ 000000018003f7d0     async_hmac.obj
 0002:0000b7d0       $cppxdata$?HandleOKCallback@AsyncEcdsaVerify@@UEAAXXZ 000000018003f7d0     async_ec.obj
 0002:0000b7f8       $cppxdata$?Execute@AsyncVerifyRsa@@UEAAXXZ 000000018003f7f8     async_rsa.obj
 0002:0000b820       $cppxdata$?HandleOKCallback@AsyncVerifyRsaPSS@@UEAAXXZ 000000018003f820     async_rsa.obj
 0002:0000b848       $cppxdata$?Execute@AsyncVerifyRsaPSS@@UEAAXXZ 000000018003f848     async_rsa.obj
 0002:0000b870       $cppxdata$?HandleOKCallback@AsyncImportSpki@@UEAAXXZ 000000018003f870     async_rsa.obj
 0002:0000b870       $cppxdata$?HandleOKCallback@AsyncImportPkcs8@@UEAAXXZ 000000018003f870     async_rsa.obj
 0002:0000b898       $cppxdata$?Execute@AsyncImportPkcs8@@UEAAXXZ 000000018003f898     async_rsa.obj
 0002:0000b8c0       $cppxdata$?HandleOKCallback@AsyncImportJwkRsa@@UEAAXXZ 000000018003f8c0     async_rsa.obj
 0002:0000b8c0       $cppxdata$?HandleOKCallback@AsyncEcImportJwk@@UEAAXXZ 000000018003f8c0     async_ec.obj
 0002:0000b8e8       $cppxdata$?Execute@AsyncImportJwkRsa@@UEAAXXZ 000000018003f8e8     async_rsa.obj
 0002:0000b910       $cppxdata$?HandleOKCallback@AsyncEcGenerateKey@@UEAAXXZ 000000018003f910     async_ec.obj
 0002:0000b910       $cppxdata$?HandleOKCallback@AsyncRsaGenerateKey@@UEAAXXZ 000000018003f910     async_rsa.obj
 0002:0000b938       $cppxdata$?Execute@AsyncRsaGenerateKey@@UEAAXXZ 000000018003f938     async_rsa.obj
 0002:0000b960       $cppxdata$?HandleOKCallback@AsyncEncrypDecryptRsaOAEP@@UEAAXXZ 000000018003f960     async_rsa.obj
 0002:0000b988       $cppxdata$?Execute@AsyncEncrypDecryptRsaOAEP@@UEAAXXZ 000000018003f988     async_rsa.obj
 0002:0000b9b0       $cppxdata$?Execute@AsyncEcdsaSign@@UEAAXXZ 000000018003f9b0     async_ec.obj
 0002:0000b9d8       $cppxdata$?HandleOKCallback@AsyncAesEncryptECB@@UEAAXXZ 000000018003f9d8     async_aes.obj
 0002:0000b9d8       $cppxdata$?HandleOKCallback@AsyncEcdhDeriveKey@@UEAAXXZ 000000018003f9d8     async_ec.obj
 0002:0000b9d8       $cppxdata$?HandleOKCallback@AsyncAesWrapKey@@UEAAXXZ 000000018003f9d8     async_aes.obj
 0002:0000b9d8       $cppxdata$?HandleOKCallback@AsyncEcdhDeriveBits@@UEAAXXZ 000000018003f9d8     async_ec.obj
 0002:0000ba00       $cppxdata$?Execute@AsyncEcdhDeriveKey@@UEAAXXZ 000000018003fa00     async_ec.obj
 0002:0000ba28       $cppxdata$?Execute@AsyncEcImportJwk@@UEAAXXZ 000000018003fa28     async_ec.obj
 0002:0000ba50       $cppxdata$?HandleOKCallback@AsyncEcExportJwk@@UEAAXXZ 000000018003fa50     async_ec.obj
 0002:0000ba78       $cppxdata$?Execute@AsyncEcExportJwk@@UEAAXXZ 000000018003fa78     async_ec.obj
 0002:0000baa0       $cppxdata$?Execute@AsyncEcdsaVerify@@UEAAXXZ 000000018003faa0     async_ec.obj
 0002:0000bac8       $cppxdata$?Execute@AsyncEcGenerateKey@@UEAAXXZ 000000018003fac8     async_ec.obj
 0002:0000baf0       $cppxdata$?Execute@AsyncEcdhDeriveBits@@UEAAXXZ 000000018003faf0     async_ec.obj
 0002:0000bb18       $cppxdata$?NewInstance@WAes@@SA?AV?$Local@VObject@v8@@@v8@@XZ 000000018003fb18     async_aes.obj
 0002:0000bb40       $cppxdata$?Execute@AsyncAesEncryptCTR@@UEAAXXZ 000000018003fb40     async_aes.obj
 0002:0000bb68       $cppxdata$?HandleOKCallback@AsyncHmacExport@@UEAAXXZ 000000018003fb68     async_hmac.obj
 0002:0000bb68       $cppxdata$?HandleOKCallback@AsyncAesExport@@UEAAXXZ 000000018003fb68     async_aes.obj
 0002:0000bb90       $cppxdata$?HandleOKCallback@AsyncAesImport@@UEAAXXZ 000000018003fb90     async_aes.obj
 0002:0000bbb8       $cppxdata$?Execute@AsyncAesImport@@UEAAXXZ 000000018003fbb8     async_aes.obj
 0002:0000bbe0       $cppxdata$?HandleOKCallback@AsyncAesGenerateKey@@UEAAXXZ 000000018003fbe0     async_aes.obj
 0002:0000bc08       $cppxdata$?Execute@AsyncAesGenerateKey@@UEAAXXZ 000000018003fc08     async_aes.obj
 0002:0000bc30       $cppxdata$?Execute@AsyncAesWrapKey@@UEAAXXZ 000000018003fc30     async_aes.obj
 0002:0000bc58       $cppxdata$?HandleOKCallback@AsyncAesEncryptGCM@@UEAAXXZ 000000018003fc58     async_aes.obj
 0002:0000bc80       $cppxdata$?Execute@AsyncAesEncryptGCM@@UEAAXXZ 000000018003fc80     async_aes.obj
 0002:0000bca8       $cppxdata$?HandleOKCallback@AsyncAesEncryptCTR@@UEAAXXZ 000000018003fca8     async_aes.obj
 0002:0000bca8       $cppxdata$?HandleOKCallback@AsyncAesEncryptCBC@@UEAAXXZ 000000018003fca8     async_aes.obj
 0002:0000bcd0       $cppxdata$?Execute@AsyncAesEncryptCBC@@UEAAXXZ 000000018003fcd0     async_aes.obj
 0002:0000bcf8       $cppxdata$?Execute@AsyncAesEncryptECB@@UEAAXXZ 000000018003fcf8     async_aes.obj
 0002:0000bd20       $cppxdata$?NewInstance@WHmac@@SA?AV?$Local@VObject@v8@@@v8@@XZ 000000018003fd20     async_hmac.obj
 0002:0000bd48       $cppxdata$?HandleOKCallback@AsyncHmacImport@@UEAAXXZ 000000018003fd48     async_hmac.obj
 0002:0000bd70       $cppxdata$?Execute@AsyncHmacImport@@UEAAXXZ 000000018003fd70     async_hmac.obj
 0002:0000bd98       $cppxdata$?Execute@AsyncHmacSign@@UEAAXXZ 000000018003fd98     async_hmac.obj
 0002:0000bdc0       $cppxdata$?HandleOKCallback@AsyncHmacGenerateKey@@UEAAXXZ 000000018003fdc0     async_hmac.obj
 0002:0000bde8       $cppxdata$?Execute@AsyncHmacGenerateKey@@UEAAXXZ 000000018003fde8     async_hmac.obj
 0002:0000be10       $cppxdata$?Execute@AsyncHmacVerify@@UEAAXXZ 000000018003fe10     async_hmac.obj
 0002:0000be38       $cppxdata$?HandleOKCallback@AsyncPbkdf2DeriveBits@@UEAAXXZ 000000018003fe38     async_pbkdf2.obj
 0002:0000be60       $cppxdata$?Execute@AsyncPbkdf2DeriveBits@@UEAAXXZ 000000018003fe60     async_pbkdf2.obj
 0002:0000be88       $cppxdata$?HandleOKCallback@AsyncPbkdf2Import@@UEAAXXZ 000000018003fe88     async_pbkdf2.obj
 0002:0000beb0       $cppxdata$?Execute@AsyncPbkdf2Import@@UEAAXXZ 000000018003feb0     async_pbkdf2.obj
 0002:0000bed8       $cppxdata$?HandleOKCallback@AsyncDigest@@UEAAXXZ 000000018003fed8     async_core.obj
 0002:0000bf00       $cppxdata$?Execute@AsyncDigest@@UEAAXXZ 000000018003ff00     async_core.obj
 0002:0000c8c0       $unwind$?EcNamedCurves@@YAXV?$Local@VObject@v8@@@v8@@@Z 00000001800408c0     main.obj
 0002:0000c8cc       $unwind$?InitModule@@YAXV?$Local@VObject@v8@@@v8@@@Z 00000001800408cc     main.obj
 0002:0000c8e0       $stateUnwindMap$?HandleOKCallback@AsyncAesImport@@UEAAXXZ 00000001800408e0     async_aes.obj
 0002:0000c8e0       $stateUnwindMap$?HandleOKCallback@AsyncVerifyRsaPSS@@UEAAXXZ 00000001800408e0     async_rsa.obj
 0002:0000c8e0       $stateUnwindMap$?HandleOKCallback@AsyncAesGenerateKey@@UEAAXXZ 00000001800408e0     async_aes.obj
 0002:0000c8e0       $stateUnwindMap$?HandleOKCallback@AsyncHmacVerify@@UEAAXXZ 00000001800408e0     async_hmac.obj
 0002:0000c8e0       $stateUnwindMap$?HandleOKCallback@AsyncImportSpki@@UEAAXXZ 00000001800408e0     async_rsa.obj
 0002:0000c8e0       $stateUnwindMap$?HandleOKCallback@AsyncImportJwkRsa@@UEAAXXZ 00000001800408e0     async_rsa.obj
 0002:0000c8e0       $stateUnwindMap$?HandleOKCallback@AsyncImportPkcs8@@UEAAXXZ 00000001800408e0     async_rsa.obj
 0002:0000c8e0       $stateUnwindMap$?HandleOKCallback@AsyncHmacImport@@UEAAXXZ 00000001800408e0     async_hmac.obj
 0002:0000c8e0       $stateUnwindMap$?HandleOKCallback@AsyncEcGenerateKey@@UEAAXXZ 00000001800408e0     async_ec.obj
 0002:0000c8e0       $stateUnwindMap$?SetPrototypeMethod@Nan@@YAXV?$Local@VFunctionTemplate@v8@@@v8@@PEBDP6AXAEBV?$FunctionCallbackInfo@VValue@v8@@@1@@Z@Z 00000001800408e0     w_key.obj
 0002:0000c8e0       $stateUnwindMap$?HandleErrorCallback@AsyncWorker@Nan@@MEAAXXZ 00000001800408e0     w_key.obj
 0002:0000c8e0       $stateUnwindMap$?ThrowError@Nan@@YAXPEBD@Z 00000001800408e0     w_key.obj
 0002:0000c8e0       $stateUnwindMap$?HandleOKCallback@AsyncRsaGenerateKey@@UEAAXXZ 00000001800408e0     async_rsa.obj
 0002:0000c8e0       $stateUnwindMap$?HandleOKCallback@AsyncVerifyRsa@@UEAAXXZ 00000001800408e0     async_rsa.obj
 0002:0000c8e0       $stateUnwindMap$?HandleOKCallback@AsyncEcImportJwk@@UEAAXXZ 00000001800408e0     async_ec.obj
 0002:0000c8e0       $stateUnwindMap$?InitModule@@YAXV?$Local@VObject@v8@@@v8@@@Z 00000001800408e0     main.obj
 0002:0000c8e0       $stateUnwindMap$?HandleOKCallback@AsyncEcdsaVerify@@UEAAXXZ 00000001800408e0     async_ec.obj
 0002:0000c8e0       $stateUnwindMap$?HandleOKCallback@AsyncHmacGenerateKey@@UEAAXXZ 00000001800408e0     async_hmac.obj
 0002:0000c8e8       $ip2state$?InitModule@@YAXV?$Local@VObject@v8@@@v8@@@Z 00000001800408e8     main.obj
 0002:0000c900       $unwind$__acrt_AppPolicyGetWindowingModelInternal 0000000180040900     libucrt:winapi_thunks.obj
 0002:0000c900       $unwind$_onexit            0000000180040900     LIBCMT:utility.obj
 0002:0000c900       $unwind$??_G?$_Ref_count@VJwkRsa@@@std@@UEAAPEAXI@Z 0000000180040900     rsa_jwk.obj
 0002:0000c900       $unwind$__acrt_get_parent_window 0000000180040900     libucrt:winapi_thunks.obj
 0002:0000c900       $unwind$_CreateFrameInfo   0000000180040900     libvcruntime:risctrnsctrl.obj
 0002:0000c900       $unwind$__raise_securityfailure 0000000180040900     LIBCMT:gs_report.obj
 0002:0000c900       $unwind$?Ref@ObjectWrap@node@@MEAAXXZ 0000000180040900     w_key.obj
 0002:0000c900       $unwind$?BN_bn2bin_padded@@YAHPEAE_KPEBUbignum_st@@@Z 0000000180040900     bn.obj
 0002:0000c900       $unwind$?Unref@ObjectWrap@node@@MEAAXXZ 0000000180040900     w_key.obj
 0002:0000c900       $unwind$__vcrt_uninitialize_locks 0000000180040900     libvcruntime:locks.obj
 0002:0000c900       $unwind$_callnewh          0000000180040900     libucrt:new_handler.obj
 0002:0000c900       $unwind$?WeakCallback@ObjectWrap@node@@CAXAEBV?$WeakCallbackInfo@VObjectWrap@node@@@v8@@@Z 0000000180040900     w_key.obj
 0002:0000c900       $unwind$_clearfp           0000000180040900     libucrt:ieee.obj
 0002:0000c900       $unwind$_set_statfp        0000000180040900     libucrt:fpctrl.obj
 0002:0000c900       $unwind$__vcrt_initialize_locks 0000000180040900     libvcruntime:locks.obj
 0002:0000c900       $unwind$__acrt_AppPolicyGetShowDeveloperDiagnosticInternal 0000000180040900     libucrt:winapi_thunks.obj
 0002:0000c900       $unwind$__acrt_AppPolicyGetProcessTerminationMethodInternal 0000000180040900     libucrt:winapi_thunks.obj
 0002:0000c900       $unwind$?try_cor_exit_process@@YAXI@Z 0000000180040900     libucrt:exit.obj
 0002:0000c900       $unwind$?exit_or_terminate_process@@YAXI@Z 0000000180040900     libucrt:exit.obj
 0002:0000c900       $unwind$__acrt_uninitialize_stdio 0000000180040900     libucrt:_file.obj
 0002:0000c900       $unwind$_clrfp             0000000180040900     libucrt:fpctrl.obj
 0002:0000c900       $unwind$??1?$shared_ptr@VJwkRsa@@@std@@QEAA@XZ 0000000180040900     rsa_jwk.obj
 0002:0000c900       $unwind$__acrt_stdio_free_buffer_nolock 0000000180040900     libucrt:_freebuf.obj
 0002:0000c900       $unwind$??1?$shared_ptr@VScopedHMAC@@@std@@QEAA@XZ 0000000180040900     hmac_gen.obj
 0002:0000c900       $unwind$__acrt_stdio_allocate_buffer_nolock 0000000180040900     libucrt:_getbuf.obj
 0002:0000c900       $unwind$?internal_isupper_l@@YA_NHQEAU__crt_locale_pointers@@@Z 0000000180040900     libucrt:tolower_toupper.obj
 0002:0000c900       $unwind$??_G?$_Ref_count@VScopedHMAC@@@std@@UEAAPEAXI@Z 0000000180040900     hmac_gen.obj
 0002:0000c900       $unwind$??_G?$_Ref_count@V?$basic_string@DU?$char_traits@D@std@@V?$allocator@D@2@@std@@@std@@UEAAPEAXI@Z 0000000180040900     key_exp.obj
 0002:0000c900       $unwind$??_G?$_Ref_count@VScopedPbkdf2@@@std@@UEAAPEAXI@Z 0000000180040900     async_pbkdf2.obj
 0002:0000c900       $unwind$??1?$shared_ptr@VScopedAES@@@std@@QEAA@XZ 0000000180040900     aes_gen.obj
 0002:0000c900       $unwind$strcpy_s           0000000180040900     libucrt:strcpy_s.obj
 0002:0000c900       $unwind$??_G?$_Ref_count@V?$ScopedSSL@Uevp_pkey_st@@$1?ScopedEVP_PKEY_free@@YAXPEAX@Z@@@std@@UEAAPEAXI@Z 0000000180040900     key_exp.obj
 0002:0000c900       $unwind$_malloc_base       0000000180040900     libucrt:malloc_base.obj
 0002:0000c900       $unwind$__acrt_FlsGetValue 0000000180040900     libucrt:winapi_thunks.obj
 0002:0000c900       $unwind$__acrt_FlsFree     0000000180040900     libucrt:winapi_thunks.obj
 0002:0000c900       $unwind$??$Unwrap@VWKey@@@ObjectWrap@node@@SAPEAVWKey@@V?$Local@VObject@v8@@@v8@@@Z 0000000180040900     w_key.obj
 0002:0000c900       $unwind$??_G?$basic_string@DU?$char_traits@D@std@@V?$allocator@D@2@@std@@QEAAPEAXI@Z 0000000180040900     key_exp.obj
 0002:0000c900       $unwind$wcscat_s           0000000180040900     libucrt:wcscat_s.obj
 0002:0000c900       $unwind$__acrt_uninitialize_locks 0000000180040900     libucrt:locks.obj
 0002:0000c900       $unwind$__acrt_FlsAlloc    0000000180040900     libucrt:winapi_thunks.obj
 0002:0000c900       $unwind$__acrt_uninitialize_winapi_thunks 0000000180040900     libucrt:winapi_thunks.obj
 0002:0000c900       $unwind$initialize_pointers 0000000180040900     libucrt:initialization.obj
 0002:0000c900       $unwind$__vcrt_freeptd     0000000180040900     libvcruntime:per_thread_data.obj
 0002:0000c900       $unwind$wcscpy_s           0000000180040900     libucrt:wcscpy_s.obj
 0002:0000c900       $unwind$__acrt_update_locale_info 0000000180040900     libucrt:locale_update.obj
 0002:0000c900       $unwind$??1?$basic_string@DU?$char_traits@D@std@@V?$allocator@D@2@@std@@QEAA@XZ 0000000180040900     key_exp.obj
 0002:0000c900       $unwind$??_G?$_Ref_count@VJwkEc@@@std@@UEAAPEAXI@Z 0000000180040900     ec_jwk.obj
 0002:0000c900       $unwind$__acrt_freeptd     0000000180040900     libucrt:per_thread_data.obj
 0002:0000c900       $unwind$__acrt_update_multibyte_info 0000000180040900     libucrt:locale_update.obj
 0002:0000c900       $unwind$??_G?$_Ref_count@VScopedAES@@@std@@UEAAPEAXI@Z 0000000180040900     aes_gen.obj
 0002:0000c900       $unwind$??1?$shared_ptr@VJwkEc@@@std@@QEAA@XZ 0000000180040900     ec_jwk.obj
 0002:0000c900       $unwind$_Init_thread_notify 0000000180040900     LIBCMT:thread_safe_statics.obj
 0002:0000c900       $unwind$??1?$shared_ptr@V?$basic_string@DU?$char_traits@D@std@@V?$allocator@D@2@@std@@@std@@QEAA@XZ 0000000180040900     key_exp.obj
 0002:0000c900       $unwind$?__GetUnwindTryBlock@@YAHPEA_KPEAU_xDISPATCHER_CONTEXT@@PEBU_s_FuncInfo@@@Z 0000000180040900     libvcruntime:riscehstate.obj
 0002:0000c900       $unwind$__scrt_release_startup_lock 0000000180040900     LIBCMT:utility.obj
 0002:0000c900       $unwind$??1?$shared_ptr@V?$ScopedSSL@Uevp_pkey_st@@$1?ScopedEVP_PKEY_free@@YAXPEAX@Z@@@std@@QEAA@XZ 0000000180040900     key_exp.obj
 0002:0000c900       $unwind$??$Unwrap@VWHmac@@@ObjectWrap@node@@SAPEAVWHmac@@V?$Local@VObject@v8@@@v8@@@Z 0000000180040900     w_hmac.obj
 0002:0000c900       $unwind$??0?$shared_ptr@V?$ScopedSSL@Uevp_pkey_st@@$1?ScopedEVP_PKEY_free@@YAXPEAX@Z@@@std@@QEAA@AEBV01@@Z 0000000180040900     w_key.obj
 0002:0000c900       $unwind$?DloadReleaseSectionWriteAccess@@YAXXZ 0000000180040900     DelayImp:delayhlp.obj
 0002:0000c900       $unwind$fegetenv           0000000180040900     libucrt:fegetenv.obj
 0002:0000c900       $unwind$??$Unwrap@VWAes@@@ObjectWrap@node@@SAPEAVWAes@@V?$Local@VObject@v8@@@v8@@@Z 0000000180040900     w_aes.obj
 0002:0000c900       $unwind$_IsExceptionObjectToBeDestroyed 0000000180040900     libvcruntime:ehhelpers.obj
 0002:0000c900       $unwind$__acrt_getptd_head 0000000180040900     libucrt:per_thread_data.obj
 0002:0000c900       $unwind$?load_exe_hook@@YAP6A_JXZIPEAUDelayLoadInfo@@@Z 0000000180040900     win_delay_load_hook.obj
 0002:0000c900       $unwind$_SetThrowImageBase 0000000180040900     libvcruntime:risctrnsctrl.obj
 0002:0000c900       $unwind$??0length_error@std@@QEAA@AEBV01@@Z 0000000180040900     libcpmt:xthrow.obj
 0002:0000c900       $unwind$?__StateFromIp@@YAHPEBU_s_FuncInfo@@PEAU_xDISPATCHER_CONTEXT@@_K@Z 0000000180040900     libvcruntime:riscehstate.obj
 0002:0000c900       $unwind$??0exception@std@@QEAA@AEBV01@@Z 0000000180040900     libcpmt:xthrow.obj
 0002:0000c900       $unwind$_Init_thread_footer 0000000180040900     LIBCMT:thread_safe_statics.obj
 0002:0000c900       $unwind$_fflush_nolock     0000000180040900     libucrt:fflush.obj
 0002:0000c900       $unwind$??_Gtype_info@@UEAAPEAXI@Z 0000000180040900     LIBCMT:std_type_info_static.obj
 0002:0000c900       $unwind$__acrt_fp_strflt_to_string 0000000180040900     libucrt:_fptostr.obj
 0002:0000c900       $unwind$_Init_thread_header 0000000180040900     LIBCMT:thread_safe_statics.obj
 0002:0000c900       $unwind$__acrt_initialize_locks 0000000180040900     libucrt:locks.obj
 0002:0000c900       $unwind$feholdexcept       0000000180040900     libucrt:feholdexcept.obj
 0002:0000c900       $unwind$__std_exception_destroy 0000000180040900     libvcruntime:std_exception.obj
 0002:0000c900       $unwind$__scrt_uninitialize_crt 0000000180040900     LIBCMT:utility.obj
 0002:0000c900       $unwind$__std_type_info_destroy_list 0000000180040900     libvcruntime:std_type_info.obj
 0002:0000c900       $unwind$_calloc_base       0000000180040900     libucrt:calloc_base.obj
 0002:0000c900       $unwind$fesetenv           0000000180040900     libucrt:fesetenv.obj
 0002:0000c900       $unwind$??0bad_exception@std@@QEAA@AEBV01@@Z 0000000180040900     libvcruntime:frame.obj
 0002:0000c900       $unwind$??0bad_alloc@std@@QEAA@AEBV01@@Z 0000000180040900     libcpmt:xthrow.obj
 0002:0000c900       $unwind$??0out_of_range@std@@QEAA@AEBV01@@Z 0000000180040900     libcpmt:xthrow.obj
 0002:0000c900       $unwind$uninitialize_allocated_memory 0000000180040900     libucrt:initialization.obj
 0002:0000c900       $unwind$__acrt_get_windowing_model_policy 0000000180040900     libucrt:win_policies.obj
 0002:0000c900       $unwind$__acrt_get_developer_information_policy 0000000180040900     libucrt:win_policies.obj
 0002:0000c900       $unwind$__acrt_get_process_end_policy 0000000180040900     libucrt:win_policies.obj
 0002:0000c900       $unwind$_SetImageBase      0000000180040900     libvcruntime:risctrnsctrl.obj
 0002:0000c900       $unwind$??0logic_error@std@@QEAA@AEBV01@@Z 0000000180040900     libcpmt:xthrow.obj
 0002:0000c900       $unwind$??_Gruntime_error@std@@UEAAPEAXI@Z 0000000180040900     key_exp.obj
 0002:0000c900       $unwind$??2@YAPEAX_K@Z     0000000180040900     LIBCMT:new_scalar.obj
 0002:0000c900       $unwind$??0bad_array_new_length@std@@QEAA@AEBV01@@Z 0000000180040900     LIBCMT:throw_bad_alloc.obj
 0002:0000c900       $unwind$??$Unwrap@VWPbkdf2@@@ObjectWrap@node@@SAPEAVWPbkdf2@@V?$Local@VObject@v8@@@v8@@@Z 0000000180040900     w_pbkdf2.obj
 0002:0000c900       $unwind$_purecall          0000000180040900     libvcruntime:purevirt.obj
 0002:0000c900       $unwind$??1?$shared_ptr@VScopedPbkdf2@@@std@@QEAA@XZ 0000000180040900     w_pbkdf2.obj
 0002:0000c900       $unwind$??_Gexception@stdext@@UEAAPEAXI@Z 0000000180040900     key_exp.obj
 0002:0000c900       $unwind$__acrt_allocate_buffer_for_argv 0000000180040900     libucrt:argv_parsing.obj
 0002:0000c900       $unwind$__scrt_initialize_crt 0000000180040900     LIBCMT:utility.obj
 0002:0000c900       $unwind$??_G_Ref_count_base@std@@UEAAPEAXI@Z 0000000180040900     key_exp.obj
 0002:0000c908       $chain$0$?BN_bn2bin_padded@@YAHPEAE_KPEBUbignum_st@@@Z 0000000180040908     bn.obj
 0002:0000c91c       $chain$2$?BN_bn2bin_padded@@YAHPEAE_KPEBUbignum_st@@@Z 000000018004091c     bn.obj
 0002:0000c930       $unwind$?KEY_export@@YA?AV?$shared_ptr@V?$basic_string@DU?$char_traits@D@std@@V?$allocator@D@2@@std@@@std@@PEAUevp_pkey_st@@P6AHPEAUbio_st@@0@Z@Z 0000000180040930     key_exp.obj
 0002:0000c94c       $stateUnwindMap$?KEY_export@@YA?AV?$shared_ptr@V?$basic_string@DU?$char_traits@D@std@@V?$allocator@D@2@@std@@@std@@PEAUevp_pkey_st@@P6AHPEAUbio_st@@0@Z@Z 000000018004094c     key_exp.obj
 0002:0000c970       $ip2state$?KEY_export@@YA?AV?$shared_ptr@V?$basic_string@DU?$char_traits@D@std@@V?$allocator@D@2@@std@@@std@@PEAUevp_pkey_st@@P6AHPEAUbio_st@@0@Z@Z 0000000180040970     key_exp.obj
 0002:0000c9b0       $unwind$_write$fin$0       00000001800409b0     libucrt:write.obj
 0002:0000c9b0       $unwind$?dtor$2@?0??EncryptCtr@WAes@@SAXAEBV?$FunctionCallbackInfo@VValue@v8@@@Nan@@@Z@4HA 00000001800409b0     w_aes.obj
 0002:0000c9b0       $unwind$?fin$0@?0???$?RV<lambda_842d9ff0dc9ef11c61343bbaebe7f885>@@AEAV<lambda_c5860995281e5c4ce005b3de8f5874ee>@@V<lambda_d90129c13df834fdcbf8d2b88dafcf2d>@@@?$__crt_seh_guarded_call@X@@QEAAX$$QEAV<lambda_842d9ff0dc9ef11c61343bbaebe7f885>@@AEAV<lambda_c5860995281e5c4ce005b3de8f5874ee>@@$$QEAV<lambda_d90129c13df834fdcbf8d2b88dafcf2d>@@@Z@4HA 00000001800409b0     libucrt:fflush.obj
 0002:0000c9b0       $unwind$?dtor$0@?0??ExportJwk@WKey@@SAXAEBV?$FunctionCallbackInfo@VValue@v8@@@Nan@@@Z@4HA 00000001800409b0     w_key.obj
 0002:0000c9b0       $unwind$?dtor$2@?0??unwrap@ScopedAES@@QEAA?AV?$shared_ptr@V?$basic_string@DU?$char_traits@D@std@@V?$allocator@D@2@@std@@@std@@V23@@Z@4HA 00000001800409b0     aes_cbc.obj
 0002:0000c9b0       $unwind$?fin$0@?0???$?RV<lambda_886d6c58226a84441f68b9f2b8217b83>@@AEAV<lambda_ab61a845afdef5b7c387490eaf3616ee>@@V<lambda_f7f22ab5edc0698d5f6905b0d3f44752>@@@?$__crt_seh_guarded_call@X@@QEAAX$$QEAV<lambda_886d6c58226a84441f68b9f2b8217b83>@@AEAV<lambda_ab61a845afdef5b7c387490eaf3616ee>@@$$QEAV<lambda_f7f22ab5edc0698d5f6905b0d3f44752>@@@Z@4HA 00000001800409b0     libucrt:fflush.obj
 0002:0000c9b0       $unwind$?dtor$1@?0??UnwrapKey@WAes@@SAXAEBV?$FunctionCallbackInfo@VValue@v8@@@Nan@@@Z@4HA 00000001800409b0     w_aes.obj
 0002:0000c9b0       $unwind$?dtor$2@?0??DeriveBits@WPbkdf2@@SAXAEBV?$FunctionCallbackInfo@VValue@v8@@@Nan@@@Z@4HA 00000001800409b0     w_pbkdf2.obj
 0002:0000c9b0       $unwind$?dtor$5@?0??RsaOaepEncDec@WKey@@SAXAEBV?$FunctionCallbackInfo@VValue@v8@@@Nan@@@Z@4HA 00000001800409b0     w_key.obj
 0002:0000c9b0       $unwind$?fin$0@?0???$?RV<lambda_410d79af7f07d98d83a3f525b3859a53>@@AEAV<lambda_3e16ef9562a7dcce91392c22ab16ea36>@@V<lambda_38119f0e861e05405d8a144b9b982f0a>@@@?$__crt_seh_guarded_call@X@@QEAAX$$QEAV<lambda_410d79af7f07d98d83a3f525b3859a53>@@AEAV<lambda_3e16ef9562a7dcce91392c22ab16ea36>@@$$QEAV<lambda_38119f0e861e05405d8a144b9b982f0a>@@@Z@4HA 00000001800409b0     libucrt:wsetlocale.obj
 0002:0000c9b0       $unwind$?dtor$5@?0??ExportJwk@WKey@@SAXAEBV?$FunctionCallbackInfo@VValue@v8@@@Nan@@@Z@4HA 00000001800409b0     w_key.obj
 0002:0000c9b0       $unwind$?dtor$2@?0??UnwrapKey@WAes@@SAXAEBV?$FunctionCallbackInfo@VValue@v8@@@Nan@@@Z@4HA 00000001800409b0     w_aes.obj
 0002:0000c9b0       $unwind$?dtor$1@?0??ExportSpki@WKey@@SAXAEBV?$FunctionCallbackInfo@VValue@v8@@@Nan@@@Z@4HA 00000001800409b0     w_key.obj
 0002:0000c9b0       $unwind$?dtor$2@?0??From@JwkEc@@SA?AV?$shared_ptr@VJwkEc@@@std@@V?$shared_ptr@V?$ScopedSSL@Uevp_pkey_st@@$1?ScopedEVP_PKEY_free@@YAXPEAX@Z@@@3@AEAH@Z@4HA 00000001800409b0     ec_jwk.obj
 0002:0000c9b0       $unwind$?dtor$2@?0??KEY_export@@YA?AV?$shared_ptr@V?$basic_string@DU?$char_traits@D@std@@V?$allocator@D@2@@std@@@std@@PEAUevp_pkey_st@@P6AHPEAUbio_st@@0@Z@Z@4HA 00000001800409b0     key_exp.obj
 0002:0000c9b0       $unwind$?fin$0@?0??dllmain_crt_process_detach@@YAH_N@Z@4HA 00000001800409b0     LIBCMT:dll_dllmain.obj
 0002:0000c9b0       $unwind$?dtor$3@?0??DeriveBits@WPbkdf2@@SAXAEBV?$FunctionCallbackInfo@VValue@v8@@@Nan@@@Z@4HA 00000001800409b0     w_pbkdf2.obj
 0002:0000c9b0       $unwind$?dtor$5@?0??RsaPssVerify@WKey@@SAXAEBV?$FunctionCallbackInfo@VValue@v8@@@Nan@@@Z@4HA 00000001800409b0     w_key.obj
 0002:0000c9b0       $unwind$?dtor$4@?0??RsaPssVerify@WKey@@SAXAEBV?$FunctionCallbackInfo@VValue@v8@@@Nan@@@Z@4HA 00000001800409b0     w_key.obj
 0002:0000c9b0       $unwind$?dtor$3@?0??DecryptCtr@WAes@@SAXAEBV?$FunctionCallbackInfo@VValue@v8@@@Nan@@@Z@4HA 00000001800409b0     w_aes.obj
 0002:0000c9b0       $unwind$?dtor$2@?0??wrap@ScopedAES@@QEAA?AV?$shared_ptr@V?$basic_string@DU?$char_traits@D@std@@V?$allocator@D@2@@std@@@std@@V23@@Z@4HA 00000001800409b0     aes_cbc.obj
 0002:0000c9b0       $unwind$?fin$0@?0???$?RV<lambda_c376a267cfb53b6959b3b692ec76b120>@@AEAV<lambda_9a32fed5bf61b6b509b2d3f6003082a1>@@V<lambda_572fbb9fa0ab338edf41edfd4b5fcc8d>@@@?$__crt_seh_guarded_call@H@@QEAAH$$QEAV<lambda_c376a267cfb53b6959b3b692ec76b120>@@AEAV<lambda_9a32fed5bf61b6b509b2d3f6003082a1>@@$$QEAV<lambda_572fbb9fa0ab338edf41edfd4b5fcc8d>@@@Z@4HA 00000001800409b0     libucrt:fflush.obj
 0002:0000c9b0       $unwind$?dtor$0@?0??ExportSpki@WKey@@SAXAEBV?$FunctionCallbackInfo@VValue@v8@@@Nan@@@Z@4HA 00000001800409b0     w_key.obj
 0002:0000c9b0       $unwind$?dtor$6@?0??RsaOaepEncDec@WKey@@SAXAEBV?$FunctionCallbackInfo@VValue@v8@@@Nan@@@Z@4HA 00000001800409b0     w_key.obj
 0002:0000c9b0       $unwind$?dtor$4@?0??Execute@AsyncImportSpki@@UEAAXXZ@4HA 00000001800409b0     async_rsa.obj
 0002:0000c9b0       $unwind$?dtor$1@?0??ExportJwk@WKey@@SAXAEBV?$FunctionCallbackInfo@VValue@v8@@@Nan@@@Z@4HA 00000001800409b0     w_key.obj
 0002:0000c9b0       $unwind$?dtor$3@?0??Execute@AsyncAesGenerateKey@@UEAAXXZ@4HA 00000001800409b0     async_aes.obj
 0002:0000c9b0       $unwind$?dtor$2@?0??DecryptCtr@WAes@@SAXAEBV?$FunctionCallbackInfo@VValue@v8@@@Nan@@@Z@4HA 00000001800409b0     w_aes.obj
 0002:0000c9b0       $unwind$?dtor$3@?0??EcdhDeriveKey@WKey@@SAXAEBV?$FunctionCallbackInfo@VValue@v8@@@Nan@@@Z@4HA 00000001800409b0     w_key.obj
 0002:0000c9b0       $unwind$?dtor$2@?0??EcdhDeriveKey@WKey@@SAXAEBV?$FunctionCallbackInfo@VValue@v8@@@Nan@@@Z@4HA 00000001800409b0     w_key.obj
 0002:0000c9b0       $unwind$?dtor$4@?0??Execute@AsyncImportPkcs8@@UEAAXXZ@4HA 00000001800409b0     async_rsa.obj
 0002:0000c9b0       $unwind$?dtor$1@?0??WrapKey@WAes@@SAXAEBV?$FunctionCallbackInfo@VValue@v8@@@Nan@@@Z@4HA 00000001800409b0     w_aes.obj
 0002:0000c9b0       $unwind$?dtor$0@?0??GenerateEc@WKey@@SAXAEBV?$FunctionCallbackInfo@VValue@v8@@@Nan@@@Z@4HA 00000001800409b0     w_key.obj
 0002:0000c9b0       $unwind$?dtor$1@?0??GenerateEc@WKey@@SAXAEBV?$FunctionCallbackInfo@VValue@v8@@@Nan@@@Z@4HA 00000001800409b0     w_key.obj
 0002:0000c9b0       $unwind$?fin$0@?0???$?RV<lambda_a37b2b86f63e897a80ea819b0eb08c01>@@AEAV<lambda_38ce7e780aa69e748d6df282ebc68efe>@@V<lambda_99fb1378e971ab6e7edea83e3a7a83a2>@@@?$__crt_seh_guarded_call@H@@QEAAH$$QEAV<lambda_a37b2b86f63e897a80ea819b0eb08c01>@@AEAV<lambda_38ce7e780aa69e748d6df282ebc68efe>@@$$QEAV<lambda_99fb1378e971ab6e7edea83e3a7a83a2>@@@Z@4HA 00000001800409b0     libucrt:commit.obj
 0002:0000c9b0       $unwind$?dtor$3@?0??EcdhDeriveBits@WKey@@SAXAEBV?$FunctionCallbackInfo@VValue@v8@@@Nan@@@Z@4HA 00000001800409b0     w_key.obj
 0002:0000c9b0       $unwind$?dtor$2@?0??EcdhDeriveBits@WKey@@SAXAEBV?$FunctionCallbackInfo@VValue@v8@@@Nan@@@Z@4HA 00000001800409b0     w_key.obj
 0002:0000c9b0       $unwind$?dtor$2@?0??WrapKey@WAes@@SAXAEBV?$FunctionCallbackInfo@VValue@v8@@@Nan@@@Z@4HA 00000001800409b0     w_aes.obj
 0002:0000c9b0       $unwind$__acrt_lowio_ensure_fh_exists$fin$0 00000001800409b0     libucrt:osfinfo.obj
 0002:0000c9b0       $unwind$?dtor$1@?0??ImportKey@WPbkdf2@@SAXAEBV?$FunctionCallbackInfo@VValue@v8@@@Nan@@@Z@4HA 00000001800409b0     w_pbkdf2.obj
 0002:0000c9b0       $unwind$?dtor$2@?0??ImportKey@WPbkdf2@@SAXAEBV?$FunctionCallbackInfo@VValue@v8@@@Nan@@@Z@4HA 00000001800409b0     w_pbkdf2.obj
 0002:0000c9b0       $unwind$?fin$0@?0???$?RV<lambda_450d765d439847d4c735a33c368b5fc0>@@AEAV<lambda_44731a7d0e6d81c3e6aa82d741081786>@@V<lambda_601a2a7da3b7a96e9554ac7215c4b07c>@@@?$__crt_seh_guarded_call@P6AXH@Z@@QEAAP6AXH@Z$$QEAV<lambda_450d765d439847d4c735a33c368b5fc0>@@AEAV<lambda_44731a7d0e6d81c3e6aa82d741081786>@@$$QEAV<lambda_601a2a7da3b7a96e9554ac7215c4b07c>@@@Z@4HA 00000001800409b0     libucrt:signal.obj
 0002:0000c9b0       $unwind$?dtor$2@?0??From@JwkRsa@@SA?AV?$shared_ptr@VJwkRsa@@@std@@V?$shared_ptr@V?$ScopedSSL@Uevp_pkey_st@@$1?ScopedEVP_PKEY_free@@YAXPEAX@Z@@@3@AEAH@Z@4HA 00000001800409b0     rsa_jwk.obj
 0002:0000c9b0       $unwind$?dtor$4@?0??Verify@WKey@@SAXAEBV?$FunctionCallbackInfo@VValue@v8@@@Nan@@@Z@4HA 00000001800409b0     w_key.obj
 0002:0000c9b0       $unwind$?dtor$3@?0??DecryptGcm@WAes@@SAXAEBV?$FunctionCallbackInfo@VValue@v8@@@Nan@@@Z@4HA 00000001800409b0     w_aes.obj
 0002:0000c9b0       $unwind$?dtor$5@?0??AES_CBC_encrypt@@YA?AV?$shared_ptr@V?$basic_string@DU?$char_traits@D@std@@V?$allocator@D@2@@std@@@std@@V12@00_N@Z@4HA 00000001800409b0     aes_cbc.obj
 0002:0000c9b0       $unwind$raise$fin$0        00000001800409b0     libucrt:signal.obj
 0002:0000c9b0       $unwind$?dtor$5@?0??Verify@WKey@@SAXAEBV?$FunctionCallbackInfo@VValue@v8@@@Nan@@@Z@4HA 00000001800409b0     w_key.obj
 0002:0000c9b0       $unwind$?dtor$4@?0??DecryptGcm@WAes@@SAXAEBV?$FunctionCallbackInfo@VValue@v8@@@Nan@@@Z@4HA 00000001800409b0     w_aes.obj
 0002:0000c9b0       $unwind$?fin$0@?0???$?RV<lambda_aa87e3671a710a21b5dc78c0bdf72e11>@@AEAV<lambda_92619d2358a28f41a33ba319515a20b9>@@V<lambda_6992ecaafeb10aed2b74cb1fae11a551>@@@?$__crt_seh_guarded_call@X@@QEAAX$$QEAV<lambda_aa87e3671a710a21b5dc78c0bdf72e11>@@AEAV<lambda_92619d2358a28f41a33ba319515a20b9>@@$$QEAV<lambda_6992ecaafeb10aed2b74cb1fae11a551>@@@Z@4HA 00000001800409b0     libucrt:per_thread_data.obj
 0002:0000c9b0       $unwind$?fin$0@?0???$?RV<lambda_0ae27a3a962d80f24befdcbee591983d>@@AEAV<lambda_8d0ee55de4b1038c4002e0adecdf1839>@@V<lambda_dc504788e8f1664fe9b84e20bfb512f2>@@@?$__crt_seh_guarded_call@X@@QEAAX$$QEAV<lambda_0ae27a3a962d80f24befdcbee591983d>@@AEAV<lambda_8d0ee55de4b1038c4002e0adecdf1839>@@$$QEAV<lambda_dc504788e8f1664fe9b84e20bfb512f2>@@@Z@4HA 00000001800409b0     libucrt:per_thread_data.obj
 0002:0000c9b0       $unwind$?dtor$0@?0??GenerateRsa@WKey@@SAXAEBV?$FunctionCallbackInfo@VValue@v8@@@Nan@@@Z@4HA 00000001800409b0     w_key.obj
 0002:0000c9b0       $unwind$?dtor$9@?0??Verify@WKey@@SAXAEBV?$FunctionCallbackInfo@VValue@v8@@@Nan@@@Z@4HA 00000001800409b0     w_key.obj
 0002:0000c9b0       $unwind$?dtor$1@?0??GenerateRsa@WKey@@SAXAEBV?$FunctionCallbackInfo@VValue@v8@@@Nan@@@Z@4HA 00000001800409b0     w_key.obj
 0002:0000c9b0       $unwind$?dtor$4@?0??Verify@WHmac@@SAXAEBV?$FunctionCallbackInfo@VValue@v8@@@Nan@@@Z@4HA 00000001800409b0     w_hmac.obj
 0002:0000c9b0       $unwind$__CxxCallCatchBlock$filt$0 00000001800409b0     libvcruntime:frame.obj
 0002:0000c9b0       $unwind$?dtor$5@?0??Verify@WHmac@@SAXAEBV?$FunctionCallbackInfo@VValue@v8@@@Nan@@@Z@4HA 00000001800409b0     w_hmac.obj
 0002:0000c9b0       $unwind$?fin$0@?0???$?RV<lambda_f2e299630e499de9f9a165e60fcd3db5>@@AEAV<lambda_2ae9d31cdba2644fcbeaf08da7c24588>@@V<lambda_40d01ff24d0e7b3814fdbdcee8eab3c7>@@@?$__crt_seh_guarded_call@X@@QEAAX$$QEAV<lambda_f2e299630e499de9f9a165e60fcd3db5>@@AEAV<lambda_2ae9d31cdba2644fcbeaf08da7c24588>@@$$QEAV<lambda_40d01ff24d0e7b3814fdbdcee8eab3c7>@@@Z@4HA 00000001800409b0     libucrt:per_thread_data.obj
 0002:0000c9b0       $unwind$?fin$0@?0???$?RV<lambda_2d41944a1d46af3157314b8a01080d33>@@AEAV<lambda_8f455de75cd7d7f24b4096f044d8b9e6>@@V<lambda_aa500f224e6afead328df44964fe2772>@@@?$__crt_seh_guarded_call@X@@QEAAX$$QEAV<lambda_2d41944a1d46af3157314b8a01080d33>@@AEAV<lambda_8f455de75cd7d7f24b4096f044d8b9e6>@@$$QEAV<lambda_aa500f224e6afead328df44964fe2772>@@@Z@4HA 00000001800409b0     libucrt:per_thread_data.obj
 0002:0000c9b0       $unwind$?dtor$3@?0??EncryptGcm@WAes@@SAXAEBV?$FunctionCallbackInfo@VValue@v8@@@Nan@@@Z@4HA 00000001800409b0     w_aes.obj
 0002:0000c9b0       $unwind$fclose$fin$0       00000001800409b0     libucrt:fclose.obj
 0002:0000c9b0       $unwind$?dtor$3@?0??Sign@WKey@@SAXAEBV?$FunctionCallbackInfo@VValue@v8@@@Nan@@@Z@4HA 00000001800409b0     w_key.obj
 0002:0000c9b0       $unwind$?dtor$3@?0??EncryptCtr@WAes@@SAXAEBV?$FunctionCallbackInfo@VValue@v8@@@Nan@@@Z@4HA 00000001800409b0     w_aes.obj
 0002:0000c9b0       $unwind$?dtor$2@?0??Sign@WHmac@@SAXAEBV?$FunctionCallbackInfo@VValue@v8@@@Nan@@@Z@4HA 00000001800409b0     w_hmac.obj
 0002:0000c9b0       $unwind$?dtor$4@?0??AES_ECB_encrypt@@YA?AV?$shared_ptr@V?$basic_string@DU?$char_traits@D@std@@V?$allocator@D@2@@std@@@std@@V12@0_N@Z@4HA 00000001800409b0     aes_ecb.obj
 0002:0000c9b0       $unwind$?dtor$3@?0??Sign@WHmac@@SAXAEBV?$FunctionCallbackInfo@VValue@v8@@@Nan@@@Z@4HA 00000001800409b0     w_hmac.obj
 0002:0000c9b0       $unwind$_fcloseall$fin$0   00000001800409b0     libucrt:closeall.obj
 0002:0000c9b0       $unwind$?dtor$3@?0??ECDH_derive_key@@YA?AV?$shared_ptr@V?$basic_string@DU?$char_traits@D@std@@V?$allocator@D@2@@std@@@std@@V?$shared_ptr@V?$ScopedSSL@Uevp_pkey_st@@$1?ScopedEVP_PKEY_free@@YAXPEAX@Z@@@2@0AEA_K@Z@4HA 00000001800409b0     ec_dh.obj
 0002:0000c9b0       $unwind$__acrt_update_thread_locale_data$fin$0 00000001800409b0     libucrt:locale_refcounting.obj
 0002:0000c9b0       $unwind$?fin$0@?0???$?RV<lambda_7777bce6b2f8c936911f934f8298dc43>@@AEAV<lambda_f03950bc5685219e0bcd2087efbe011e>@@V<lambda_3883c3dff614d5e0c5f61bb1ac94921c>@@@?$__crt_seh_guarded_call@H@@QEAAH$$QEAV<lambda_7777bce6b2f8c936911f934f8298dc43>@@AEAV<lambda_f03950bc5685219e0bcd2087efbe011e>@@$$QEAV<lambda_3883c3dff614d5e0c5f61bb1ac94921c>@@@Z@4HA 00000001800409b0     libucrt:onexit.obj
 0002:0000c9b0       $unwind$?dtor$4@?0??EncryptGcm@WAes@@SAXAEBV?$FunctionCallbackInfo@VValue@v8@@@Nan@@@Z@4HA 00000001800409b0     w_aes.obj
 0002:0000c9b0       $unwind$?dtor$4@?0??Sign@WKey@@SAXAEBV?$FunctionCallbackInfo@VValue@v8@@@Nan@@@Z@4HA 00000001800409b0     w_key.obj
 0002:0000c9b0       $unwind$?dtor$1@?0??Import@WHmac@@SAXAEBV?$FunctionCallbackInfo@VValue@v8@@@Nan@@@Z@4HA 00000001800409b0     w_hmac.obj
 0002:0000c9b0       $unwind$?fin$0@?0???$?RV<lambda_8369fcb7c4df1e85de37618bd2b85f07>@@AEAV<lambda_a10e4b102d4a2c3aac6f4f48bbdf488f>@@V<lambda_5b7707bd6d7a0c4713179f36c7fd995d>@@@?$__crt_seh_guarded_call@H@@QEAAH$$QEAV<lambda_8369fcb7c4df1e85de37618bd2b85f07>@@AEAV<lambda_a10e4b102d4a2c3aac6f4f48bbdf488f>@@$$QEAV<lambda_5b7707bd6d7a0c4713179f36c7fd995d>@@@Z@4HA 00000001800409b0     libucrt:onexit.obj
 0002:0000c9b0       $unwind$?dtor$2@?0??Import@WHmac@@SAXAEBV?$FunctionCallbackInfo@VValue@v8@@@Nan@@@Z@4HA 00000001800409b0     w_hmac.obj
 0002:0000c9b0       $unwind$?dtor$7@?0??Sign@WKey@@SAXAEBV?$FunctionCallbackInfo@VValue@v8@@@Nan@@@Z@4HA 00000001800409b0     w_key.obj
 0002:0000c9b0       $unwind$?dtor$5@?0??ConvertWebCryptoSignatureToDerSignature@@YA?AV?$shared_ptr@V?$basic_string@DU?$char_traits@D@std@@V?$allocator@D@2@@std@@@std@@PEAUevp_pkey_st@@PEBEAEB_KPEA_N@Z@4HA 00000001800409b0     ec_dsa.obj
 0002:0000c9b0       $unwind$?dtor$2@?0??ConvertDerSignatureToWebCryptoSignature@@YA?AV?$shared_ptr@V?$basic_string@DU?$char_traits@D@std@@V?$allocator@D@2@@std@@@std@@PEAUevp_pkey_st@@PEBEAEA_K@Z@4HA 00000001800409b0     ec_dsa.obj
 0002:0000c9b0       $unwind$_IsNonwritableInCurrentImage$filt$0 00000001800409b0     LIBCMT:pesect.obj
 0002:0000c9b0       $unwind$?fin$0@?0???$?RV<lambda_0d412022a4b28cc8a401ea49574e8ae6>@@AEAV<lambda_a775ed57af18ba8e4d5dc780aa9068fe>@@V<lambda_975a71a6baa488a08f4e15f6b0339b9e>@@@?$__crt_seh_guarded_call@H@@QEAAH$$QEAV<lambda_0d412022a4b28cc8a401ea49574e8ae6>@@AEAV<lambda_a775ed57af18ba8e4d5dc780aa9068fe>@@$$QEAV<lambda_975a71a6baa488a08f4e15f6b0339b9e>@@@Z@4HA 00000001800409b0     libucrt:output.obj
 0002:0000c9b0       $unwind$?dtor$1@?0??digest@@YA?AV?$shared_ptr@V?$basic_string@DU?$char_traits@D@std@@V?$allocator@D@2@@std@@@std@@PEBUenv_md_st@@V12@@Z@4HA 00000001800409b0     digest.obj
 0002:0000c9b0       $unwind$?dtor$0@?0??Export@WHmac@@SAXAEBV?$FunctionCallbackInfo@VValue@v8@@@Nan@@@Z@4HA 00000001800409b0     w_hmac.obj
 0002:0000c9b0       $unwind$?dtor$0@?0??ExportPkcs8@WKey@@SAXAEBV?$FunctionCallbackInfo@VValue@v8@@@Nan@@@Z@4HA 00000001800409b0     w_key.obj
 0002:0000c9b0       $unwind$?dtor$1@?0??Export@WHmac@@SAXAEBV?$FunctionCallbackInfo@VValue@v8@@@Nan@@@Z@4HA 00000001800409b0     w_hmac.obj
 0002:0000c9b0       $unwind$?fin$0@?0??dllmain_crt_process_attach@@YAHQEAUHINSTANCE__@@QEAX@Z@4HA 00000001800409b0     LIBCMT:dll_dllmain.obj
 0002:0000c9b0       $unwind$?dtor$2@?0??ImportPkcs8@WKey@@SAXAEBV?$FunctionCallbackInfo@VValue@v8@@@Nan@@@Z@4HA 00000001800409b0     w_key.obj
 0002:0000c9b0       $unwind$?dtor$1@?0??Generate@WAes@@SAXAEBV?$FunctionCallbackInfo@VValue@v8@@@Nan@@@Z@4HA 00000001800409b0     w_aes.obj
 0002:0000c9b0       $unwind$?fin$0@?0??update_thread_multibyte_data_internal@@YAPEAU__crt_multibyte_data@@QEAU__acrt_ptd@@QEAPEAU1@@Z@4HA 00000001800409b0     libucrt:mbctype.obj
 0002:0000c9b0       $unwind$?dtor$7@?0??Execute@AsyncAesEncryptECB@@UEAAXXZ@4HA 00000001800409b0     async_aes.obj
 0002:0000c9b0       $unwind$?dtor$4@?0??AES_GCM_decrypt@@YA?AV?$shared_ptr@V?$basic_string@DU?$char_traits@D@std@@V?$allocator@D@2@@std@@@std@@V12@000H@Z@4HA 00000001800409b0     aes_gcm.obj
 0002:0000c9b0       $unwind$?dtor$0@?0??Generate@WHmac@@SAXAEBV?$FunctionCallbackInfo@VValue@v8@@@Nan@@@Z@4HA 00000001800409b0     w_hmac.obj
 0002:0000c9b0       $unwind$?dtor$4@?0??AES_GCM_encrypt@@YA?AV?$shared_ptr@V?$basic_string@DU?$char_traits@D@std@@V?$allocator@D@2@@std@@@std@@V12@000H@Z@4HA 00000001800409b0     aes_gcm.obj
 0002:0000c9b0       $unwind$?dtor$1@?0??Generate@WHmac@@SAXAEBV?$FunctionCallbackInfo@VValue@v8@@@Nan@@@Z@4HA 00000001800409b0     w_hmac.obj
